SF:/Users/smeya/git/darwin-metrics/src/battery/mod.rs
FN:151,_RNvMs_NtCs6JXvGULNGKJ_14darwin_metrics7batteryNtB4_7Battery11is_critical
FN:128,_RNvMs_NtCs6JXvGULNGKJ_14darwin_metrics7batteryNtB4_7Battery11with_values
FN:170,_RNvMs_NtCs6JXvGULNGKJ_14darwin_metrics7batteryNtB4_7Battery14is_health_poor
FN:174,_RNvMs_NtCs6JXvGULNGKJ_14darwin_metrics7batteryNtB4_7Battery20has_high_cycle_count
FN:178,_RNvMs_NtCs6JXvGULNGKJ_14darwin_metrics7batteryNtB4_7Battery20power_source_display
FN:159,_RNvMs_NtCs6JXvGULNGKJ_14darwin_metrics7batteryNtB4_7Battery22time_remaining_display
FN:186,_RNvMs_NtCs6JXvGULNGKJ_14darwin_metrics7batteryNtB4_7Battery23is_temperature_critical
FN:155,_RNvMs_NtCs6JXvGULNGKJ_14darwin_metrics7batteryNtB4_7Battery6is_low
FN:56,_RNvMs_NtCs6JXvGULNGKJ_14darwin_metrics7batteryNtB4_7Battery6update
FN:113,_RNvMs_NtCs6JXvGULNGKJ_14darwin_metrics7batteryNtB4_7Battery8get_info
FN:44,_RNvXNtCs6JXvGULNGKJ_14darwin_metrics7batteryNtB2_7BatteryNtNtCs4P3ALgZxGbJ_4core7default7Default7default
FN:192,_RNvXs0_NtCs6JXvGULNGKJ_14darwin_metrics7batteryNtB5_7BatteryNtNtCs4P3ALgZxGbJ_4core5clone5Clone5clone
FN:208,_RNvXs1_NtCs6JXvGULNGKJ_14darwin_metrics7batteryNtB5_7BatteryNtNtCs4P3ALgZxGbJ_4core3cmp9PartialEq2eq
FN:50,_RNvMs_NtCs6JXvGULNGKJ_14darwin_metrics7batteryNtB4_7Battery3new
FN:388,_RNvNtNtCs6JXvGULNGKJ_14darwin_metrics7battery5tests19create_mock_battery
FN:582,_RNvNtNtCs6JXvGULNGKJ_14darwin_metrics7battery5testss_15test_battery_eq
FN:407,_RNvNtNtCs6JXvGULNGKJ_14darwin_metrics7battery5testss_16test_battery_new
FN:567,_RNvNtNtCs6JXvGULNGKJ_14darwin_metrics7battery5testss_18test_battery_clone
FN:493,_RNvNtNtCs6JXvGULNGKJ_14darwin_metrics7battery5testss_19test_battery_is_low
FN:449,_RNvNtNtCs6JXvGULNGKJ_14darwin_metrics7battery5testss_21test_battery_get_info
FN:483,_RNvNtNtCs6JXvGULNGKJ_14darwin_metrics7battery5testss_24test_battery_is_critical
FN:460,_RNvNtNtCs6JXvGULNGKJ_14darwin_metrics7battery5testss_24test_battery_with_values
FN:520,_RNvNtNtCs6JXvGULNGKJ_14darwin_metrics7battery5testss_27test_battery_is_health_poor
FN:416,_RNvNtNtCs6JXvGULNGKJ_14darwin_metrics7battery5testss_27test_battery_update_present
FN:433,_RNvNtNtCs6JXvGULNGKJ_14darwin_metrics7battery5testss_31test_battery_update_not_present
FN:531,_RNvNtNtCs6JXvGULNGKJ_14darwin_metrics7battery5testss_33test_battery_has_high_cycle_count
FN:542,_RNvNtNtCs6JXvGULNGKJ_14darwin_metrics7battery5testss_33test_battery_power_source_display
FN:503,_RNvNtNtCs6JXvGULNGKJ_14darwin_metrics7battery5testss_35test_battery_time_remaining_display
FN:556,_RNvNtNtCs6JXvGULNGKJ_14darwin_metrics7battery5testss_36test_battery_is_temperature_critical
FN:299,_RNvXNtNtCs6JXvGULNGKJ_14darwin_metrics7battery5testsNtB2_9MockIOKitNtNtNtB6_8hardware5iokit5IOKit11get_service
FN:345,_RNvXNtNtCs6JXvGULNGKJ_14darwin_metrics7battery5testsNtB2_9MockIOKitNtNtNtB6_8hardware5iokit5IOKit12get_all_fans
FN:336,_RNvXNtNtCs6JXvGULNGKJ_14darwin_metrics7battery5testsNtB2_9MockIOKitNtNtNtB6_8hardware5iokit5IOKit12get_fan_info
FN:382,_RNvXNtNtCs6JXvGULNGKJ_14darwin_metrics7battery5testsNtB2_9MockIOKitNtNtNtB6_8hardware5iokit5IOKit12read_smc_key
FN:362,_RNvXNtNtCs6JXvGULNGKJ_14darwin_metrics7battery5testsNtB2_9MockIOKitNtNtNtB6_8hardware5iokit5IOKit13get_cpu_power
FN:332,_RNvXNtNtCs6JXvGULNGKJ_14darwin_metrics7battery5testsNtB2_9MockIOKitNtNtNtB6_8hardware5iokit5IOKit13get_fan_count
FN:328,_RNvXNtNtCs6JXvGULNGKJ_14darwin_metrics7battery5testsNtB2_9MockIOKitNtNtNtB6_8hardware5iokit5IOKit13get_fan_speed
FN:316,_RNvXNtNtCs6JXvGULNGKJ_14darwin_metrics7battery5testsNtB2_9MockIOKitNtNtNtB6_8hardware5iokit5IOKit13get_gpu_stats
FN:370,_RNvXNtNtCs6JXvGULNGKJ_14darwin_metrics7battery5testsNtB2_9MockIOKitNtNtNtB6_8hardware5iokit5IOKit16get_thermal_info
FN:282,_RNvXNtNtCs6JXvGULNGKJ_14darwin_metrics7battery5testsNtB2_9MockIOKitNtNtNtB6_8hardware5iokit5IOKit17get_bool_property
FN:291,_RNvXNtNtCs6JXvGULNGKJ_14darwin_metrics7battery5testsNtB2_9MockIOKitNtNtNtB6_8hardware5iokit5IOKit17get_dict_property
FN:256,_RNvXNtNtCs6JXvGULNGKJ_14darwin_metrics7battery5testsNtB2_9MockIOKitNtNtNtB6_8hardware5iokit5IOKit17io_object_release
FN:308,_RNvXNtNtCs6JXvGULNGKJ_14darwin_metrics7battery5testsNtB2_9MockIOKitNtNtNtB6_8hardware5iokit5IOKit19get_cpu_temperature
FN:312,_RNvXNtNtCs6JXvGULNGKJ_14darwin_metrics7battery5testsNtB2_9MockIOKitNtNtNtB6_8hardware5iokit5IOKit19get_gpu_temperature
FN:266,_RNvXNtNtCs6JXvGULNGKJ_14darwin_metrics7battery5testsNtB2_9MockIOKitNtNtNtB6_8hardware5iokit5IOKit19get_number_property
FN:258,_RNvXNtNtCs6JXvGULNGKJ_14darwin_metrics7battery5testsNtB2_9MockIOKitNtNtNtB6_8hardware5iokit5IOKit19get_string_property
FN:238,_RNvXNtNtCs6JXvGULNGKJ_14darwin_metrics7battery5testsNtB2_9MockIOKitNtNtNtB6_8hardware5iokit5IOKit19io_service_matching
FN:354,_RNvXNtNtCs6JXvGULNGKJ_14darwin_metrics7battery5testsNtB2_9MockIOKitNtNtNtB6_8hardware5iokit5IOKit23get_ambient_temperature
FN:358,_RNvXNtNtCs6JXvGULNGKJ_14darwin_metrics7battery5testsNtB2_9MockIOKitNtNtNtB6_8hardware5iokit5IOKit23get_battery_temperature
FN:366,_RNvXNtNtCs6JXvGULNGKJ_14darwin_metrics7battery5testsNtB2_9MockIOKitNtNtNtB6_8hardware5iokit5IOKit24check_thermal_throttling
FN:350,_RNvXNtNtCs6JXvGULNGKJ_14darwin_metrics7battery5testsNtB2_9MockIOKitNtNtNtB6_8hardware5iokit5IOKit24get_heatsink_temperature
FN:303,_RNvXNtNtCs6JXvGULNGKJ_14darwin_metrics7battery5testsNtB2_9MockIOKitNtNtNtB6_8hardware5iokit5IOKit28io_registry_entry_get_parent
FN:242,_RNvXNtNtCs6JXvGULNGKJ_14darwin_metrics7battery5testsNtB2_9MockIOKitNtNtNtB6_8hardware5iokit5IOKit31io_service_get_matching_service
FN:249,_RNvXNtNtCs6JXvGULNGKJ_14darwin_metrics7battery5testsNtB2_9MockIOKitNtNtNtB6_8hardware5iokit5IOKit38io_registry_entry_create_cf_properties
FN:151,_RNvMs_NtCsaakIWYUxKbY_14darwin_metrics7batteryNtB4_7Battery11is_critical
FN:128,_RNvMs_NtCsaakIWYUxKbY_14darwin_metrics7batteryNtB4_7Battery11with_values
FN:170,_RNvMs_NtCsaakIWYUxKbY_14darwin_metrics7batteryNtB4_7Battery14is_health_poor
FN:174,_RNvMs_NtCsaakIWYUxKbY_14darwin_metrics7batteryNtB4_7Battery20has_high_cycle_count
FN:178,_RNvMs_NtCsaakIWYUxKbY_14darwin_metrics7batteryNtB4_7Battery20power_source_display
FN:159,_RNvMs_NtCsaakIWYUxKbY_14darwin_metrics7batteryNtB4_7Battery22time_remaining_display
FN:186,_RNvMs_NtCsaakIWYUxKbY_14darwin_metrics7batteryNtB4_7Battery23is_temperature_critical
FN:50,_RNvMs_NtCsaakIWYUxKbY_14darwin_metrics7batteryNtB4_7Battery3new
FN:155,_RNvMs_NtCsaakIWYUxKbY_14darwin_metrics7batteryNtB4_7Battery6is_low
FN:56,_RNvMs_NtCsaakIWYUxKbY_14darwin_metrics7batteryNtB4_7Battery6update
FN:113,_RNvMs_NtCsaakIWYUxKbY_14darwin_metrics7batteryNtB4_7Battery8get_info
FN:44,_RNvXNtCsaakIWYUxKbY_14darwin_metrics7batteryNtB2_7BatteryNtNtCs4P3ALgZxGbJ_4core7default7Default7default
FN:192,_RNvXs0_NtCsaakIWYUxKbY_14darwin_metrics7batteryNtB5_7BatteryNtNtCs4P3ALgZxGbJ_4core5clone5Clone5clone
FN:208,_RNvXs1_NtCsaakIWYUxKbY_14darwin_metrics7batteryNtB5_7BatteryNtNtCs4P3ALgZxGbJ_4core3cmp9PartialEq2eq
FNDA:2,_RNvMs_NtCs6JXvGULNGKJ_14darwin_metrics7batteryNtB4_7Battery11is_critical
FNDA:9,_RNvMs_NtCs6JXvGULNGKJ_14darwin_metrics7batteryNtB4_7Battery11with_values
FNDA:2,_RNvMs_NtCs6JXvGULNGKJ_14darwin_metrics7batteryNtB4_7Battery14is_health_poor
FNDA:2,_RNvMs_NtCs6JXvGULNGKJ_14darwin_metrics7batteryNtB4_7Battery20has_high_cycle_count
FNDA:3,_RNvMs_NtCs6JXvGULNGKJ_14darwin_metrics7batteryNtB4_7Battery20power_source_display
FNDA:3,_RNvMs_NtCs6JXvGULNGKJ_14darwin_metrics7batteryNtB4_7Battery22time_remaining_display
FNDA:2,_RNvMs_NtCs6JXvGULNGKJ_14darwin_metrics7batteryNtB4_7Battery23is_temperature_critical
FNDA:2,_RNvMs_NtCs6JXvGULNGKJ_14darwin_metrics7batteryNtB4_7Battery6is_low
FNDA:6,_RNvMs_NtCs6JXvGULNGKJ_14darwin_metrics7batteryNtB4_7Battery6update
FNDA:1,_RNvMs_NtCs6JXvGULNGKJ_14darwin_metrics7batteryNtB4_7Battery8get_info
FNDA:8,_RNvXNtCs6JXvGULNGKJ_14darwin_metrics7batteryNtB2_7BatteryNtNtCs4P3ALgZxGbJ_4core7default7Default7default
FNDA:2,_RNvXs0_NtCs6JXvGULNGKJ_14darwin_metrics7batteryNtB5_7BatteryNtNtCs4P3ALgZxGbJ_4core5clone5Clone5clone
FNDA:2,_RNvXs1_NtCs6JXvGULNGKJ_14darwin_metrics7batteryNtB5_7BatteryNtNtCs4P3ALgZxGbJ_4core3cmp9PartialEq2eq
FNDA:0,_RNvMs_NtCs6JXvGULNGKJ_14darwin_metrics7batteryNtB4_7Battery3new
FNDA:6,_RNvNtNtCs6JXvGULNGKJ_14darwin_metrics7battery5tests19create_mock_battery
FNDA:1,_RNvNtNtCs6JXvGULNGKJ_14darwin_metrics7battery5testss_15test_battery_eq
FNDA:1,_RNvNtNtCs6JXvGULNGKJ_14darwin_metrics7battery5testss_16test_battery_new
FNDA:1,_RNvNtNtCs6JXvGULNGKJ_14darwin_metrics7battery5testss_18test_battery_clone
FNDA:1,_RNvNtNtCs6JXvGULNGKJ_14darwin_metrics7battery5testss_19test_battery_is_low
FNDA:1,_RNvNtNtCs6JXvGULNGKJ_14darwin_metrics7battery5testss_21test_battery_get_info
FNDA:1,_RNvNtNtCs6JXvGULNGKJ_14darwin_metrics7battery5testss_24test_battery_is_critical
FNDA:1,_RNvNtNtCs6JXvGULNGKJ_14darwin_metrics7battery5testss_24test_battery_with_values
FNDA:1,_RNvNtNtCs6JXvGULNGKJ_14darwin_metrics7battery5testss_27test_battery_is_health_poor
FNDA:1,_RNvNtNtCs6JXvGULNGKJ_14darwin_metrics7battery5testss_27test_battery_update_present
FNDA:1,_RNvNtNtCs6JXvGULNGKJ_14darwin_metrics7battery5testss_31test_battery_update_not_present
FNDA:1,_RNvNtNtCs6JXvGULNGKJ_14darwin_metrics7battery5testss_33test_battery_has_high_cycle_count
FNDA:1,_RNvNtNtCs6JXvGULNGKJ_14darwin_metrics7battery5testss_33test_battery_power_source_display
FNDA:1,_RNvNtNtCs6JXvGULNGKJ_14darwin_metrics7battery5testss_35test_battery_time_remaining_display
FNDA:1,_RNvNtNtCs6JXvGULNGKJ_14darwin_metrics7battery5testss_36test_battery_is_temperature_critical
FNDA:0,_RNvXNtNtCs6JXvGULNGKJ_14darwin_metrics7battery5testsNtB2_9MockIOKitNtNtNtB6_8hardware5iokit5IOKit11get_service
FNDA:0,_RNvXNtNtCs6JXvGULNGKJ_14darwin_metrics7battery5testsNtB2_9MockIOKitNtNtNtB6_8hardware5iokit5IOKit12get_all_fans
FNDA:0,_RNvXNtNtCs6JXvGULNGKJ_14darwin_metrics7battery5testsNtB2_9MockIOKitNtNtNtB6_8hardware5iokit5IOKit12get_fan_info
FNDA:0,_RNvXNtNtCs6JXvGULNGKJ_14darwin_metrics7battery5testsNtB2_9MockIOKitNtNtNtB6_8hardware5iokit5IOKit12read_smc_key
FNDA:0,_RNvXNtNtCs6JXvGULNGKJ_14darwin_metrics7battery5testsNtB2_9MockIOKitNtNtNtB6_8hardware5iokit5IOKit13get_cpu_power
FNDA:0,_RNvXNtNtCs6JXvGULNGKJ_14darwin_metrics7battery5testsNtB2_9MockIOKitNtNtNtB6_8hardware5iokit5IOKit13get_fan_count
FNDA:0,_RNvXNtNtCs6JXvGULNGKJ_14darwin_metrics7battery5testsNtB2_9MockIOKitNtNtNtB6_8hardware5iokit5IOKit13get_fan_speed
FNDA:0,_RNvXNtNtCs6JXvGULNGKJ_14darwin_metrics7battery5testsNtB2_9MockIOKitNtNtNtB6_8hardware5iokit5IOKit13get_gpu_stats
FNDA:0,_RNvXNtNtCs6JXvGULNGKJ_14darwin_metrics7battery5testsNtB2_9MockIOKitNtNtNtB6_8hardware5iokit5IOKit16get_thermal_info
FNDA:16,_RNvXNtNtCs6JXvGULNGKJ_14darwin_metrics7battery5testsNtB2_9MockIOKitNtNtNtB6_8hardware5iokit5IOKit17get_bool_property
FNDA:0,_RNvXNtNtCs6JXvGULNGKJ_14darwin_metrics7battery5testsNtB2_9MockIOKitNtNtNtB6_8hardware5iokit5IOKit17get_dict_property
FNDA:0,_RNvXNtNtCs6JXvGULNGKJ_14darwin_metrics7battery5testsNtB2_9MockIOKitNtNtNtB6_8hardware5iokit5IOKit17io_object_release
FNDA:0,_RNvXNtNtCs6JXvGULNGKJ_14darwin_metrics7battery5testsNtB2_9MockIOKitNtNtNtB6_8hardware5iokit5IOKit19get_cpu_temperature
FNDA:0,_RNvXNtNtCs6JXvGULNGKJ_14darwin_metrics7battery5testsNtB2_9MockIOKitNtNtNtB6_8hardware5iokit5IOKit19get_gpu_temperature
FNDA:30,_RNvXNtNtCs6JXvGULNGKJ_14darwin_metrics7battery5testsNtB2_9MockIOKitNtNtNtB6_8hardware5iokit5IOKit19get_number_property
FNDA:0,_RNvXNtNtCs6JXvGULNGKJ_14darwin_metrics7battery5testsNtB2_9MockIOKitNtNtNtB6_8hardware5iokit5IOKit19get_string_property
FNDA:7,_RNvXNtNtCs6JXvGULNGKJ_14darwin_metrics7battery5testsNtB2_9MockIOKitNtNtNtB6_8hardware5iokit5IOKit19io_service_matching
FNDA:0,_RNvXNtNtCs6JXvGULNGKJ_14darwin_metrics7battery5testsNtB2_9MockIOKitNtNtNtB6_8hardware5iokit5IOKit23get_ambient_temperature
FNDA:0,_RNvXNtNtCs6JXvGULNGKJ_14darwin_metrics7battery5testsNtB2_9MockIOKitNtNtNtB6_8hardware5iokit5IOKit23get_battery_temperature
FNDA:0,_RNvXNtNtCs6JXvGULNGKJ_14darwin_metrics7battery5testsNtB2_9MockIOKitNtNtNtB6_8hardware5iokit5IOKit24check_thermal_throttling
FNDA:0,_RNvXNtNtCs6JXvGULNGKJ_14darwin_metrics7battery5testsNtB2_9MockIOKitNtNtNtB6_8hardware5iokit5IOKit24get_heatsink_temperature
FNDA:0,_RNvXNtNtCs6JXvGULNGKJ_14darwin_metrics7battery5testsNtB2_9MockIOKitNtNtNtB6_8hardware5iokit5IOKit28io_registry_entry_get_parent
FNDA:7,_RNvXNtNtCs6JXvGULNGKJ_14darwin_metrics7battery5testsNtB2_9MockIOKitNtNtNtB6_8hardware5iokit5IOKit31io_service_get_matching_service
FNDA:7,_RNvXNtNtCs6JXvGULNGKJ_14darwin_metrics7battery5testsNtB2_9MockIOKitNtNtNtB6_8hardware5iokit5IOKit38io_registry_entry_create_cf_properties
FNDA:0,_RNvMs_NtCsaakIWYUxKbY_14darwin_metrics7batteryNtB4_7Battery11is_critical
FNDA:0,_RNvMs_NtCsaakIWYUxKbY_14darwin_metrics7batteryNtB4_7Battery11with_values
FNDA:0,_RNvMs_NtCsaakIWYUxKbY_14darwin_metrics7batteryNtB4_7Battery14is_health_poor
FNDA:0,_RNvMs_NtCsaakIWYUxKbY_14darwin_metrics7batteryNtB4_7Battery20has_high_cycle_count
FNDA:0,_RNvMs_NtCsaakIWYUxKbY_14darwin_metrics7batteryNtB4_7Battery20power_source_display
FNDA:0,_RNvMs_NtCsaakIWYUxKbY_14darwin_metrics7batteryNtB4_7Battery22time_remaining_display
FNDA:0,_RNvMs_NtCsaakIWYUxKbY_14darwin_metrics7batteryNtB4_7Battery23is_temperature_critical
FNDA:0,_RNvMs_NtCsaakIWYUxKbY_14darwin_metrics7batteryNtB4_7Battery3new
FNDA:0,_RNvMs_NtCsaakIWYUxKbY_14darwin_metrics7batteryNtB4_7Battery6is_low
FNDA:0,_RNvMs_NtCsaakIWYUxKbY_14darwin_metrics7batteryNtB4_7Battery6update
FNDA:0,_RNvMs_NtCsaakIWYUxKbY_14darwin_metrics7batteryNtB4_7Battery8get_info
FNDA:0,_RNvXNtCsaakIWYUxKbY_14darwin_metrics7batteryNtB2_7BatteryNtNtCs4P3ALgZxGbJ_4core7default7Default7default
FNDA:0,_RNvXs0_NtCsaakIWYUxKbY_14darwin_metrics7batteryNtB5_7BatteryNtNtCs4P3ALgZxGbJ_4core5clone5Clone5clone
FNDA:0,_RNvXs1_NtCsaakIWYUxKbY_14darwin_metrics7batteryNtB5_7BatteryNtNtCs4P3ALgZxGbJ_4core3cmp9PartialEq2eq
FNF:53
FNH:33
DA:44,8
DA:45,8
DA:46,8
DA:50,0
DA:51,0
DA:52,0
DA:53,0
DA:54,0
DA:56,6
DA:57,6
DA:58,6
DA:60,6
DA:61,0
DA:64,6
DA:66,6
DA:67,6
DA:68,6
DA:69,6
DA:70,1
DA:71,1
DA:72,1
DA:73,1
DA:74,1
DA:75,1
DA:76,1
DA:77,1
DA:78,5
DA:79,5
DA:80,5
DA:81,5
DA:82,5
DA:83,5
DA:84,5
DA:86,5
DA:87,5
DA:88,5
DA:89,5
DA:90,5
DA:91,5
DA:93,5
DA:94,5
DA:95,5
DA:96,5
DA:97,5
DA:98,5
DA:100,5
DA:101,5
DA:102,5
DA:103,5
DA:104,5
DA:105,5
DA:106,5
DA:107,5
DA:108,5
DA:109,5
DA:110,5
DA:111,6
DA:113,1
DA:114,1
DA:115,1
DA:117,1
DA:118,0
DA:121,1
DA:122,1
DA:123,0
DA:125,1
DA:128,9
DA:129,9
DA:130,9
DA:131,9
DA:132,9
DA:133,9
DA:134,9
DA:135,9
DA:136,9
DA:137,9
DA:138,9
DA:139,9
DA:140,9
DA:141,9
DA:142,9
DA:143,9
DA:144,9
DA:145,9
DA:146,9
DA:147,9
DA:148,9
DA:149,9
DA:151,2
DA:152,2
DA:153,2
DA:155,2
DA:156,2
DA:157,2
DA:159,3
DA:160,3
DA:161,3
DA:162,2
DA:164,1
DA:165,1
DA:166,1
DA:168,3
DA:170,2
DA:171,2
DA:172,2
DA:174,2
DA:175,2
DA:176,2
DA:178,3
DA:179,3
DA:180,1
DA:181,1
DA:182,1
DA:184,3
DA:186,2
DA:187,2
DA:188,2
DA:192,2
DA:193,2
DA:194,2
DA:195,2
DA:196,2
DA:197,2
DA:198,2
DA:199,2
DA:200,2
DA:201,2
DA:202,2
DA:203,2
DA:204,2
DA:208,2
DA:209,2
DA:210,2
DA:211,2
DA:212,1
DA:213,1
DA:214,1
DA:215,1
DA:216,1
DA:217,2
DA:238,7
DA:239,7
DA:240,7
DA:242,7
DA:243,7
DA:244,7
DA:245,7
DA:246,7
DA:247,7
DA:249,7
DA:250,7
DA:251,7
DA:252,7
DA:253,7
DA:254,7
DA:256,0
DA:258,0
DA:259,0
DA:260,0
DA:261,0
DA:262,0
DA:263,0
DA:264,0
DA:266,30
DA:267,30
DA:268,30
DA:269,30
DA:270,30
DA:271,30
DA:272,30
DA:273,25
DA:274,20
DA:275,15
DA:276,10
DA:277,5
DA:278,0
DA:280,30
DA:282,16
DA:283,16
DA:284,16
DA:285,10
DA:286,5
DA:287,0
DA:289,16
DA:291,0
DA:292,0
DA:293,0
DA:294,0
DA:295,0
DA:296,0
DA:297,0
DA:299,0
DA:300,0
DA:301,0
DA:303,0
DA:304,0
DA:305,0
DA:308,0
DA:309,0
DA:310,0
DA:312,0
DA:313,0
DA:314,0
DA:316,0
DA:317,0
DA:318,0
DA:319,0
DA:320,0
DA:321,0
DA:322,0
DA:323,0
DA:324,0
DA:325,0
DA:328,0
DA:329,0
DA:330,0
DA:332,0
DA:333,0
DA:334,0
DA:336,0
DA:337,0
DA:338,0
DA:339,0
DA:340,0
DA:341,0
DA:342,0
DA:343,0
DA:345,0
DA:346,0
DA:347,0
DA:350,0
DA:351,0
DA:352,0
DA:354,0
DA:355,0
DA:356,0
DA:358,0
DA:359,0
DA:360,0
DA:362,0
DA:363,0
DA:364,0
DA:366,0
DA:367,0
DA:368,0
DA:370,0
DA:371,0
DA:372,0
DA:373,0
DA:374,0
DA:375,0
DA:376,0
DA:377,0
DA:378,0
DA:379,0
DA:380,0
DA:382,0
DA:383,0
DA:384,0
DA:388,6
DA:389,6
DA:390,6
DA:391,6
DA:392,6
DA:393,6
DA:394,6
DA:395,6
DA:396,6
DA:397,6
DA:398,6
DA:399,6
DA:400,6
DA:401,6
DA:402,6
DA:403,6
DA:404,6
DA:407,1
DA:408,1
DA:409,1
DA:410,1
DA:411,1
DA:412,1
DA:413,1
DA:416,1
DA:417,1
DA:418,1
DA:419,1
DA:420,1
DA:421,1
DA:422,1
DA:423,1
DA:424,1
DA:425,1
DA:426,1
DA:428,1
DA:429,1
DA:430,1
DA:433,1
DA:434,1
DA:435,1
DA:436,1
DA:437,1
DA:438,1
DA:439,1
DA:440,1
DA:441,1
DA:442,1
DA:443,1
DA:444,1
DA:445,1
DA:446,1
DA:449,1
DA:450,1
DA:451,1
DA:452,1
DA:453,1
DA:454,1
DA:455,1
DA:456,1
DA:457,1
DA:460,1
DA:461,1
DA:462,1
DA:463,1
DA:464,1
DA:465,1
DA:466,1
DA:467,1
DA:468,1
DA:469,1
DA:470,1
DA:471,1
DA:472,1
DA:473,1
DA:474,1
DA:475,1
DA:476,1
DA:477,1
DA:478,1
DA:479,1
DA:480,1
DA:483,1
DA:484,1
DA:485,1
DA:486,1
DA:488,1
DA:489,1
DA:490,1
DA:493,1
DA:494,1
DA:495,1
DA:496,1
DA:498,1
DA:499,1
DA:500,1
DA:503,1
DA:504,1
DA:505,1
DA:506,1
DA:507,1
DA:508,1
DA:511,1
DA:512,1
DA:515,1
DA:516,1
DA:517,1
DA:520,1
DA:521,1
DA:522,1
DA:523,1
DA:524,1
DA:526,1
DA:527,1
DA:528,1
DA:531,1
DA:532,1
DA:533,1
DA:534,1
DA:535,1
DA:537,1
DA:538,1
DA:539,1
DA:542,1
DA:543,1
DA:544,1
DA:545,1
DA:546,1
DA:548,1
DA:549,1
DA:551,1
DA:552,1
DA:553,1
DA:556,1
DA:557,1
DA:558,1
DA:559,1
DA:560,1
DA:562,1
DA:563,1
DA:564,1
DA:567,1
DA:568,1
DA:569,1
DA:570,1
DA:571,1
DA:572,1
DA:573,1
DA:574,1
DA:575,1
DA:576,1
DA:577,1
DA:578,1
DA:579,1
DA:582,1
DA:583,1
DA:584,1
DA:585,1
DA:586,1
DA:587,1
DA:588,1
DA:589,1
DA:592,1
DA:593,1
DA:594,1
BRF:0
BRH:0
LF:424
LH:331
end_of_record
SF:/Users/smeya/git/darwin-metrics/src/disk/mod.rs
FN:328,_RINvMs0_NtCs6JXvGULNGKJ_14darwin_metrics4diskNtB6_4Disk12get_for_pathpEB8_
FN:579,_RINvMs1_NtCs6JXvGULNGKJ_14darwin_metrics4diskNtB6_11DiskMonitor19get_volume_for_pathpEB8_
FN:340,_RNCINvMs0_NtCs6JXvGULNGKJ_14darwin_metrics4diskNtB8_4Disk12get_for_pathpE0Ba_
FN:613,_RNCINvMs1_NtCs6JXvGULNGKJ_14darwin_metrics4diskNtB8_11DiskMonitor19get_volume_for_pathpE0Ba_
FN:412,_RNvMs0_NtCs6JXvGULNGKJ_14darwin_metrics4diskNtB5_4Disk17available_display
FN:468,_RNvMs1_NtCs6JXvGULNGKJ_14darwin_metrics4diskNtB5_11DiskMonitor11get_volumes
FN:841,_RNvMs1_NtCs6JXvGULNGKJ_14darwin_metrics4diskNtB5_11DiskMonitor16detect_disk_type
FN:28,_RNvXNtCs6JXvGULNGKJ_14darwin_metrics4diskNtB2_8DiskTypeNtNtCs4P3ALgZxGbJ_4core7default7Default7default
FN:876,_RNvXs2_NtCs6JXvGULNGKJ_14darwin_metrics4diskNtB5_11DiskMonitorNtNtCs4P3ALgZxGbJ_4core7default7Default7default
FN:110,_RNvXs_NtCs6JXvGULNGKJ_14darwin_metrics4diskNtB4_9DiskStatsNtNtCs4P3ALgZxGbJ_4core7default7Default7default
FN:441,_RNvMs0_NtCs6JXvGULNGKJ_14darwin_metrics4diskNtB5_4Disk12format_bytes
FN:422,_RNvMs0_NtCs6JXvGULNGKJ_14darwin_metrics4diskNtB5_4Disk12used_display
FN:157,_RNvMs0_NtCs6JXvGULNGKJ_14darwin_metrics4diskNtB5_4Disk12with_details
FN:417,_RNvMs0_NtCs6JXvGULNGKJ_14darwin_metrics4diskNtB5_4Disk13total_display
FN:407,_RNvMs0_NtCs6JXvGULNGKJ_14darwin_metrics4diskNtB5_4Disk14is_nearly_full
FN:399,_RNvMs0_NtCs6JXvGULNGKJ_14darwin_metrics4diskNtB5_4Disk16usage_percentage
FN:134,_RNvMs0_NtCs6JXvGULNGKJ_14darwin_metrics4diskNtB5_4Disk3new
FN:228,_RNvMs0_NtCs6JXvGULNGKJ_14darwin_metrics4diskNtB5_4Disk7get_all
FN:427,_RNvMs0_NtCs6JXvGULNGKJ_14darwin_metrics4diskNtB5_4Disk7summary
FN:180,_RNvMs0_NtCs6JXvGULNGKJ_14darwin_metrics4diskNtB5_4Disk8get_info
FN:661,_RNvMs1_NtCs6JXvGULNGKJ_14darwin_metrics4diskNtB5_11DiskMonitor15get_performance
FN:463,_RNvMs1_NtCs6JXvGULNGKJ_14darwin_metrics4diskNtB5_11DiskMonitor3new
FN:804,_RNvMs1_NtCs6JXvGULNGKJ_14darwin_metrics4diskNtB5_11DiskMonitor6update
FN:959,_RNCNvNtNtCs6JXvGULNGKJ_14darwin_metrics4disk5testss_20test_get_all_volumes0B7_
FN:924,_RNvNtNtCs6JXvGULNGKJ_14darwin_metrics4disk5testss_17test_format_bytes
FN:900,_RNvNtNtCs6JXvGULNGKJ_14darwin_metrics4disk5testss_19test_is_nearly_full
FN:950,_RNvNtNtCs6JXvGULNGKJ_14darwin_metrics4disk5testss_20test_get_all_volumes
FN:969,_RNvNtNtCs6JXvGULNGKJ_14darwin_metrics4disk5testss_21test_disk_performance
FN:934,_RNvNtNtCs6JXvGULNGKJ_14darwin_metrics4disk5testss_23test_get_root_disk_info
FN:886,_RNvNtNtCs6JXvGULNGKJ_14darwin_metrics4disk5testss_26test_disk_usage_percentage
FN:328,_RINvMs0_NtCsaakIWYUxKbY_14darwin_metrics4diskNtB6_4Disk12get_for_pathpEB8_
FN:579,_RINvMs1_NtCsaakIWYUxKbY_14darwin_metrics4diskNtB6_11DiskMonitor19get_volume_for_pathpEB8_
FN:340,_RNCINvMs0_NtCsaakIWYUxKbY_14darwin_metrics4diskNtB8_4Disk12get_for_pathpE0Ba_
FN:613,_RNCINvMs1_NtCsaakIWYUxKbY_14darwin_metrics4diskNtB8_11DiskMonitor19get_volume_for_pathpE0Ba_
FN:441,_RNvMs0_NtCsaakIWYUxKbY_14darwin_metrics4diskNtB5_4Disk12format_bytes
FN:422,_RNvMs0_NtCsaakIWYUxKbY_14darwin_metrics4diskNtB5_4Disk12used_display
FN:157,_RNvMs0_NtCsaakIWYUxKbY_14darwin_metrics4diskNtB5_4Disk12with_details
FN:417,_RNvMs0_NtCsaakIWYUxKbY_14darwin_metrics4diskNtB5_4Disk13total_display
FN:407,_RNvMs0_NtCsaakIWYUxKbY_14darwin_metrics4diskNtB5_4Disk14is_nearly_full
FN:399,_RNvMs0_NtCsaakIWYUxKbY_14darwin_metrics4diskNtB5_4Disk16usage_percentage
FN:412,_RNvMs0_NtCsaakIWYUxKbY_14darwin_metrics4diskNtB5_4Disk17available_display
FN:134,_RNvMs0_NtCsaakIWYUxKbY_14darwin_metrics4diskNtB5_4Disk3new
FN:228,_RNvMs0_NtCsaakIWYUxKbY_14darwin_metrics4diskNtB5_4Disk7get_all
FN:427,_RNvMs0_NtCsaakIWYUxKbY_14darwin_metrics4diskNtB5_4Disk7summary
FN:180,_RNvMs0_NtCsaakIWYUxKbY_14darwin_metrics4diskNtB5_4Disk8get_info
FN:468,_RNvMs1_NtCsaakIWYUxKbY_14darwin_metrics4diskNtB5_11DiskMonitor11get_volumes
FN:661,_RNvMs1_NtCsaakIWYUxKbY_14darwin_metrics4diskNtB5_11DiskMonitor15get_performance
FN:841,_RNvMs1_NtCsaakIWYUxKbY_14darwin_metrics4diskNtB5_11DiskMonitor16detect_disk_type
FN:463,_RNvMs1_NtCsaakIWYUxKbY_14darwin_metrics4diskNtB5_11DiskMonitor3new
FN:804,_RNvMs1_NtCsaakIWYUxKbY_14darwin_metrics4diskNtB5_11DiskMonitor6update
FN:28,_RNvXNtCsaakIWYUxKbY_14darwin_metrics4diskNtB2_8DiskTypeNtNtCs4P3ALgZxGbJ_4core7default7Default7default
FN:876,_RNvXs2_NtCsaakIWYUxKbY_14darwin_metrics4diskNtB5_11DiskMonitorNtNtCs4P3ALgZxGbJ_4core7default7Default7default
FN:110,_RNvXs_NtCsaakIWYUxKbY_14darwin_metrics4diskNtB4_9DiskStatsNtNtCs4P3ALgZxGbJ_4core7default7Default7default
FNDA:0,_RINvMs0_NtCs6JXvGULNGKJ_14darwin_metrics4diskNtB6_4Disk12get_for_pathpEB8_
FNDA:0,_RINvMs1_NtCs6JXvGULNGKJ_14darwin_metrics4diskNtB6_11DiskMonitor19get_volume_for_pathpEB8_
FNDA:0,_RNCINvMs0_NtCs6JXvGULNGKJ_14darwin_metrics4diskNtB8_4Disk12get_for_pathpE0Ba_
FNDA:0,_RNCINvMs1_NtCs6JXvGULNGKJ_14darwin_metrics4diskNtB8_11DiskMonitor19get_volume_for_pathpE0Ba_
FNDA:0,_RNvMs0_NtCs6JXvGULNGKJ_14darwin_metrics4diskNtB5_4Disk17available_display
FNDA:0,_RNvMs1_NtCs6JXvGULNGKJ_14darwin_metrics4diskNtB5_11DiskMonitor11get_volumes
FNDA:0,_RNvMs1_NtCs6JXvGULNGKJ_14darwin_metrics4diskNtB5_11DiskMonitor16detect_disk_type
FNDA:0,_RNvXNtCs6JXvGULNGKJ_14darwin_metrics4diskNtB2_8DiskTypeNtNtCs4P3ALgZxGbJ_4core7default7Default7default
FNDA:0,_RNvXs2_NtCs6JXvGULNGKJ_14darwin_metrics4diskNtB5_11DiskMonitorNtNtCs4P3ALgZxGbJ_4core7default7Default7default
FNDA:0,_RNvXs_NtCs6JXvGULNGKJ_14darwin_metrics4diskNtB4_9DiskStatsNtNtCs4P3ALgZxGbJ_4core7default7Default7default
FNDA:26,_RNvMs0_NtCs6JXvGULNGKJ_14darwin_metrics4diskNtB5_4Disk12format_bytes
FNDA:9,_RNvMs0_NtCs6JXvGULNGKJ_14darwin_metrics4diskNtB5_4Disk12used_display
FNDA:9,_RNvMs0_NtCs6JXvGULNGKJ_14darwin_metrics4diskNtB5_4Disk12with_details
FNDA:9,_RNvMs0_NtCs6JXvGULNGKJ_14darwin_metrics4diskNtB5_4Disk13total_display
FNDA:2,_RNvMs0_NtCs6JXvGULNGKJ_14darwin_metrics4diskNtB5_4Disk14is_nearly_full
FNDA:12,_RNvMs0_NtCs6JXvGULNGKJ_14darwin_metrics4diskNtB5_4Disk16usage_percentage
FNDA:3,_RNvMs0_NtCs6JXvGULNGKJ_14darwin_metrics4diskNtB5_4Disk3new
FNDA:1,_RNvMs0_NtCs6JXvGULNGKJ_14darwin_metrics4diskNtB5_4Disk7get_all
FNDA:9,_RNvMs0_NtCs6JXvGULNGKJ_14darwin_metrics4diskNtB5_4Disk7summary
FNDA:1,_RNvMs0_NtCs6JXvGULNGKJ_14darwin_metrics4diskNtB5_4Disk8get_info
FNDA:1,_RNvMs1_NtCs6JXvGULNGKJ_14darwin_metrics4diskNtB5_11DiskMonitor15get_performance
FNDA:1,_RNvMs1_NtCs6JXvGULNGKJ_14darwin_metrics4diskNtB5_11DiskMonitor3new
FNDA:1,_RNvMs1_NtCs6JXvGULNGKJ_14darwin_metrics4diskNtB5_11DiskMonitor6update
FNDA:1,_RNCNvNtNtCs6JXvGULNGKJ_14darwin_metrics4disk5testss_20test_get_all_volumes0B7_
FNDA:1,_RNvNtNtCs6JXvGULNGKJ_14darwin_metrics4disk5testss_17test_format_bytes
FNDA:1,_RNvNtNtCs6JXvGULNGKJ_14darwin_metrics4disk5testss_19test_is_nearly_full
FNDA:1,_RNvNtNtCs6JXvGULNGKJ_14darwin_metrics4disk5testss_20test_get_all_volumes
FNDA:1,_RNvNtNtCs6JXvGULNGKJ_14darwin_metrics4disk5testss_21test_disk_performance
FNDA:1,_RNvNtNtCs6JXvGULNGKJ_14darwin_metrics4disk5testss_23test_get_root_disk_info
FNDA:1,_RNvNtNtCs6JXvGULNGKJ_14darwin_metrics4disk5testss_26test_disk_usage_percentage
FNDA:0,_RINvMs0_NtCsaakIWYUxKbY_14darwin_metrics4diskNtB6_4Disk12get_for_pathpEB8_
FNDA:0,_RINvMs1_NtCsaakIWYUxKbY_14darwin_metrics4diskNtB6_11DiskMonitor19get_volume_for_pathpEB8_
FNDA:0,_RNCINvMs0_NtCsaakIWYUxKbY_14darwin_metrics4diskNtB8_4Disk12get_for_pathpE0Ba_
FNDA:0,_RNCINvMs1_NtCsaakIWYUxKbY_14darwin_metrics4diskNtB8_11DiskMonitor19get_volume_for_pathpE0Ba_
FNDA:0,_RNvMs0_NtCsaakIWYUxKbY_14darwin_metrics4diskNtB5_4Disk12format_bytes
FNDA:0,_RNvMs0_NtCsaakIWYUxKbY_14darwin_metrics4diskNtB5_4Disk12used_display
FNDA:0,_RNvMs0_NtCsaakIWYUxKbY_14darwin_metrics4diskNtB5_4Disk12with_details
FNDA:0,_RNvMs0_NtCsaakIWYUxKbY_14darwin_metrics4diskNtB5_4Disk13total_display
FNDA:0,_RNvMs0_NtCsaakIWYUxKbY_14darwin_metrics4diskNtB5_4Disk14is_nearly_full
FNDA:0,_RNvMs0_NtCsaakIWYUxKbY_14darwin_metrics4diskNtB5_4Disk16usage_percentage
FNDA:0,_RNvMs0_NtCsaakIWYUxKbY_14darwin_metrics4diskNtB5_4Disk17available_display
FNDA:0,_RNvMs0_NtCsaakIWYUxKbY_14darwin_metrics4diskNtB5_4Disk3new
FNDA:0,_RNvMs0_NtCsaakIWYUxKbY_14darwin_metrics4diskNtB5_4Disk7get_all
FNDA:0,_RNvMs0_NtCsaakIWYUxKbY_14darwin_metrics4diskNtB5_4Disk7summary
FNDA:0,_RNvMs0_NtCsaakIWYUxKbY_14darwin_metrics4diskNtB5_4Disk8get_info
FNDA:0,_RNvMs1_NtCsaakIWYUxKbY_14darwin_metrics4diskNtB5_11DiskMonitor11get_volumes
FNDA:0,_RNvMs1_NtCsaakIWYUxKbY_14darwin_metrics4diskNtB5_11DiskMonitor15get_performance
FNDA:0,_RNvMs1_NtCsaakIWYUxKbY_14darwin_metrics4diskNtB5_11DiskMonitor16detect_disk_type
FNDA:0,_RNvMs1_NtCsaakIWYUxKbY_14darwin_metrics4diskNtB5_11DiskMonitor3new
FNDA:0,_RNvMs1_NtCsaakIWYUxKbY_14darwin_metrics4diskNtB5_11DiskMonitor6update
FNDA:0,_RNvXNtCsaakIWYUxKbY_14darwin_metrics4diskNtB2_8DiskTypeNtNtCs4P3ALgZxGbJ_4core7default7Default7default
FNDA:0,_RNvXs2_NtCsaakIWYUxKbY_14darwin_metrics4diskNtB5_11DiskMonitorNtNtCs4P3ALgZxGbJ_4core7default7Default7default
FNDA:0,_RNvXs_NtCsaakIWYUxKbY_14darwin_metrics4diskNtB4_9DiskStatsNtNtCs4P3ALgZxGbJ_4core7default7Default7default
FNF:30
FNH:20
DA:28,0
DA:29,0
DA:30,0
DA:110,0
DA:111,0
DA:112,0
DA:113,0
DA:114,0
DA:115,0
DA:116,0
DA:117,0
DA:118,0
DA:119,0
DA:120,0
DA:134,3
DA:135,3
DA:136,3
DA:137,3
DA:138,3
DA:139,3
DA:140,3
DA:141,3
DA:142,3
DA:143,3
DA:144,3
DA:145,3
DA:146,3
DA:147,3
DA:148,3
DA:149,3
DA:150,3
DA:151,3
DA:152,3
DA:153,3
DA:157,9
DA:158,9
DA:159,9
DA:160,9
DA:161,9
DA:162,9
DA:163,9
DA:164,9
DA:165,9
DA:166,9
DA:167,9
DA:168,9
DA:169,9
DA:170,9
DA:171,9
DA:172,9
DA:173,9
DA:174,9
DA:175,9
DA:176,9
DA:177,9
DA:180,1
DA:187,1
DA:188,1
DA:189,1
DA:190,1
DA:191,1
DA:192,1
DA:193,0
DA:194,1
DA:195,1
DA:196,1
DA:197,1
DA:198,1
DA:199,1
DA:200,1
DA:201,1
DA:202,1
DA:203,1
DA:204,1
DA:205,1
DA:206,1
DA:207,1
DA:208,1
DA:209,1
DA:210,1
DA:211,1
DA:212,1
DA:213,1
DA:214,1
DA:215,1
DA:216,1
DA:217,1
DA:218,1
DA:219,1
DA:220,1
DA:221,1
DA:222,1
DA:223,1
DA:224,1
DA:225,1
DA:228,1
DA:239,1
DA:240,1
DA:241,1
DA:242,0
DA:243,1
DA:244,1
DA:245,1
DA:246,1
DA:247,1
DA:248,1
DA:249,1
DA:250,1
DA:251,1
DA:252,1
DA:253,1
DA:254,0
DA:255,1
DA:256,1
DA:257,1
DA:258,1
DA:260,10
DA:261,10
DA:262,10
DA:263,10
DA:264,10
DA:265,10
DA:266,10
DA:267,10
DA:268,10
DA:269,10
DA:270,2
DA:271,8
DA:272,8
DA:273,8
DA:274,8
DA:275,8
DA:276,8
DA:277,8
DA:278,8
DA:279,8
DA:280,8
DA:281,8
DA:282,8
DA:283,8
DA:284,8
DA:285,8
DA:286,8
DA:287,8
DA:288,8
DA:289,8
DA:290,8
DA:291,8
DA:292,8
DA:293,8
DA:296,8
DA:297,8
DA:298,8
DA:299,8
DA:301,0
DA:302,8
DA:306,8
DA:308,0
DA:311,8
DA:312,8
DA:313,8
DA:314,8
DA:315,8
DA:316,8
DA:317,8
DA:318,8
DA:319,8
DA:320,8
DA:321,8
DA:324,1
DA:325,1
DA:328,0
DA:339,0
DA:340,0
DA:342,0
DA:343,0
DA:344,0
DA:345,0
DA:346,0
DA:347,0
DA:348,0
DA:349,0
DA:350,0
DA:351,0
DA:352,0
DA:353,0
DA:354,0
DA:355,0
DA:356,0
DA:357,0
DA:358,0
DA:359,0
DA:360,0
DA:361,0
DA:362,0
DA:363,0
DA:364,0
DA:365,0
DA:366,0
DA:367,0
DA:368,0
DA:369,0
DA:370,0
DA:371,0
DA:372,0
DA:373,0
DA:374,0
DA:375,0
DA:376,0
DA:377,0
DA:380,0
DA:381,0
DA:382,0
DA:383,0
DA:385,0
DA:386,0
DA:388,0
DA:390,0
DA:393,0
DA:394,0
DA:395,0
DA:396,0
DA:399,12
DA:400,12
DA:401,0
DA:402,12
DA:403,12
DA:404,12
DA:407,2
DA:408,2
DA:409,2
DA:412,0
DA:413,0
DA:414,0
DA:417,9
DA:418,9
DA:419,9
DA:422,9
DA:423,9
DA:424,9
DA:427,9
DA:428,9
DA:430,9
DA:431,9
DA:432,9
DA:433,9
DA:434,9
DA:435,9
DA:436,9
DA:437,9
DA:438,9
DA:441,26
DA:447,26
DA:448,1
DA:449,25
DA:450,13
DA:451,12
DA:452,7
DA:453,5
DA:454,2
DA:456,3
DA:458,26
DA:463,1
DA:464,1
DA:465,1
DA:468,0
DA:503,0
DA:504,0
DA:505,0
DA:506,0
DA:507,0
DA:508,0
DA:509,0
DA:510,0
DA:511,0
DA:512,0
DA:513,0
DA:514,0
DA:515,0
DA:516,0
DA:517,0
DA:518,0
DA:519,0
DA:520,0
DA:521,0
DA:522,0
DA:524,0
DA:525,0
DA:526,0
DA:527,0
DA:528,0
DA:529,0
DA:530,0
DA:531,0
DA:532,0
DA:533,0
DA:534,0
DA:535,0
DA:536,0
DA:537,0
DA:538,0
DA:539,0
DA:540,0
DA:541,0
DA:542,0
DA:543,0
DA:544,0
DA:545,0
DA:546,0
DA:547,0
DA:548,0
DA:549,0
DA:550,0
DA:551,0
DA:552,0
DA:553,0
DA:554,0
DA:555,0
DA:556,0
DA:557,0
DA:560,0
DA:561,0
DA:562,0
DA:563,0
DA:564,0
DA:565,0
DA:566,0
DA:567,0
DA:568,0
DA:569,0
DA:570,0
DA:571,0
DA:572,0
DA:575,0
DA:576,0
DA:579,0
DA:612,0
DA:613,0
DA:615,0
DA:616,0
DA:617,0
DA:618,0
DA:619,0
DA:620,0
DA:621,0
DA:622,0
DA:623,0
DA:624,0
DA:625,0
DA:626,0
DA:627,0
DA:628,0
DA:629,0
DA:630,0
DA:631,0
DA:632,0
DA:633,0
DA:634,0
DA:635,0
DA:636,0
DA:637,0
DA:638,0
DA:639,0
DA:640,0
DA:641,0
DA:642,0
DA:643,0
DA:644,0
DA:645,0
DA:646,0
DA:647,0
DA:648,0
DA:649,0
DA:650,0
DA:653,0
DA:654,0
DA:655,0
DA:656,0
DA:657,0
DA:658,0
DA:661,1
DA:662,1
DA:663,1
DA:664,1
DA:665,1
DA:666,1
DA:668,0
DA:669,0
DA:670,0
DA:671,0
DA:672,0
DA:673,0
DA:674,0
DA:675,0
DA:676,0
DA:677,0
DA:678,0
DA:679,0
DA:680,0
DA:681,0
DA:682,0
DA:683,0
DA:684,0
DA:685,0
DA:686,0
DA:687,0
DA:688,0
DA:689,0
DA:690,0
DA:691,0
DA:692,0
DA:693,0
DA:694,0
DA:695,0
DA:696,0
DA:697,0
DA:698,1
DA:699,1
DA:700,1
DA:701,1
DA:702,1
DA:703,1
DA:704,1
DA:705,1
DA:706,1
DA:707,1
DA:708,1
DA:709,1
DA:710,1
DA:711,1
DA:712,1
DA:713,1
DA:714,1
DA:715,1
DA:716,1
DA:717,1
DA:718,1
DA:719,1
DA:720,1
DA:721,1
DA:722,1
DA:723,1
DA:724,1
DA:725,1
DA:726,1
DA:727,1
DA:728,1
DA:731,1
DA:732,0
DA:734,1
DA:737,1
DA:738,0
DA:740,1
DA:744,1
DA:745,1
DA:747,1
DA:748,1
DA:750,0
DA:754,1
DA:755,1
DA:756,1
DA:757,1
DA:758,1
DA:759,1
DA:760,1
DA:761,1
DA:762,1
DA:763,1
DA:764,1
DA:765,1
DA:766,1
DA:767,0
DA:768,0
DA:771,1
DA:772,1
DA:773,1
DA:774,1
DA:775,1
DA:776,1
DA:777,1
DA:778,1
DA:779,1
DA:780,1
DA:781,1
DA:782,1
DA:783,1
DA:784,1
DA:785,0
DA:786,0
DA:787,0
DA:788,0
DA:789,0
DA:790,0
DA:791,0
DA:792,0
DA:793,0
DA:794,0
DA:795,0
DA:796,0
DA:797,0
DA:798,1
DA:800,1
DA:801,1
DA:804,1
DA:805,1
DA:806,1
DA:807,1
DA:808,1
DA:809,1
DA:810,1
DA:811,1
DA:812,1
DA:813,1
DA:814,1
DA:815,1
DA:816,1
DA:817,1
DA:818,1
DA:819,1
DA:820,1
DA:821,1
DA:822,1
DA:823,1
DA:824,1
DA:825,1
DA:826,1
DA:827,1
DA:828,1
DA:829,1
DA:830,1
DA:831,1
DA:832,1
DA:833,1
DA:834,1
DA:835,1
DA:836,1
DA:837,1
DA:838,1
DA:841,0
DA:842,0
DA:843,0
DA:844,0
DA:845,0
DA:846,0
DA:847,0
DA:848,0
DA:849,0
DA:851,0
DA:852,0
DA:853,0
DA:854,0
DA:855,0
DA:856,0
DA:857,0
DA:858,0
DA:859,0
DA:860,0
DA:861,0
DA:862,0
DA:863,0
DA:864,0
DA:865,0
DA:866,0
DA:867,0
DA:868,0
DA:869,0
DA:870,0
DA:871,0
DA:872,0
DA:876,0
DA:877,0
DA:878,0
DA:886,1
DA:887,1
DA:888,1
DA:889,1
DA:890,1
DA:891,1
DA:892,1
DA:893,1
DA:894,1
DA:895,1
DA:896,1
DA:897,1
DA:900,1
DA:901,1
DA:902,1
DA:903,1
DA:904,1
DA:905,1
DA:906,1
DA:907,1
DA:908,1
DA:909,1
DA:910,1
DA:911,1
DA:912,1
DA:913,1
DA:914,1
DA:915,1
DA:916,1
DA:917,1
DA:918,1
DA:919,1
DA:920,1
DA:921,1
DA:924,1
DA:925,1
DA:926,1
DA:927,1
DA:928,1
DA:929,1
DA:930,1
DA:931,1
DA:934,1
DA:935,1
DA:936,1
DA:937,1
DA:939,1
DA:940,1
DA:941,1
DA:942,1
DA:943,1
DA:944,1
DA:945,1
DA:946,0
DA:947,1
DA:950,1
DA:951,1
DA:952,1
DA:953,1
DA:955,1
DA:956,1
DA:959,1
DA:960,1
DA:962,9
DA:963,8
DA:964,8
DA:965,0
DA:966,1
DA:969,1
DA:970,1
DA:971,1
DA:972,1
DA:973,1
DA:974,1
DA:975,1
DA:976,1
DA:977,1
DA:978,1
DA:979,1
DA:980,1
DA:981,1
DA:983,1
DA:984,1
DA:986,2
DA:987,1
DA:988,1
DA:989,1
DA:990,1
DA:991,1
DA:992,1
DA:993,1
DA:994,1
DA:995,1
DA:996,1
DA:997,1
DA:998,1
DA:999,1
DA:1000,1
DA:1001,1
DA:1002,1
DA:1003,1
DA:1004,0
DA:1005,1
BRF:0
BRH:0
LF:678
LH:402
end_of_record
SF:/Users/smeya/git/darwin-metrics/src/error.rs
FN:99,_RINvMNtCs6JXvGULNGKJ_14darwin_metrics5errorNtB3_5Error13not_availablepEB5_
FN:94,_RINvMNtCs6JXvGULNGKJ_14darwin_metrics5errorNtB3_5Error15not_implementedpEB5_
FN:104,_RINvMNtCs6JXvGULNGKJ_14darwin_metrics5errorNtB3_5Error17permission_deniedpEB5_
FN:144,_RNvMNtCs6JXvGULNGKJ_14darwin_metrics5errorNtB2_5Error16is_not_available
FN:138,_RNvMNtCs6JXvGULNGKJ_14darwin_metrics5errorNtB2_5Error19is_permission_error
FN:119,_RNvMNtCs6JXvGULNGKJ_14darwin_metrics5errorNtB2_5Error7details
FN:154,_RNvXs_NtCs6JXvGULNGKJ_14darwin_metrics5errorNtB4_5ErrorINtNtCs4P3ALgZxGbJ_4core7convert4FromNtNtNtCsfXerQ7jTsRl_3std2io5error5ErrorE4from
FN:89,_RINvMNtCs6JXvGULNGKJ_14darwin_metrics5errorNtB3_5Error12invalid_dataNtNtCsaxtFaqkp5wQ_5alloc6string6StringEB5_
FN:89,_RINvMNtCs6JXvGULNGKJ_14darwin_metrics5errorNtB3_5Error12invalid_dataReEB5_
FN:114,_RINvMNtCs6JXvGULNGKJ_14darwin_metrics5errorNtB3_5Error13process_errorNtNtCsaxtFaqkp5wQ_5alloc6string6StringEB5_
FN:114,_RINvMNtCs6JXvGULNGKJ_14darwin_metrics5errorNtB3_5Error13process_errorReEB5_
FN:109,_RINvMNtCs6JXvGULNGKJ_14darwin_metrics5errorNtB3_5Error17service_not_foundNtNtCsaxtFaqkp5wQ_5alloc6string6StringEB5_
FN:109,_RINvMNtCs6JXvGULNGKJ_14darwin_metrics5errorNtB3_5Error17service_not_foundReEB5_
FN:79,_RINvMNtCs6JXvGULNGKJ_14darwin_metrics5errorNtB3_5Error6io_kitNtNtCsaxtFaqkp5wQ_5alloc6string6StringEB5_
FN:84,_RINvMNtCs6JXvGULNGKJ_14darwin_metrics5errorNtB3_5Error6systemNtNtCsaxtFaqkp5wQ_5alloc6string6StringEB5_
FN:84,_RINvMNtCs6JXvGULNGKJ_14darwin_metrics5errorNtB3_5Error6systemReEB5_
FN:144,_RNvMNtCsaakIWYUxKbY_14darwin_metrics5errorNtB2_5Error16is_not_available
FN:138,_RNvMNtCsaakIWYUxKbY_14darwin_metrics5errorNtB2_5Error19is_permission_error
FN:119,_RNvMNtCsaakIWYUxKbY_14darwin_metrics5errorNtB2_5Error7details
FN:154,_RNvXs_NtCsaakIWYUxKbY_14darwin_metrics5errorNtB4_5ErrorINtNtCs4P3ALgZxGbJ_4core7convert4FromNtNtNtCsfXerQ7jTsRl_3std2io5error5ErrorE4from
FN:89,_RINvMNtCsaakIWYUxKbY_14darwin_metrics5errorNtB3_5Error12invalid_dataNtNtCsaxtFaqkp5wQ_5alloc6string6StringEB5_
FN:89,_RINvMNtCsaakIWYUxKbY_14darwin_metrics5errorNtB3_5Error12invalid_dataReEB5_
FN:114,_RINvMNtCsaakIWYUxKbY_14darwin_metrics5errorNtB3_5Error13process_errorNtNtCsaxtFaqkp5wQ_5alloc6string6StringEB5_
FN:114,_RINvMNtCsaakIWYUxKbY_14darwin_metrics5errorNtB3_5Error13process_errorReEB5_
FN:109,_RINvMNtCsaakIWYUxKbY_14darwin_metrics5errorNtB3_5Error17service_not_foundNtNtCsaxtFaqkp5wQ_5alloc6string6StringEB5_
FN:109,_RINvMNtCsaakIWYUxKbY_14darwin_metrics5errorNtB3_5Error17service_not_foundReEB5_
FN:79,_RINvMNtCsaakIWYUxKbY_14darwin_metrics5errorNtB3_5Error6io_kitNtNtCsaxtFaqkp5wQ_5alloc6string6StringEB5_
FN:84,_RINvMNtCsaakIWYUxKbY_14darwin_metrics5errorNtB3_5Error6systemNtNtCsaxtFaqkp5wQ_5alloc6string6StringEB5_
FN:84,_RINvMNtCsaakIWYUxKbY_14darwin_metrics5errorNtB3_5Error6systemReEB5_
FN:99,_RINvMNtCsaakIWYUxKbY_14darwin_metrics5errorNtB3_5Error13not_availablepEB5_
FN:94,_RINvMNtCsaakIWYUxKbY_14darwin_metrics5errorNtB3_5Error15not_implementedpEB5_
FN:104,_RINvMNtCsaakIWYUxKbY_14darwin_metrics5errorNtB3_5Error17permission_deniedpEB5_
FNDA:0,_RINvMNtCs6JXvGULNGKJ_14darwin_metrics5errorNtB3_5Error13not_availablepEB5_
FNDA:0,_RINvMNtCs6JXvGULNGKJ_14darwin_metrics5errorNtB3_5Error15not_implementedpEB5_
FNDA:0,_RINvMNtCs6JXvGULNGKJ_14darwin_metrics5errorNtB3_5Error17permission_deniedpEB5_
FNDA:0,_RNvMNtCs6JXvGULNGKJ_14darwin_metrics5errorNtB2_5Error16is_not_available
FNDA:0,_RNvMNtCs6JXvGULNGKJ_14darwin_metrics5errorNtB2_5Error19is_permission_error
FNDA:0,_RNvMNtCs6JXvGULNGKJ_14darwin_metrics5errorNtB2_5Error7details
FNDA:0,_RNvXs_NtCs6JXvGULNGKJ_14darwin_metrics5errorNtB4_5ErrorINtNtCs4P3ALgZxGbJ_4core7convert4FromNtNtNtCsfXerQ7jTsRl_3std2io5error5ErrorE4from
FNDA:0,_RINvMNtCs6JXvGULNGKJ_14darwin_metrics5errorNtB3_5Error12invalid_dataNtNtCsaxtFaqkp5wQ_5alloc6string6StringEB5_
FNDA:4,_RINvMNtCs6JXvGULNGKJ_14darwin_metrics5errorNtB3_5Error12invalid_dataReEB5_
FNDA:1044,_RINvMNtCs6JXvGULNGKJ_14darwin_metrics5errorNtB3_5Error13process_errorNtNtCsaxtFaqkp5wQ_5alloc6string6StringEB5_
FNDA:0,_RINvMNtCs6JXvGULNGKJ_14darwin_metrics5errorNtB3_5Error13process_errorReEB5_
FNDA:0,_RINvMNtCs6JXvGULNGKJ_14darwin_metrics5errorNtB3_5Error17service_not_foundNtNtCsaxtFaqkp5wQ_5alloc6string6StringEB5_
FNDA:1,_RINvMNtCs6JXvGULNGKJ_14darwin_metrics5errorNtB3_5Error17service_not_foundReEB5_
FNDA:4,_RINvMNtCs6JXvGULNGKJ_14darwin_metrics5errorNtB3_5Error6io_kitNtNtCsaxtFaqkp5wQ_5alloc6string6StringEB5_
FNDA:2,_RINvMNtCs6JXvGULNGKJ_14darwin_metrics5errorNtB3_5Error6systemNtNtCsaxtFaqkp5wQ_5alloc6string6StringEB5_
FNDA:3,_RINvMNtCs6JXvGULNGKJ_14darwin_metrics5errorNtB3_5Error6systemReEB5_
FNDA:0,_RNvMNtCsaakIWYUxKbY_14darwin_metrics5errorNtB2_5Error16is_not_available
FNDA:0,_RNvMNtCsaakIWYUxKbY_14darwin_metrics5errorNtB2_5Error19is_permission_error
FNDA:0,_RNvMNtCsaakIWYUxKbY_14darwin_metrics5errorNtB2_5Error7details
FNDA:0,_RNvXs_NtCsaakIWYUxKbY_14darwin_metrics5errorNtB4_5ErrorINtNtCs4P3ALgZxGbJ_4core7convert4FromNtNtNtCsfXerQ7jTsRl_3std2io5error5ErrorE4from
FNDA:0,_RINvMNtCsaakIWYUxKbY_14darwin_metrics5errorNtB3_5Error12invalid_dataNtNtCsaxtFaqkp5wQ_5alloc6string6StringEB5_
FNDA:0,_RINvMNtCsaakIWYUxKbY_14darwin_metrics5errorNtB3_5Error12invalid_dataReEB5_
FNDA:0,_RINvMNtCsaakIWYUxKbY_14darwin_metrics5errorNtB3_5Error13process_errorNtNtCsaxtFaqkp5wQ_5alloc6string6StringEB5_
FNDA:0,_RINvMNtCsaakIWYUxKbY_14darwin_metrics5errorNtB3_5Error13process_errorReEB5_
FNDA:0,_RINvMNtCsaakIWYUxKbY_14darwin_metrics5errorNtB3_5Error17service_not_foundNtNtCsaxtFaqkp5wQ_5alloc6string6StringEB5_
FNDA:0,_RINvMNtCsaakIWYUxKbY_14darwin_metrics5errorNtB3_5Error17service_not_foundReEB5_
FNDA:0,_RINvMNtCsaakIWYUxKbY_14darwin_metrics5errorNtB3_5Error6io_kitNtNtCsaxtFaqkp5wQ_5alloc6string6StringEB5_
FNDA:0,_RINvMNtCsaakIWYUxKbY_14darwin_metrics5errorNtB3_5Error6systemNtNtCsaxtFaqkp5wQ_5alloc6string6StringEB5_
FNDA:0,_RINvMNtCsaakIWYUxKbY_14darwin_metrics5errorNtB3_5Error6systemReEB5_
FNDA:0,_RINvMNtCsaakIWYUxKbY_14darwin_metrics5errorNtB3_5Error13not_availablepEB5_
FNDA:0,_RINvMNtCsaakIWYUxKbY_14darwin_metrics5errorNtB3_5Error15not_implementedpEB5_
FNDA:0,_RINvMNtCsaakIWYUxKbY_14darwin_metrics5errorNtB3_5Error17permission_deniedpEB5_
FNF:12
FNH:5
DA:79,4
DA:80,4
DA:81,4
DA:84,5
DA:85,5
DA:86,5
DA:89,4
DA:90,4
DA:91,4
DA:94,0
DA:95,0
DA:96,0
DA:99,0
DA:100,0
DA:101,0
DA:104,0
DA:105,0
DA:106,0
DA:109,1
DA:110,1
DA:111,1
DA:114,1044
DA:115,1044
DA:116,1044
DA:119,0
DA:120,0
DA:121,0
DA:122,0
DA:123,0
DA:125,0
DA:126,0
DA:127,0
DA:128,0
DA:129,0
DA:130,0
DA:131,0
DA:132,0
DA:133,0
DA:135,0
DA:138,0
DA:139,0
DA:140,0
DA:141,0
DA:144,0
DA:145,0
DA:146,0
DA:154,0
DA:155,0
DA:156,0
DA:157,0
DA:158,0
DA:159,0
BRF:0
BRH:0
LF:52
LH:15
end_of_record
SF:/Users/smeya/git/darwin-metrics/src/hardware/cpu/cpu_impl.rs
FN:156,_RNvMNtNtNtCs6JXvGULNGKJ_14darwin_metrics8hardware3cpu8cpu_implNtB2_3CPU16fetch_core_usage
FN:192,_RNvMNtNtNtCs6JXvGULNGKJ_14darwin_metrics8hardware3cpu8cpu_implNtB2_3CPU21fetch_cpu_temperature
FN:73,_RNvMNtNtNtCs6JXvGULNGKJ_14darwin_metrics8hardware3cpu8cpu_implNtB2_3CPU3new
FN:102,_RNvMNtNtNtCs6JXvGULNGKJ_14darwin_metrics8hardware3cpu8cpu_implNtB2_3CPU6update
FN:295,_RNCNvMNtNtNtCs6JXvGULNGKJ_14darwin_metrics8hardware3cpu8cpu_implNtB4_3CPU17max_frequency_mhz0Ba_
FN:286,_RNCNvMNtNtNtCs6JXvGULNGKJ_14darwin_metrics8hardware3cpu8cpu_implNtB4_3CPU17min_frequency_mhz0Ba_
FN:305,_RNCNvMNtNtNtCs6JXvGULNGKJ_14darwin_metrics8hardware3cpu8cpu_implNtB4_3CPU21available_frequencies0Ba_
FN:242,_RNvMNtNtNtCs6JXvGULNGKJ_14darwin_metrics8hardware3cpu8cpu_implNtB2_3CPU10core_usage
FN:254,_RNvMNtNtNtCs6JXvGULNGKJ_14darwin_metrics8hardware3cpu8cpu_implNtB2_3CPU10model_name
FN:263,_RNvMNtNtNtCs6JXvGULNGKJ_14darwin_metrics8hardware3cpu8cpu_implNtB2_3CPU11temperature
FN:230,_RNvMNtNtNtCs6JXvGULNGKJ_14darwin_metrics8hardware3cpu8cpu_implNtB2_3CPU13frequency_mhz
FN:218,_RNvMNtNtNtCs6JXvGULNGKJ_14darwin_metrics8hardware3cpu8cpu_implNtB2_3CPU13logical_cores
FN:205,_RNvMNtNtNtCs6JXvGULNGKJ_14darwin_metrics8hardware3cpu8cpu_implNtB2_3CPU14physical_cores
FN:276,_RNvMNtNtNtCs6JXvGULNGKJ_14darwin_metrics8hardware3cpu8cpu_implNtB2_3CPU17frequency_metrics
FN:294,_RNvMNtNtNtCs6JXvGULNGKJ_14darwin_metrics8hardware3cpu8cpu_implNtB2_3CPU17max_frequency_mhz
FN:285,_RNvMNtNtNtCs6JXvGULNGKJ_14darwin_metrics8hardware3cpu8cpu_implNtB2_3CPU17min_frequency_mhz
FN:304,_RNvMNtNtNtCs6JXvGULNGKJ_14darwin_metrics8hardware3cpu8cpu_implNtB2_3CPU21available_frequencies
FN:354,_RNvMNtNtNtNtCs6JXvGULNGKJ_14darwin_metrics8hardware3cpu8cpu_impl5testsNtB4_3CPU13new_with_mock
FN:325,_RNvXs_NtNtNtCs6JXvGULNGKJ_14darwin_metrics8hardware3cpu8cpu_implNtB4_3CPUNtB6_10CpuMetrics13get_cpu_usage
FN:343,_RNvXs_NtNtNtCs6JXvGULNGKJ_14darwin_metrics8hardware3cpu8cpu_implNtB4_3CPUNtB6_10CpuMetrics17get_cpu_frequency
FN:334,_RNvXs_NtNtNtCs6JXvGULNGKJ_14darwin_metrics8hardware3cpu8cpu_implNtB4_3CPUNtB6_10CpuMetrics19get_cpu_temperature
FN:394,_RNvNtNtNtNtCs6JXvGULNGKJ_14darwin_metrics8hardware3cpu8cpu_impl5testss_14test_cpu_usage
FN:407,_RNvNtNtNtNtCs6JXvGULNGKJ_14darwin_metrics8hardware3cpu8cpu_impl5testss_22test_cpu_metrics_trait
FN:419,_RNvNtNtNtNtCs6JXvGULNGKJ_14darwin_metrics8hardware3cpu8cpu_impl5testss_22test_frequency_metrics
FN:382,_RNvNtNtNtNtCs6JXvGULNGKJ_14darwin_metrics8hardware3cpu8cpu_impl5testss_23test_cpu_initialization
FN:295,_RNCNvMNtNtNtCsaakIWYUxKbY_14darwin_metrics8hardware3cpu8cpu_implNtB4_3CPU17max_frequency_mhz0Ba_
FN:286,_RNCNvMNtNtNtCsaakIWYUxKbY_14darwin_metrics8hardware3cpu8cpu_implNtB4_3CPU17min_frequency_mhz0Ba_
FN:305,_RNCNvMNtNtNtCsaakIWYUxKbY_14darwin_metrics8hardware3cpu8cpu_implNtB4_3CPU21available_frequencies0Ba_
FN:242,_RNvMNtNtNtCsaakIWYUxKbY_14darwin_metrics8hardware3cpu8cpu_implNtB2_3CPU10core_usage
FN:254,_RNvMNtNtNtCsaakIWYUxKbY_14darwin_metrics8hardware3cpu8cpu_implNtB2_3CPU10model_name
FN:263,_RNvMNtNtNtCsaakIWYUxKbY_14darwin_metrics8hardware3cpu8cpu_implNtB2_3CPU11temperature
FN:230,_RNvMNtNtNtCsaakIWYUxKbY_14darwin_metrics8hardware3cpu8cpu_implNtB2_3CPU13frequency_mhz
FN:218,_RNvMNtNtNtCsaakIWYUxKbY_14darwin_metrics8hardware3cpu8cpu_implNtB2_3CPU13logical_cores
FN:205,_RNvMNtNtNtCsaakIWYUxKbY_14darwin_metrics8hardware3cpu8cpu_implNtB2_3CPU14physical_cores
FN:156,_RNvMNtNtNtCsaakIWYUxKbY_14darwin_metrics8hardware3cpu8cpu_implNtB2_3CPU16fetch_core_usage
FN:276,_RNvMNtNtNtCsaakIWYUxKbY_14darwin_metrics8hardware3cpu8cpu_implNtB2_3CPU17frequency_metrics
FN:294,_RNvMNtNtNtCsaakIWYUxKbY_14darwin_metrics8hardware3cpu8cpu_implNtB2_3CPU17max_frequency_mhz
FN:285,_RNvMNtNtNtCsaakIWYUxKbY_14darwin_metrics8hardware3cpu8cpu_implNtB2_3CPU17min_frequency_mhz
FN:304,_RNvMNtNtNtCsaakIWYUxKbY_14darwin_metrics8hardware3cpu8cpu_implNtB2_3CPU21available_frequencies
FN:192,_RNvMNtNtNtCsaakIWYUxKbY_14darwin_metrics8hardware3cpu8cpu_implNtB2_3CPU21fetch_cpu_temperature
FN:73,_RNvMNtNtNtCsaakIWYUxKbY_14darwin_metrics8hardware3cpu8cpu_implNtB2_3CPU3new
FN:102,_RNvMNtNtNtCsaakIWYUxKbY_14darwin_metrics8hardware3cpu8cpu_implNtB2_3CPU6update
FN:325,_RNvXs_NtNtNtCsaakIWYUxKbY_14darwin_metrics8hardware3cpu8cpu_implNtB4_3CPUNtB6_10CpuMetrics13get_cpu_usage
FN:343,_RNvXs_NtNtNtCsaakIWYUxKbY_14darwin_metrics8hardware3cpu8cpu_implNtB4_3CPUNtB6_10CpuMetrics17get_cpu_frequency
FN:334,_RNvXs_NtNtNtCsaakIWYUxKbY_14darwin_metrics8hardware3cpu8cpu_implNtB4_3CPUNtB6_10CpuMetrics19get_cpu_temperature
FNDA:0,_RNvMNtNtNtCs6JXvGULNGKJ_14darwin_metrics8hardware3cpu8cpu_implNtB2_3CPU16fetch_core_usage
FNDA:0,_RNvMNtNtNtCs6JXvGULNGKJ_14darwin_metrics8hardware3cpu8cpu_implNtB2_3CPU21fetch_cpu_temperature
FNDA:0,_RNvMNtNtNtCs6JXvGULNGKJ_14darwin_metrics8hardware3cpu8cpu_implNtB2_3CPU3new
FNDA:0,_RNvMNtNtNtCs6JXvGULNGKJ_14darwin_metrics8hardware3cpu8cpu_implNtB2_3CPU6update
FNDA:1,_RNCNvMNtNtNtCs6JXvGULNGKJ_14darwin_metrics8hardware3cpu8cpu_implNtB4_3CPU17max_frequency_mhz0Ba_
FNDA:1,_RNCNvMNtNtNtCs6JXvGULNGKJ_14darwin_metrics8hardware3cpu8cpu_implNtB4_3CPU17min_frequency_mhz0Ba_
FNDA:1,_RNCNvMNtNtNtCs6JXvGULNGKJ_14darwin_metrics8hardware3cpu8cpu_implNtB4_3CPU21available_frequencies0Ba_
FNDA:2,_RNvMNtNtNtCs6JXvGULNGKJ_14darwin_metrics8hardware3cpu8cpu_implNtB2_3CPU10core_usage
FNDA:1,_RNvMNtNtNtCs6JXvGULNGKJ_14darwin_metrics8hardware3cpu8cpu_implNtB2_3CPU10model_name
FNDA:1,_RNvMNtNtNtCs6JXvGULNGKJ_14darwin_metrics8hardware3cpu8cpu_implNtB2_3CPU11temperature
FNDA:2,_RNvMNtNtNtCs6JXvGULNGKJ_14darwin_metrics8hardware3cpu8cpu_implNtB2_3CPU13frequency_mhz
FNDA:1,_RNvMNtNtNtCs6JXvGULNGKJ_14darwin_metrics8hardware3cpu8cpu_implNtB2_3CPU13logical_cores
FNDA:1,_RNvMNtNtNtCs6JXvGULNGKJ_14darwin_metrics8hardware3cpu8cpu_implNtB2_3CPU14physical_cores
FNDA:1,_RNvMNtNtNtCs6JXvGULNGKJ_14darwin_metrics8hardware3cpu8cpu_implNtB2_3CPU17frequency_metrics
FNDA:1,_RNvMNtNtNtCs6JXvGULNGKJ_14darwin_metrics8hardware3cpu8cpu_implNtB2_3CPU17max_frequency_mhz
FNDA:1,_RNvMNtNtNtCs6JXvGULNGKJ_14darwin_metrics8hardware3cpu8cpu_implNtB2_3CPU17min_frequency_mhz
FNDA:1,_RNvMNtNtNtCs6JXvGULNGKJ_14darwin_metrics8hardware3cpu8cpu_implNtB2_3CPU21available_frequencies
FNDA:4,_RNvMNtNtNtNtCs6JXvGULNGKJ_14darwin_metrics8hardware3cpu8cpu_impl5testsNtB4_3CPU13new_with_mock
FNDA:3,_RNvXs_NtNtNtCs6JXvGULNGKJ_14darwin_metrics8hardware3cpu8cpu_implNtB4_3CPUNtB6_10CpuMetrics13get_cpu_usage
FNDA:1,_RNvXs_NtNtNtCs6JXvGULNGKJ_14darwin_metrics8hardware3cpu8cpu_implNtB4_3CPUNtB6_10CpuMetrics17get_cpu_frequency
FNDA:1,_RNvXs_NtNtNtCs6JXvGULNGKJ_14darwin_metrics8hardware3cpu8cpu_implNtB4_3CPUNtB6_10CpuMetrics19get_cpu_temperature
FNDA:1,_RNvNtNtNtNtCs6JXvGULNGKJ_14darwin_metrics8hardware3cpu8cpu_impl5testss_14test_cpu_usage
FNDA:1,_RNvNtNtNtNtCs6JXvGULNGKJ_14darwin_metrics8hardware3cpu8cpu_impl5testss_22test_cpu_metrics_trait
FNDA:1,_RNvNtNtNtNtCs6JXvGULNGKJ_14darwin_metrics8hardware3cpu8cpu_impl5testss_22test_frequency_metrics
FNDA:1,_RNvNtNtNtNtCs6JXvGULNGKJ_14darwin_metrics8hardware3cpu8cpu_impl5testss_23test_cpu_initialization
FNDA:0,_RNCNvMNtNtNtCsaakIWYUxKbY_14darwin_metrics8hardware3cpu8cpu_implNtB4_3CPU17max_frequency_mhz0Ba_
FNDA:0,_RNCNvMNtNtNtCsaakIWYUxKbY_14darwin_metrics8hardware3cpu8cpu_implNtB4_3CPU17min_frequency_mhz0Ba_
FNDA:0,_RNCNvMNtNtNtCsaakIWYUxKbY_14darwin_metrics8hardware3cpu8cpu_implNtB4_3CPU21available_frequencies0Ba_
FNDA:0,_RNvMNtNtNtCsaakIWYUxKbY_14darwin_metrics8hardware3cpu8cpu_implNtB2_3CPU10core_usage
FNDA:0,_RNvMNtNtNtCsaakIWYUxKbY_14darwin_metrics8hardware3cpu8cpu_implNtB2_3CPU10model_name
FNDA:0,_RNvMNtNtNtCsaakIWYUxKbY_14darwin_metrics8hardware3cpu8cpu_implNtB2_3CPU11temperature
FNDA:0,_RNvMNtNtNtCsaakIWYUxKbY_14darwin_metrics8hardware3cpu8cpu_implNtB2_3CPU13frequency_mhz
FNDA:0,_RNvMNtNtNtCsaakIWYUxKbY_14darwin_metrics8hardware3cpu8cpu_implNtB2_3CPU13logical_cores
FNDA:0,_RNvMNtNtNtCsaakIWYUxKbY_14darwin_metrics8hardware3cpu8cpu_implNtB2_3CPU14physical_cores
FNDA:0,_RNvMNtNtNtCsaakIWYUxKbY_14darwin_metrics8hardware3cpu8cpu_implNtB2_3CPU16fetch_core_usage
FNDA:0,_RNvMNtNtNtCsaakIWYUxKbY_14darwin_metrics8hardware3cpu8cpu_implNtB2_3CPU17frequency_metrics
FNDA:0,_RNvMNtNtNtCsaakIWYUxKbY_14darwin_metrics8hardware3cpu8cpu_implNtB2_3CPU17max_frequency_mhz
FNDA:0,_RNvMNtNtNtCsaakIWYUxKbY_14darwin_metrics8hardware3cpu8cpu_implNtB2_3CPU17min_frequency_mhz
FNDA:0,_RNvMNtNtNtCsaakIWYUxKbY_14darwin_metrics8hardware3cpu8cpu_implNtB2_3CPU21available_frequencies
FNDA:0,_RNvMNtNtNtCsaakIWYUxKbY_14darwin_metrics8hardware3cpu8cpu_implNtB2_3CPU21fetch_cpu_temperature
FNDA:0,_RNvMNtNtNtCsaakIWYUxKbY_14darwin_metrics8hardware3cpu8cpu_implNtB2_3CPU3new
FNDA:0,_RNvMNtNtNtCsaakIWYUxKbY_14darwin_metrics8hardware3cpu8cpu_implNtB2_3CPU6update
FNDA:0,_RNvXs_NtNtNtCsaakIWYUxKbY_14darwin_metrics8hardware3cpu8cpu_implNtB4_3CPUNtB6_10CpuMetrics13get_cpu_usage
FNDA:0,_RNvXs_NtNtNtCsaakIWYUxKbY_14darwin_metrics8hardware3cpu8cpu_implNtB4_3CPUNtB6_10CpuMetrics17get_cpu_frequency
FNDA:0,_RNvXs_NtNtNtCsaakIWYUxKbY_14darwin_metrics8hardware3cpu8cpu_implNtB4_3CPUNtB6_10CpuMetrics19get_cpu_temperature
FNF:25
FNH:21
DA:73,0
DA:74,0
DA:75,0
DA:76,0
DA:77,0
DA:78,0
DA:79,0
DA:80,0
DA:81,0
DA:82,0
DA:83,0
DA:84,0
DA:85,0
DA:86,0
DA:87,0
DA:102,0
DA:103,0
DA:108,0
DA:109,0
DA:110,0
DA:111,0
DA:112,0
DA:113,0
DA:114,0
DA:115,0
DA:116,0
DA:117,0
DA:118,0
DA:119,0
DA:120,0
DA:121,0
DA:122,0
DA:123,0
DA:126,0
DA:131,0
DA:132,0
DA:133,0
DA:134,0
DA:135,0
DA:136,0
DA:137,0
DA:138,0
DA:156,0
DA:157,0
DA:158,0
DA:159,0
DA:160,0
DA:161,0
DA:162,0
DA:163,0
DA:164,0
DA:165,0
DA:166,0
DA:167,0
DA:168,0
DA:169,0
DA:170,0
DA:171,0
DA:172,0
DA:173,0
DA:174,0
DA:175,0
DA:176,0
DA:177,0
DA:178,0
DA:180,0
DA:181,0
DA:192,0
DA:193,0
DA:194,0
DA:205,1
DA:206,1
DA:207,1
DA:218,1
DA:219,1
DA:220,1
DA:230,2
DA:231,2
DA:232,2
DA:242,2
DA:243,2
DA:244,2
DA:254,1
DA:255,1
DA:256,1
DA:263,1
DA:264,1
DA:265,1
DA:276,1
DA:277,1
DA:278,1
DA:285,1
DA:286,1
DA:287,1
DA:294,1
DA:295,1
DA:296,1
DA:304,1
DA:305,1
DA:306,1
DA:325,3
DA:326,3
DA:327,3
DA:334,1
DA:335,1
DA:336,1
DA:343,1
DA:344,1
DA:345,1
DA:354,4
DA:355,4
DA:356,4
DA:357,4
DA:358,4
DA:359,4
DA:360,4
DA:361,4
DA:362,4
DA:363,4
DA:364,4
DA:365,4
DA:366,4
DA:367,4
DA:368,4
DA:369,4
DA:370,4
DA:371,4
DA:372,4
DA:373,4
DA:374,4
DA:375,4
DA:376,4
DA:377,4
DA:378,4
DA:382,1
DA:383,1
DA:384,1
DA:385,1
DA:386,1
DA:387,1
DA:388,1
DA:389,1
DA:390,1
DA:391,1
DA:394,1
DA:395,1
DA:396,1
DA:397,1
DA:398,1
DA:402,1
DA:403,1
DA:404,1
DA:407,1
DA:408,1
DA:409,1
DA:410,1
DA:411,1
DA:412,1
DA:415,1
DA:416,1
DA:419,1
DA:420,1
DA:421,1
DA:422,1
DA:423,1
DA:424,1
DA:425,1
DA:428,1
DA:429,1
DA:430,1
DA:431,1
DA:434,1
DA:435,1
DA:436,1
DA:437,1
DA:438,1
DA:439,1
BRF:0
BRH:0
LF:180
LH:110
end_of_record
SF:/Users/smeya/git/darwin-metrics/src/hardware/cpu/frequency.rs
FN:89,_RNvMs_NtNtNtCs6JXvGULNGKJ_14darwin_metrics8hardware3cpu9frequencyNtB4_16FrequencyMonitor3new
FN:187,_RNvNtNtNtCs6JXvGULNGKJ_14darwin_metrics8hardware3cpu9frequency22fetch_sysctl_frequency
FN:160,_RNCNvNtNtNtCs6JXvGULNGKJ_14darwin_metrics8hardware3cpu9frequency30fetch_sysctl_frequency_by_name0B9_
FN:106,_RNvMs_NtNtNtCs6JXvGULNGKJ_14darwin_metrics8hardware3cpu9frequencyNtB4_16FrequencyMonitor11get_metrics
FN:129,_RNvNtNtNtCs6JXvGULNGKJ_14darwin_metrics8hardware3cpu9frequency17retrieve_cpu_info
FN:119,_RNvNtNtNtCs6JXvGULNGKJ_14darwin_metrics8hardware3cpu9frequency21fetch_cpu_frequencies
FN:156,_RNvNtNtNtCs6JXvGULNGKJ_14darwin_metrics8hardware3cpu9frequency30fetch_sysctl_frequency_by_name
FN:78,_RNvXNtNtNtCs6JXvGULNGKJ_14darwin_metrics8hardware3cpu9frequencyNtB2_16FrequencyMonitorNtNtCs4P3ALgZxGbJ_4core7default7Default7default
FN:210,_RNvNtNtNtNtCs6JXvGULNGKJ_14darwin_metrics8hardware3cpu9frequency5testss_22test_frequency_metrics
FN:225,_RNvNtNtNtNtCs6JXvGULNGKJ_14darwin_metrics8hardware3cpu9frequency5testss_26test_frequency_monitor_new
FN:234,_RNvNtNtNtNtCs6JXvGULNGKJ_14darwin_metrics8hardware3cpu9frequency5testss_27test_fetch_sysctl_frequency
FN:187,_RNvNtNtNtCsaakIWYUxKbY_14darwin_metrics8hardware3cpu9frequency22fetch_sysctl_frequency
FN:160,_RNCNvNtNtNtCsaakIWYUxKbY_14darwin_metrics8hardware3cpu9frequency30fetch_sysctl_frequency_by_name0B9_
FN:106,_RNvMs_NtNtNtCsaakIWYUxKbY_14darwin_metrics8hardware3cpu9frequencyNtB4_16FrequencyMonitor11get_metrics
FN:89,_RNvMs_NtNtNtCsaakIWYUxKbY_14darwin_metrics8hardware3cpu9frequencyNtB4_16FrequencyMonitor3new
FN:129,_RNvNtNtNtCsaakIWYUxKbY_14darwin_metrics8hardware3cpu9frequency17retrieve_cpu_info
FN:119,_RNvNtNtNtCsaakIWYUxKbY_14darwin_metrics8hardware3cpu9frequency21fetch_cpu_frequencies
FN:156,_RNvNtNtNtCsaakIWYUxKbY_14darwin_metrics8hardware3cpu9frequency30fetch_sysctl_frequency_by_name
FN:78,_RNvXNtNtNtCsaakIWYUxKbY_14darwin_metrics8hardware3cpu9frequencyNtB2_16FrequencyMonitorNtNtCs4P3ALgZxGbJ_4core7default7Default7default
FNDA:5,_RNvMs_NtNtNtCs6JXvGULNGKJ_14darwin_metrics8hardware3cpu9frequencyNtB4_16FrequencyMonitor3new
FNDA:1,_RNvNtNtNtCs6JXvGULNGKJ_14darwin_metrics8hardware3cpu9frequency22fetch_sysctl_frequency
FNDA:0,_RNCNvNtNtNtCs6JXvGULNGKJ_14darwin_metrics8hardware3cpu9frequency30fetch_sysctl_frequency_by_name0B9_
FNDA:0,_RNvMs_NtNtNtCs6JXvGULNGKJ_14darwin_metrics8hardware3cpu9frequencyNtB4_16FrequencyMonitor11get_metrics
FNDA:0,_RNvNtNtNtCs6JXvGULNGKJ_14darwin_metrics8hardware3cpu9frequency17retrieve_cpu_info
FNDA:0,_RNvNtNtNtCs6JXvGULNGKJ_14darwin_metrics8hardware3cpu9frequency21fetch_cpu_frequencies
FNDA:0,_RNvNtNtNtCs6JXvGULNGKJ_14darwin_metrics8hardware3cpu9frequency30fetch_sysctl_frequency_by_name
FNDA:0,_RNvXNtNtNtCs6JXvGULNGKJ_14darwin_metrics8hardware3cpu9frequencyNtB2_16FrequencyMonitorNtNtCs4P3ALgZxGbJ_4core7default7Default7default
FNDA:1,_RNvNtNtNtNtCs6JXvGULNGKJ_14darwin_metrics8hardware3cpu9frequency5testss_22test_frequency_metrics
FNDA:1,_RNvNtNtNtNtCs6JXvGULNGKJ_14darwin_metrics8hardware3cpu9frequency5testss_26test_frequency_monitor_new
FNDA:1,_RNvNtNtNtNtCs6JXvGULNGKJ_14darwin_metrics8hardware3cpu9frequency5testss_27test_fetch_sysctl_frequency
FNDA:0,_RNvNtNtNtCsaakIWYUxKbY_14darwin_metrics8hardware3cpu9frequency22fetch_sysctl_frequency
FNDA:0,_RNCNvNtNtNtCsaakIWYUxKbY_14darwin_metrics8hardware3cpu9frequency30fetch_sysctl_frequency_by_name0B9_
FNDA:0,_RNvMs_NtNtNtCsaakIWYUxKbY_14darwin_metrics8hardware3cpu9frequencyNtB4_16FrequencyMonitor11get_metrics
FNDA:0,_RNvMs_NtNtNtCsaakIWYUxKbY_14darwin_metrics8hardware3cpu9frequencyNtB4_16FrequencyMonitor3new
FNDA:0,_RNvNtNtNtCsaakIWYUxKbY_14darwin_metrics8hardware3cpu9frequency17retrieve_cpu_info
FNDA:0,_RNvNtNtNtCsaakIWYUxKbY_14darwin_metrics8hardware3cpu9frequency21fetch_cpu_frequencies
FNDA:0,_RNvNtNtNtCsaakIWYUxKbY_14darwin_metrics8hardware3cpu9frequency30fetch_sysctl_frequency_by_name
FNDA:0,_RNvXNtNtNtCsaakIWYUxKbY_14darwin_metrics8hardware3cpu9frequencyNtB2_16FrequencyMonitorNtNtCs4P3ALgZxGbJ_4core7default7Default7default
FNF:11
FNH:5
DA:78,0
DA:79,0
DA:80,0
DA:89,5
DA:90,5
DA:91,5
DA:106,0
DA:107,0
DA:108,0
DA:119,0
DA:120,0
DA:121,0
DA:122,0
DA:123,0
DA:124,0
DA:125,0
DA:126,0
DA:127,0
DA:129,0
DA:135,0
DA:136,0
DA:137,0
DA:141,0
DA:142,0
DA:143,0
DA:144,0
DA:145,0
DA:146,0
DA:147,0
DA:148,0
DA:149,0
DA:150,0
DA:151,0
DA:153,0
DA:154,0
DA:156,0
DA:160,0
DA:161,0
DA:162,0
DA:164,0
DA:165,0
DA:166,0
DA:167,0
DA:168,0
DA:169,0
DA:170,0
DA:171,0
DA:172,0
DA:173,0
DA:174,0
DA:175,0
DA:176,0
DA:177,0
DA:178,0
DA:179,0
DA:180,0
DA:181,0
DA:182,0
DA:183,0
DA:187,1
DA:188,1
DA:189,1
DA:190,1
DA:191,1
DA:192,1
DA:193,1
DA:194,1
DA:195,1
DA:196,1
DA:197,1
DA:198,1
DA:199,1
DA:200,0
DA:201,0
DA:202,0
DA:203,1
DA:210,1
DA:211,1
DA:212,1
DA:213,1
DA:214,1
DA:215,1
DA:216,1
DA:217,1
DA:218,1
DA:219,1
DA:220,1
DA:221,1
DA:222,1
DA:225,1
DA:226,1
DA:227,1
DA:228,1
DA:229,1
DA:234,1
DA:235,1
DA:236,1
DA:237,1
DA:238,1
DA:239,1
DA:240,1
DA:242,1
DA:243,1
DA:244,0
DA:246,1
BRF:0
BRH:0
LF:107
LH:45
end_of_record
SF:/Users/smeya/git/darwin-metrics/src/hardware/gpu/mod.rs
FN:189,_RNvMNtNtCs6JXvGULNGKJ_14darwin_metrics8hardware3gpuNtB2_3Gpu16detect_intel_gpu
FN:513,_RNCNvMNtNtCs6JXvGULNGKJ_14darwin_metrics8hardware3gpuNtB4_3Gpu15get_temperature0B8_
FN:59,_RNCNvMNtNtCs6JXvGULNGKJ_14darwin_metrics8hardware3gpuNtB4_3Gpu3new0B8_
FN:73,_RNCNvMNtNtCs6JXvGULNGKJ_14darwin_metrics8hardware3gpuNtB4_3Gpu4name0B8_
FN:267,_RNCNvMNtNtCs6JXvGULNGKJ_14darwin_metrics8hardware3gpuNtB4_3Gpu7metrics0B8_
FN:748,_RNvMNtNtCs6JXvGULNGKJ_14darwin_metrics8hardware3gpuNtB2_3Gpu13get_cpu_cores
FN:240,_RNvMNtNtCs6JXvGULNGKJ_14darwin_metrics8hardware3gpuNtB2_3Gpu13get_cpu_model
FN:496,_RNvMNtNtCs6JXvGULNGKJ_14darwin_metrics8hardware3gpuNtB2_3Gpu15get_temperature
FN:442,_RNvMNtNtCs6JXvGULNGKJ_14darwin_metrics8hardware3gpuNtB2_3Gpu16get_memory_stats
FN:312,_RNvMNtNtCs6JXvGULNGKJ_14darwin_metrics8hardware3gpuNtB2_3Gpu19get_characteristics
FN:385,_RNvMNtNtCs6JXvGULNGKJ_14darwin_metrics8hardware3gpuNtB2_3Gpu20estimate_memory_info
FN:618,_RNvMNtNtCs6JXvGULNGKJ_14darwin_metrics8hardware3gpuNtB2_3Gpu20estimate_utilization
FN:719,_RNvMNtNtCs6JXvGULNGKJ_14darwin_metrics8hardware3gpuNtB2_3Gpu23get_cpu_usage_component
FN:115,_RNvMNtNtCs6JXvGULNGKJ_14darwin_metrics8hardware3gpuNtB2_3Gpu25detect_apple_silicon_chip
FN:651,_RNvMNtNtCs6JXvGULNGKJ_14darwin_metrics8hardware3gpuNtB2_3Gpu25get_system_load_component
FN:667,_RNvMNtNtCs6JXvGULNGKJ_14darwin_metrics8hardware3gpuNtB2_3Gpu30get_process_activity_component
FN:57,_RNvMNtNtCs6JXvGULNGKJ_14darwin_metrics8hardware3gpuNtB2_3Gpu3new
FN:71,_RNvMNtNtCs6JXvGULNGKJ_14darwin_metrics8hardware3gpuNtB2_3Gpu4name
FN:266,_RNvMNtNtCs6JXvGULNGKJ_14darwin_metrics8hardware3gpuNtB2_3Gpu7metrics
FN:840,_RNvNtNtNtCs6JXvGULNGKJ_14darwin_metrics8hardware3gpu5testss_12test_metrics
FN:805,_RNvNtNtNtCs6JXvGULNGKJ_14darwin_metrics8hardware3gpu5testss_13test_gpu_name
FN:819,_RNvNtNtNtCs6JXvGULNGKJ_14darwin_metrics8hardware3gpu5testss_16test_memory_info
FN:936,_RNvNtNtNtCs6JXvGULNGKJ_14darwin_metrics8hardware3gpu5testss_18test_cpu_detection
FN:798,_RNvNtNtNtCs6JXvGULNGKJ_14darwin_metrics8hardware3gpu5testss_23test_gpu_initialization
FN:859,_RNvNtNtNtCs6JXvGULNGKJ_14darwin_metrics8hardware3gpu5testss_24test_gpu_characteristics
FN:913,_RNvNtNtNtCs6JXvGULNGKJ_14darwin_metrics8hardware3gpu5testss_28test_apple_silicon_detection
FN:974,_RNvNtNtNtCs6JXvGULNGKJ_14darwin_metrics8hardware3gpu5testss_28test_metrics_characteristics
FN:779,_RNCNvXs_NtNtCs6JXvGULNGKJ_14darwin_metrics8hardware3gpuNtB6_3GpuNtNtNtCs4P3ALgZxGbJ_4core3ops4drop4Drop4drop0Ba_
FN:776,_RNvXs_NtNtCs6JXvGULNGKJ_14darwin_metrics8hardware3gpuNtB4_3GpuNtNtNtCs4P3ALgZxGbJ_4core3ops4drop4Drop4drop
FN:240,_RNvMNtNtCsaakIWYUxKbY_14darwin_metrics8hardware3gpuNtB2_3Gpu13get_cpu_model
FN:189,_RNvMNtNtCsaakIWYUxKbY_14darwin_metrics8hardware3gpuNtB2_3Gpu16detect_intel_gpu
FN:513,_RNCNvMNtNtCsaakIWYUxKbY_14darwin_metrics8hardware3gpuNtB4_3Gpu15get_temperature0B8_
FN:59,_RNCNvMNtNtCsaakIWYUxKbY_14darwin_metrics8hardware3gpuNtB4_3Gpu3new0B8_
FN:73,_RNCNvMNtNtCsaakIWYUxKbY_14darwin_metrics8hardware3gpuNtB4_3Gpu4name0B8_
FN:267,_RNCNvMNtNtCsaakIWYUxKbY_14darwin_metrics8hardware3gpuNtB4_3Gpu7metrics0B8_
FN:748,_RNvMNtNtCsaakIWYUxKbY_14darwin_metrics8hardware3gpuNtB2_3Gpu13get_cpu_cores
FN:496,_RNvMNtNtCsaakIWYUxKbY_14darwin_metrics8hardware3gpuNtB2_3Gpu15get_temperature
FN:442,_RNvMNtNtCsaakIWYUxKbY_14darwin_metrics8hardware3gpuNtB2_3Gpu16get_memory_stats
FN:312,_RNvMNtNtCsaakIWYUxKbY_14darwin_metrics8hardware3gpuNtB2_3Gpu19get_characteristics
FN:385,_RNvMNtNtCsaakIWYUxKbY_14darwin_metrics8hardware3gpuNtB2_3Gpu20estimate_memory_info
FN:618,_RNvMNtNtCsaakIWYUxKbY_14darwin_metrics8hardware3gpuNtB2_3Gpu20estimate_utilization
FN:719,_RNvMNtNtCsaakIWYUxKbY_14darwin_metrics8hardware3gpuNtB2_3Gpu23get_cpu_usage_component
FN:115,_RNvMNtNtCsaakIWYUxKbY_14darwin_metrics8hardware3gpuNtB2_3Gpu25detect_apple_silicon_chip
FN:651,_RNvMNtNtCsaakIWYUxKbY_14darwin_metrics8hardware3gpuNtB2_3Gpu25get_system_load_component
FN:667,_RNvMNtNtCsaakIWYUxKbY_14darwin_metrics8hardware3gpuNtB2_3Gpu30get_process_activity_component
FN:57,_RNvMNtNtCsaakIWYUxKbY_14darwin_metrics8hardware3gpuNtB2_3Gpu3new
FN:71,_RNvMNtNtCsaakIWYUxKbY_14darwin_metrics8hardware3gpuNtB2_3Gpu4name
FN:266,_RNvMNtNtCsaakIWYUxKbY_14darwin_metrics8hardware3gpuNtB2_3Gpu7metrics
FN:779,_RNCNvXs_NtNtCsaakIWYUxKbY_14darwin_metrics8hardware3gpuNtB6_3GpuNtNtNtCs4P3ALgZxGbJ_4core3ops4drop4Drop4drop0Ba_
FN:776,_RNvXs_NtNtCsaakIWYUxKbY_14darwin_metrics8hardware3gpuNtB4_3GpuNtNtNtCs4P3ALgZxGbJ_4core3ops4drop4Drop4drop
FNDA:0,_RNvMNtNtCs6JXvGULNGKJ_14darwin_metrics8hardware3gpuNtB2_3Gpu16detect_intel_gpu
FNDA:0,_RNCNvMNtNtCs6JXvGULNGKJ_14darwin_metrics8hardware3gpuNtB4_3Gpu15get_temperature0B8_
FNDA:8,_RNCNvMNtNtCs6JXvGULNGKJ_14darwin_metrics8hardware3gpuNtB4_3Gpu3new0B8_
FNDA:3,_RNCNvMNtNtCs6JXvGULNGKJ_14darwin_metrics8hardware3gpuNtB4_3Gpu4name0B8_
FNDA:2,_RNCNvMNtNtCs6JXvGULNGKJ_14darwin_metrics8hardware3gpuNtB4_3Gpu7metrics0B8_
FNDA:5,_RNvMNtNtCs6JXvGULNGKJ_14darwin_metrics8hardware3gpuNtB2_3Gpu13get_cpu_cores
FNDA:1,_RNvMNtNtCs6JXvGULNGKJ_14darwin_metrics8hardware3gpuNtB2_3Gpu13get_cpu_model
FNDA:2,_RNvMNtNtCs6JXvGULNGKJ_14darwin_metrics8hardware3gpuNtB2_3Gpu15get_temperature
FNDA:3,_RNvMNtNtCs6JXvGULNGKJ_14darwin_metrics8hardware3gpuNtB2_3Gpu16get_memory_stats
FNDA:6,_RNvMNtNtCs6JXvGULNGKJ_14darwin_metrics8hardware3gpuNtB2_3Gpu19get_characteristics
FNDA:3,_RNvMNtNtCs6JXvGULNGKJ_14darwin_metrics8hardware3gpuNtB2_3Gpu20estimate_memory_info
FNDA:5,_RNvMNtNtCs6JXvGULNGKJ_14darwin_metrics8hardware3gpuNtB2_3Gpu20estimate_utilization
FNDA:5,_RNvMNtNtCs6JXvGULNGKJ_14darwin_metrics8hardware3gpuNtB2_3Gpu23get_cpu_usage_component
FNDA:9,_RNvMNtNtCs6JXvGULNGKJ_14darwin_metrics8hardware3gpuNtB2_3Gpu25detect_apple_silicon_chip
FNDA:5,_RNvMNtNtCs6JXvGULNGKJ_14darwin_metrics8hardware3gpuNtB2_3Gpu25get_system_load_component
FNDA:5,_RNvMNtNtCs6JXvGULNGKJ_14darwin_metrics8hardware3gpuNtB2_3Gpu30get_process_activity_component
FNDA:8,_RNvMNtNtCs6JXvGULNGKJ_14darwin_metrics8hardware3gpuNtB2_3Gpu3new
FNDA:3,_RNvMNtNtCs6JXvGULNGKJ_14darwin_metrics8hardware3gpuNtB2_3Gpu4name
FNDA:2,_RNvMNtNtCs6JXvGULNGKJ_14darwin_metrics8hardware3gpuNtB2_3Gpu7metrics
FNDA:1,_RNvNtNtNtCs6JXvGULNGKJ_14darwin_metrics8hardware3gpu5testss_12test_metrics
FNDA:1,_RNvNtNtNtCs6JXvGULNGKJ_14darwin_metrics8hardware3gpu5testss_13test_gpu_name
FNDA:1,_RNvNtNtNtCs6JXvGULNGKJ_14darwin_metrics8hardware3gpu5testss_16test_memory_info
FNDA:1,_RNvNtNtNtCs6JXvGULNGKJ_14darwin_metrics8hardware3gpu5testss_18test_cpu_detection
FNDA:1,_RNvNtNtNtCs6JXvGULNGKJ_14darwin_metrics8hardware3gpu5testss_23test_gpu_initialization
FNDA:1,_RNvNtNtNtCs6JXvGULNGKJ_14darwin_metrics8hardware3gpu5testss_24test_gpu_characteristics
FNDA:1,_RNvNtNtNtCs6JXvGULNGKJ_14darwin_metrics8hardware3gpu5testss_28test_apple_silicon_detection
FNDA:1,_RNvNtNtNtCs6JXvGULNGKJ_14darwin_metrics8hardware3gpu5testss_28test_metrics_characteristics
FNDA:8,_RNCNvXs_NtNtCs6JXvGULNGKJ_14darwin_metrics8hardware3gpuNtB6_3GpuNtNtNtCs4P3ALgZxGbJ_4core3ops4drop4Drop4drop0Ba_
FNDA:8,_RNvXs_NtNtCs6JXvGULNGKJ_14darwin_metrics8hardware3gpuNtB4_3GpuNtNtNtCs4P3ALgZxGbJ_4core3ops4drop4Drop4drop
FNDA:0,_RNvMNtNtCsaakIWYUxKbY_14darwin_metrics8hardware3gpuNtB2_3Gpu13get_cpu_model
FNDA:0,_RNvMNtNtCsaakIWYUxKbY_14darwin_metrics8hardware3gpuNtB2_3Gpu16detect_intel_gpu
FNDA:0,_RNCNvMNtNtCsaakIWYUxKbY_14darwin_metrics8hardware3gpuNtB4_3Gpu15get_temperature0B8_
FNDA:0,_RNCNvMNtNtCsaakIWYUxKbY_14darwin_metrics8hardware3gpuNtB4_3Gpu3new0B8_
FNDA:0,_RNCNvMNtNtCsaakIWYUxKbY_14darwin_metrics8hardware3gpuNtB4_3Gpu4name0B8_
FNDA:0,_RNCNvMNtNtCsaakIWYUxKbY_14darwin_metrics8hardware3gpuNtB4_3Gpu7metrics0B8_
FNDA:0,_RNvMNtNtCsaakIWYUxKbY_14darwin_metrics8hardware3gpuNtB2_3Gpu13get_cpu_cores
FNDA:0,_RNvMNtNtCsaakIWYUxKbY_14darwin_metrics8hardware3gpuNtB2_3Gpu15get_temperature
FNDA:0,_RNvMNtNtCsaakIWYUxKbY_14darwin_metrics8hardware3gpuNtB2_3Gpu16get_memory_stats
FNDA:0,_RNvMNtNtCsaakIWYUxKbY_14darwin_metrics8hardware3gpuNtB2_3Gpu19get_characteristics
FNDA:0,_RNvMNtNtCsaakIWYUxKbY_14darwin_metrics8hardware3gpuNtB2_3Gpu20estimate_memory_info
FNDA:0,_RNvMNtNtCsaakIWYUxKbY_14darwin_metrics8hardware3gpuNtB2_3Gpu20estimate_utilization
FNDA:0,_RNvMNtNtCsaakIWYUxKbY_14darwin_metrics8hardware3gpuNtB2_3Gpu23get_cpu_usage_component
FNDA:0,_RNvMNtNtCsaakIWYUxKbY_14darwin_metrics8hardware3gpuNtB2_3Gpu25detect_apple_silicon_chip
FNDA:0,_RNvMNtNtCsaakIWYUxKbY_14darwin_metrics8hardware3gpuNtB2_3Gpu25get_system_load_component
FNDA:0,_RNvMNtNtCsaakIWYUxKbY_14darwin_metrics8hardware3gpuNtB2_3Gpu30get_process_activity_component
FNDA:0,_RNvMNtNtCsaakIWYUxKbY_14darwin_metrics8hardware3gpuNtB2_3Gpu3new
FNDA:0,_RNvMNtNtCsaakIWYUxKbY_14darwin_metrics8hardware3gpuNtB2_3Gpu4name
FNDA:0,_RNvMNtNtCsaakIWYUxKbY_14darwin_metrics8hardware3gpuNtB2_3Gpu7metrics
FNDA:0,_RNCNvXs_NtNtCsaakIWYUxKbY_14darwin_metrics8hardware3gpuNtB6_3GpuNtNtNtCs4P3ALgZxGbJ_4core3ops4drop4Drop4drop0Ba_
FNDA:0,_RNvXs_NtNtCsaakIWYUxKbY_14darwin_metrics8hardware3gpuNtB4_3GpuNtNtNtCs4P3ALgZxGbJ_4core3ops4drop4Drop4drop
FNF:29
FNH:27
DA:57,8
DA:58,8
DA:59,8
DA:60,8
DA:61,8
DA:62,0
DA:64,8
DA:66,8
DA:67,8
DA:68,8
DA:69,8
DA:71,3
DA:72,3
DA:73,3
DA:75,3
DA:77,3
DA:78,3
DA:79,3
DA:80,3
DA:81,3
DA:82,3
DA:83,3
DA:84,3
DA:85,3
DA:86,3
DA:87,3
DA:88,0
DA:89,0
DA:90,0
DA:92,0
DA:95,0
DA:97,0
DA:98,0
DA:99,0
DA:100,0
DA:101,0
DA:102,0
DA:103,0
DA:106,0
DA:107,0
DA:108,0
DA:109,0
DA:110,0
DA:111,3
DA:112,3
DA:115,9
DA:116,9
DA:117,9
DA:118,9
DA:119,9
DA:120,9
DA:122,9
DA:123,9
DA:124,9
DA:125,9
DA:126,9
DA:127,9
DA:128,9
DA:129,9
DA:130,9
DA:131,0
DA:132,9
DA:133,9
DA:134,9
DA:135,9
DA:136,9
DA:137,9
DA:138,9
DA:139,9
DA:140,9
DA:141,9
DA:142,9
DA:143,9
DA:144,9
DA:145,9
DA:146,9
DA:147,0
DA:148,0
DA:149,0
DA:150,0
DA:152,0
DA:156,9
DA:157,9
DA:158,0
DA:159,9
DA:160,0
DA:161,9
DA:162,0
DA:164,9
DA:168,0
DA:169,0
DA:170,0
DA:172,0
DA:173,0
DA:174,0
DA:175,0
DA:176,0
DA:177,0
DA:179,0
DA:181,0
DA:182,0
DA:183,0
DA:184,0
DA:186,9
DA:189,0
DA:198,0
DA:199,0
DA:200,0
DA:201,0
DA:202,0
DA:203,0
DA:204,0
DA:205,0
DA:206,0
DA:207,0
DA:208,0
DA:209,0
DA:210,0
DA:211,0
DA:212,0
DA:213,0
DA:214,0
DA:215,0
DA:216,0
DA:217,0
DA:225,0
DA:226,0
DA:227,0
DA:228,0
DA:229,0
DA:231,0
DA:233,0
DA:234,0
DA:235,0
DA:237,0
DA:240,1
DA:241,1
DA:242,1
DA:243,1
DA:244,1
DA:246,1
DA:247,1
DA:248,1
DA:249,1
DA:250,1
DA:251,1
DA:252,1
DA:253,1
DA:254,1
DA:255,0
DA:256,1
DA:257,1
DA:258,1
DA:259,1
DA:260,1
DA:261,1
DA:262,1
DA:264,1
DA:266,2
DA:267,2
DA:269,2
DA:270,2
DA:271,2
DA:272,0
DA:275,2
DA:276,2
DA:280,2
DA:281,2
DA:282,2
DA:283,2
DA:284,2
DA:287,2
DA:288,2
DA:292,2
DA:294,2
DA:295,0
DA:297,0
DA:300,0
DA:302,2
DA:303,0
DA:304,0
DA:305,0
DA:307,2
DA:308,2
DA:309,2
DA:312,6
DA:313,6
DA:314,6
DA:315,6
DA:316,6
DA:317,6
DA:318,6
DA:319,6
DA:320,6
DA:323,6
DA:326,6
DA:329,6
DA:330,0
DA:331,0
DA:332,6
DA:333,0
DA:334,0
DA:335,6
DA:336,0
DA:337,0
DA:338,6
DA:339,0
DA:340,0
DA:341,6
DA:342,0
DA:343,0
DA:344,6
DA:345,0
DA:346,0
DA:347,6
DA:348,6
DA:349,6
DA:350,6
DA:351,0
DA:352,0
DA:353,0
DA:354,0
DA:355,0
DA:356,0
DA:357,0
DA:358,0
DA:359,0
DA:360,0
DA:361,0
DA:362,0
DA:363,0
DA:366,0
DA:368,0
DA:369,0
DA:370,0
DA:371,0
DA:374,0
DA:375,0
DA:376,0
DA:377,0
DA:378,0
DA:381,6
DA:382,6
DA:385,3
DA:387,3
DA:390,3
DA:394,3
DA:397,3
DA:398,3
DA:399,3
DA:400,0
DA:403,3
DA:404,0
DA:407,0
DA:411,0
DA:420,3
DA:423,3
DA:424,3
DA:425,3
DA:426,3
DA:427,3
DA:428,3
DA:429,3
DA:430,3
DA:431,3
DA:432,3
DA:433,3
DA:434,3
DA:435,3
DA:436,3
DA:437,3
DA:438,3
DA:439,3
DA:442,3
DA:443,3
DA:444,3
DA:445,3
DA:446,3
DA:447,3
DA:448,3
DA:449,3
DA:450,3
DA:451,3
DA:452,3
DA:453,3
DA:454,3
DA:455,3
DA:456,3
DA:457,3
DA:458,3
DA:459,3
DA:460,0
DA:461,0
DA:462,3
DA:468,3
DA:469,3
DA:470,3
DA:471,3
DA:472,3
DA:473,3
DA:474,3
DA:475,3
DA:476,3
DA:477,3
DA:478,3
DA:479,3
DA:480,3
DA:483,3
DA:486,0
DA:488,3
DA:491,3
DA:492,3
DA:493,3
DA:496,2
DA:512,2
DA:513,2
DA:514,2
DA:515,2
DA:516,0
DA:517,2
DA:518,2
DA:519,2
DA:520,2
DA:521,0
DA:522,2
DA:523,2
DA:524,2
DA:525,2
DA:526,2
DA:527,2
DA:528,2
DA:529,2
DA:530,2
DA:531,0
DA:532,0
DA:533,0
DA:534,0
DA:535,0
DA:536,0
DA:537,0
DA:538,0
DA:539,0
DA:540,0
DA:541,0
DA:542,0
DA:543,0
DA:544,0
DA:545,0
DA:546,0
DA:547,0
DA:548,0
DA:549,0
DA:550,0
DA:551,0
DA:552,0
DA:553,0
DA:554,0
DA:555,0
DA:556,0
DA:557,0
DA:558,0
DA:559,0
DA:560,0
DA:561,0
DA:562,0
DA:563,0
DA:564,0
DA:565,0
DA:566,0
DA:567,0
DA:568,0
DA:569,0
DA:570,0
DA:571,0
DA:572,0
DA:573,0
DA:574,0
DA:575,0
DA:576,0
DA:577,0
DA:578,0
DA:579,0
DA:580,0
DA:581,0
DA:582,0
DA:583,0
DA:584,0
DA:585,0
DA:586,0
DA:587,0
DA:588,0
DA:589,0
DA:590,0
DA:591,0
DA:592,0
DA:593,0
DA:594,0
DA:595,0
DA:596,0
DA:597,0
DA:598,0
DA:599,0
DA:600,0
DA:601,0
DA:602,0
DA:603,0
DA:604,0
DA:607,0
DA:608,0
DA:609,0
DA:611,0
DA:615,2
DA:618,5
DA:619,5
DA:620,5
DA:621,5
DA:622,5
DA:623,5
DA:624,5
DA:625,5
DA:626,5
DA:627,5
DA:628,5
DA:629,5
DA:630,5
DA:631,5
DA:632,5
DA:633,5
DA:634,5
DA:635,5
DA:636,5
DA:640,5
DA:641,5
DA:642,5
DA:643,5
DA:644,5
DA:645,5
DA:646,5
DA:647,5
DA:648,5
DA:651,5
DA:655,5
DA:656,5
DA:657,0
DA:658,5
DA:659,5
DA:660,5
DA:661,5
DA:662,5
DA:664,5
DA:667,5
DA:670,5
DA:672,5
DA:676,25000
DA:677,24995
DA:678,24995
DA:679,24995
DA:680,24995
DA:681,24995
DA:682,24995
DA:683,24995
DA:684,24995
DA:685,24995
DA:686,24995
DA:687,0
DA:688,24995
DA:691,24995
DA:692,0
DA:693,24995
DA:697,5
DA:698,5
DA:699,5
DA:700,5
DA:701,5
DA:703,0
DA:709,5
DA:713,5
DA:715,5
DA:716,5
DA:719,5
DA:720,5
DA:721,5
DA:722,5
DA:723,5
DA:724,5
DA:725,5
DA:726,5
DA:727,5
DA:728,5
DA:729,5
DA:730,0
DA:731,5
DA:732,5
DA:733,5
DA:734,5
DA:735,5
DA:736,5
DA:737,5
DA:738,5
DA:739,5
DA:740,5
DA:741,5
DA:742,5
DA:743,5
DA:745,5
DA:748,5
DA:749,5
DA:750,5
DA:751,5
DA:752,5
DA:753,5
DA:754,5
DA:755,5
DA:756,5
DA:757,5
DA:758,5
DA:759,5
DA:760,5
DA:761,5
DA:762,5
DA:763,5
DA:764,5
DA:766,0
DA:768,5
DA:771,5
DA:776,8
DA:777,8
DA:778,8
DA:779,8
DA:780,8
DA:781,8
DA:782,8
DA:783,8
DA:784,8
DA:785,8
DA:786,0
DA:787,8
DA:798,1
DA:799,1
DA:800,1
DA:801,1
DA:802,1
DA:805,1
DA:806,1
DA:807,1
DA:808,1
DA:809,1
DA:810,1
DA:811,1
DA:812,1
DA:815,1
DA:816,1
DA:819,1
DA:820,1
DA:821,1
DA:822,1
DA:823,1
DA:824,1
DA:825,1
DA:826,1
DA:827,1
DA:828,1
DA:829,1
DA:830,1
DA:831,1
DA:832,0
DA:836,1
DA:837,1
DA:840,1
DA:841,1
DA:842,1
DA:843,1
DA:844,1
DA:845,1
DA:846,1
DA:847,1
DA:848,1
DA:849,1
DA:850,1
DA:851,0
DA:855,1
DA:856,1
DA:859,1
DA:860,1
DA:861,1
DA:862,1
DA:863,1
DA:864,1
DA:865,1
DA:866,1
DA:867,0
DA:869,1
DA:870,1
DA:871,0
DA:873,0
DA:879,1
DA:881,1
DA:882,1
DA:883,1
DA:884,0
DA:887,0
DA:888,0
DA:891,1
DA:892,1
DA:893,1
DA:894,0
DA:897,0
DA:900,1
DA:901,1
DA:902,1
DA:903,0
DA:906,0
DA:909,1
DA:910,1
DA:913,1
DA:914,1
DA:915,1
DA:916,1
DA:918,1
DA:919,1
DA:920,0
DA:923,1
DA:924,1
DA:925,1
DA:926,1
DA:927,0
DA:928,0
DA:931,0
DA:932,0
DA:933,1
DA:936,1
DA:937,1
DA:938,1
DA:939,1
DA:940,1
DA:941,1
DA:944,1
DA:946,1
DA:947,1
DA:949,1
DA:951,1
DA:952,1
DA:953,0
DA:954,0
DA:955,0
DA:956,0
DA:961,0
DA:962,0
DA:963,0
DA:967,0
DA:970,1
DA:971,1
DA:974,1
DA:975,1
DA:976,1
DA:977,1
DA:978,1
DA:979,1
DA:980,1
DA:981,1
DA:982,0
DA:984,0
DA:987,1
DA:990,1
DA:991,1
DA:992,0
DA:995,0
DA:998,1
DA:999,1
DA:1000,1
DA:1001,0
DA:1004,0
DA:1005,1
BRF:0
BRH:0
LF:682
LH:441
end_of_record
SF:/Users/smeya/git/darwin-metrics/src/hardware/iokit/mock.rs
FN:38,_RNvXNtNtNtCs6JXvGULNGKJ_14darwin_metrics8hardware5iokit4mockNtB2_9MockIOKitNtNtCs4P3ALgZxGbJ_4core7default7Default7default
FN:150,_RNvMs_NtNtNtCs6JXvGULNGKJ_14darwin_metrics8hardware5iokit4mockNtB4_9MockIOKit19expect_get_all_fans
FN:144,_RNvMs_NtNtNtCs6JXvGULNGKJ_14darwin_metrics8hardware5iokit4mockNtB4_9MockIOKit19expect_get_fan_info
FN:192,_RNvMs_NtNtNtCs6JXvGULNGKJ_14darwin_metrics8hardware5iokit4mockNtB4_9MockIOKit19expect_read_smc_key
FN:174,_RNvMs_NtNtNtCs6JXvGULNGKJ_14darwin_metrics8hardware5iokit4mockNtB4_9MockIOKit20expect_get_cpu_power
FN:138,_RNvMs_NtNtNtCs6JXvGULNGKJ_14darwin_metrics8hardware5iokit4mockNtB4_9MockIOKit20expect_get_fan_count
FN:132,_RNvMs_NtNtNtCs6JXvGULNGKJ_14darwin_metrics8hardware5iokit4mockNtB4_9MockIOKit20expect_get_fan_speed
FN:126,_RNvMs_NtNtNtCs6JXvGULNGKJ_14darwin_metrics8hardware5iokit4mockNtB4_9MockIOKit20expect_get_gpu_stats
FN:186,_RNvMs_NtNtNtCs6JXvGULNGKJ_14darwin_metrics8hardware5iokit4mockNtB4_9MockIOKit23expect_get_thermal_info
FN:108,_RNvMs_NtNtNtCs6JXvGULNGKJ_14darwin_metrics8hardware5iokit4mockNtB4_9MockIOKit24expect_get_bool_property
FN:114,_RNvMs_NtNtNtCs6JXvGULNGKJ_14darwin_metrics8hardware5iokit4mockNtB4_9MockIOKit26expect_get_cpu_temperature
FN:120,_RNvMs_NtNtNtCs6JXvGULNGKJ_14darwin_metrics8hardware5iokit4mockNtB4_9MockIOKit26expect_get_gpu_temperature
FN:102,_RNvMs_NtNtNtCs6JXvGULNGKJ_14darwin_metrics8hardware5iokit4mockNtB4_9MockIOKit26expect_get_number_property
FN:96,_RNvMs_NtNtNtCs6JXvGULNGKJ_14darwin_metrics8hardware5iokit4mockNtB4_9MockIOKit26expect_get_string_property
FN:162,_RNvMs_NtNtNtCs6JXvGULNGKJ_14darwin_metrics8hardware5iokit4mockNtB4_9MockIOKit30expect_get_ambient_temperature
FN:168,_RNvMs_NtNtNtCs6JXvGULNGKJ_14darwin_metrics8hardware5iokit4mockNtB4_9MockIOKit30expect_get_battery_temperature
FN:180,_RNvMs_NtNtNtCs6JXvGULNGKJ_14darwin_metrics8hardware5iokit4mockNtB4_9MockIOKit31expect_check_thermal_throttling
FN:156,_RNvMs_NtNtNtCs6JXvGULNGKJ_14darwin_metrics8hardware5iokit4mockNtB4_9MockIOKit31expect_get_heatsink_temperature
FN:45,_RNvMs_NtNtNtCs6JXvGULNGKJ_14darwin_metrics8hardware5iokit4mockNtB4_9MockIOKit3new
FN:265,_RNvXs2_NtNtNtCs6JXvGULNGKJ_14darwin_metrics8hardware5iokit4mockNtB5_9MockIOKitNtB7_5IOKit11get_service
FN:337,_RNvXs2_NtNtNtCs6JXvGULNGKJ_14darwin_metrics8hardware5iokit4mockNtB5_9MockIOKitNtB7_5IOKit12get_all_fans
FN:322,_RNvXs2_NtNtNtCs6JXvGULNGKJ_14darwin_metrics8hardware5iokit4mockNtB5_9MockIOKitNtB7_5IOKit12get_fan_info
FN:415,_RNvXs2_NtNtNtCs6JXvGULNGKJ_14darwin_metrics8hardware5iokit4mockNtB5_9MockIOKitNtB7_5IOKit12read_smc_key
FN:383,_RNvXs2_NtNtNtCs6JXvGULNGKJ_14darwin_metrics8hardware5iokit4mockNtB5_9MockIOKitNtB7_5IOKit13get_cpu_power
FN:314,_RNvXs2_NtNtNtCs6JXvGULNGKJ_14darwin_metrics8hardware5iokit4mockNtB5_9MockIOKitNtB7_5IOKit13get_fan_count
FN:306,_RNvXs2_NtNtNtCs6JXvGULNGKJ_14darwin_metrics8hardware5iokit4mockNtB5_9MockIOKitNtB7_5IOKit13get_fan_speed
FN:290,_RNvXs2_NtNtNtCs6JXvGULNGKJ_14darwin_metrics8hardware5iokit4mockNtB5_9MockIOKitNtB7_5IOKit13get_gpu_stats
FN:399,_RNvXs2_NtNtNtCs6JXvGULNGKJ_14darwin_metrics8hardware5iokit4mockNtB5_9MockIOKitNtB7_5IOKit16get_thermal_info
FN:249,_RNvXs2_NtNtNtCs6JXvGULNGKJ_14darwin_metrics8hardware5iokit4mockNtB5_9MockIOKitNtB7_5IOKit17get_bool_property
FN:257,_RNvXs2_NtNtNtCs6JXvGULNGKJ_14darwin_metrics8hardware5iokit4mockNtB5_9MockIOKitNtB7_5IOKit17get_dict_property
FN:221,_RNvXs2_NtNtNtCs6JXvGULNGKJ_14darwin_metrics8hardware5iokit4mockNtB5_9MockIOKitNtB7_5IOKit17io_object_release
FN:274,_RNvXs2_NtNtNtCs6JXvGULNGKJ_14darwin_metrics8hardware5iokit4mockNtB5_9MockIOKitNtB7_5IOKit19get_cpu_temperature
FN:282,_RNvXs2_NtNtNtCs6JXvGULNGKJ_14darwin_metrics8hardware5iokit4mockNtB5_9MockIOKitNtB7_5IOKit19get_gpu_temperature
FN:237,_RNvXs2_NtNtNtCs6JXvGULNGKJ_14darwin_metrics8hardware5iokit4mockNtB5_9MockIOKitNtB7_5IOKit19get_number_property
FN:225,_RNvXs2_NtNtNtCs6JXvGULNGKJ_14darwin_metrics8hardware5iokit4mockNtB5_9MockIOKitNtB7_5IOKit19get_string_property
FN:203,_RNvXs2_NtNtNtCs6JXvGULNGKJ_14darwin_metrics8hardware5iokit4mockNtB5_9MockIOKitNtB7_5IOKit19io_service_matching
FN:367,_RNvXs2_NtNtNtCs6JXvGULNGKJ_14darwin_metrics8hardware5iokit4mockNtB5_9MockIOKitNtB7_5IOKit23get_ambient_temperature
FN:375,_RNvXs2_NtNtNtCs6JXvGULNGKJ_14darwin_metrics8hardware5iokit4mockNtB5_9MockIOKitNtB7_5IOKit23get_battery_temperature
FN:391,_RNvXs2_NtNtNtCs6JXvGULNGKJ_14darwin_metrics8hardware5iokit4mockNtB5_9MockIOKitNtB7_5IOKit24check_thermal_throttling
FN:359,_RNvXs2_NtNtNtCs6JXvGULNGKJ_14darwin_metrics8hardware5iokit4mockNtB5_9MockIOKitNtB7_5IOKit24get_heatsink_temperature
FN:269,_RNvXs2_NtNtNtCs6JXvGULNGKJ_14darwin_metrics8hardware5iokit4mockNtB5_9MockIOKitNtB7_5IOKit28io_registry_entry_get_parent
FN:207,_RNvXs2_NtNtNtCs6JXvGULNGKJ_14darwin_metrics8hardware5iokit4mockNtB5_9MockIOKitNtB7_5IOKit31io_service_get_matching_service
FN:214,_RNvXs2_NtNtNtCs6JXvGULNGKJ_14darwin_metrics8hardware5iokit4mockNtB5_9MockIOKitNtB7_5IOKit38io_registry_entry_create_cf_properties
FNDA:0,_RNvXNtNtNtCs6JXvGULNGKJ_14darwin_metrics8hardware5iokit4mockNtB2_9MockIOKitNtNtCs4P3ALgZxGbJ_4core7default7Default7default
FNDA:1,_RNvMs_NtNtNtCs6JXvGULNGKJ_14darwin_metrics8hardware5iokit4mockNtB4_9MockIOKit19expect_get_all_fans
FNDA:1,_RNvMs_NtNtNtCs6JXvGULNGKJ_14darwin_metrics8hardware5iokit4mockNtB4_9MockIOKit19expect_get_fan_info
FNDA:1,_RNvMs_NtNtNtCs6JXvGULNGKJ_14darwin_metrics8hardware5iokit4mockNtB4_9MockIOKit19expect_read_smc_key
FNDA:1,_RNvMs_NtNtNtCs6JXvGULNGKJ_14darwin_metrics8hardware5iokit4mockNtB4_9MockIOKit20expect_get_cpu_power
FNDA:1,_RNvMs_NtNtNtCs6JXvGULNGKJ_14darwin_metrics8hardware5iokit4mockNtB4_9MockIOKit20expect_get_fan_count
FNDA:1,_RNvMs_NtNtNtCs6JXvGULNGKJ_14darwin_metrics8hardware5iokit4mockNtB4_9MockIOKit20expect_get_fan_speed
FNDA:1,_RNvMs_NtNtNtCs6JXvGULNGKJ_14darwin_metrics8hardware5iokit4mockNtB4_9MockIOKit20expect_get_gpu_stats
FNDA:1,_RNvMs_NtNtNtCs6JXvGULNGKJ_14darwin_metrics8hardware5iokit4mockNtB4_9MockIOKit23expect_get_thermal_info
FNDA:1,_RNvMs_NtNtNtCs6JXvGULNGKJ_14darwin_metrics8hardware5iokit4mockNtB4_9MockIOKit24expect_get_bool_property
FNDA:5,_RNvMs_NtNtNtCs6JXvGULNGKJ_14darwin_metrics8hardware5iokit4mockNtB4_9MockIOKit26expect_get_cpu_temperature
FNDA:1,_RNvMs_NtNtNtCs6JXvGULNGKJ_14darwin_metrics8hardware5iokit4mockNtB4_9MockIOKit26expect_get_gpu_temperature
FNDA:1,_RNvMs_NtNtNtCs6JXvGULNGKJ_14darwin_metrics8hardware5iokit4mockNtB4_9MockIOKit26expect_get_number_property
FNDA:1,_RNvMs_NtNtNtCs6JXvGULNGKJ_14darwin_metrics8hardware5iokit4mockNtB4_9MockIOKit26expect_get_string_property
FNDA:1,_RNvMs_NtNtNtCs6JXvGULNGKJ_14darwin_metrics8hardware5iokit4mockNtB4_9MockIOKit30expect_get_ambient_temperature
FNDA:1,_RNvMs_NtNtNtCs6JXvGULNGKJ_14darwin_metrics8hardware5iokit4mockNtB4_9MockIOKit30expect_get_battery_temperature
FNDA:1,_RNvMs_NtNtNtCs6JXvGULNGKJ_14darwin_metrics8hardware5iokit4mockNtB4_9MockIOKit31expect_check_thermal_throttling
FNDA:1,_RNvMs_NtNtNtCs6JXvGULNGKJ_14darwin_metrics8hardware5iokit4mockNtB4_9MockIOKit31expect_get_heatsink_temperature
FNDA:27,_RNvMs_NtNtNtCs6JXvGULNGKJ_14darwin_metrics8hardware5iokit4mockNtB4_9MockIOKit3new
FNDA:1,_RNvXs2_NtNtNtCs6JXvGULNGKJ_14darwin_metrics8hardware5iokit4mockNtB5_9MockIOKitNtB7_5IOKit11get_service
FNDA:1,_RNvXs2_NtNtNtCs6JXvGULNGKJ_14darwin_metrics8hardware5iokit4mockNtB5_9MockIOKitNtB7_5IOKit12get_all_fans
FNDA:1,_RNvXs2_NtNtNtCs6JXvGULNGKJ_14darwin_metrics8hardware5iokit4mockNtB5_9MockIOKitNtB7_5IOKit12get_fan_info
FNDA:1,_RNvXs2_NtNtNtCs6JXvGULNGKJ_14darwin_metrics8hardware5iokit4mockNtB5_9MockIOKitNtB7_5IOKit12read_smc_key
FNDA:1,_RNvXs2_NtNtNtCs6JXvGULNGKJ_14darwin_metrics8hardware5iokit4mockNtB5_9MockIOKitNtB7_5IOKit13get_cpu_power
FNDA:1,_RNvXs2_NtNtNtCs6JXvGULNGKJ_14darwin_metrics8hardware5iokit4mockNtB5_9MockIOKitNtB7_5IOKit13get_fan_count
FNDA:1,_RNvXs2_NtNtNtCs6JXvGULNGKJ_14darwin_metrics8hardware5iokit4mockNtB5_9MockIOKitNtB7_5IOKit13get_fan_speed
FNDA:1,_RNvXs2_NtNtNtCs6JXvGULNGKJ_14darwin_metrics8hardware5iokit4mockNtB5_9MockIOKitNtB7_5IOKit13get_gpu_stats
FNDA:1,_RNvXs2_NtNtNtCs6JXvGULNGKJ_14darwin_metrics8hardware5iokit4mockNtB5_9MockIOKitNtB7_5IOKit16get_thermal_info
FNDA:1,_RNvXs2_NtNtNtCs6JXvGULNGKJ_14darwin_metrics8hardware5iokit4mockNtB5_9MockIOKitNtB7_5IOKit17get_bool_property
FNDA:1,_RNvXs2_NtNtNtCs6JXvGULNGKJ_14darwin_metrics8hardware5iokit4mockNtB5_9MockIOKitNtB7_5IOKit17get_dict_property
FNDA:0,_RNvXs2_NtNtNtCs6JXvGULNGKJ_14darwin_metrics8hardware5iokit4mockNtB5_9MockIOKitNtB7_5IOKit17io_object_release
FNDA:1,_RNvXs2_NtNtNtCs6JXvGULNGKJ_14darwin_metrics8hardware5iokit4mockNtB5_9MockIOKitNtB7_5IOKit19get_cpu_temperature
FNDA:1,_RNvXs2_NtNtNtCs6JXvGULNGKJ_14darwin_metrics8hardware5iokit4mockNtB5_9MockIOKitNtB7_5IOKit19get_gpu_temperature
FNDA:1,_RNvXs2_NtNtNtCs6JXvGULNGKJ_14darwin_metrics8hardware5iokit4mockNtB5_9MockIOKitNtB7_5IOKit19get_number_property
FNDA:1,_RNvXs2_NtNtNtCs6JXvGULNGKJ_14darwin_metrics8hardware5iokit4mockNtB5_9MockIOKitNtB7_5IOKit19get_string_property
FNDA:1,_RNvXs2_NtNtNtCs6JXvGULNGKJ_14darwin_metrics8hardware5iokit4mockNtB5_9MockIOKitNtB7_5IOKit19io_service_matching
FNDA:1,_RNvXs2_NtNtNtCs6JXvGULNGKJ_14darwin_metrics8hardware5iokit4mockNtB5_9MockIOKitNtB7_5IOKit23get_ambient_temperature
FNDA:1,_RNvXs2_NtNtNtCs6JXvGULNGKJ_14darwin_metrics8hardware5iokit4mockNtB5_9MockIOKitNtB7_5IOKit23get_battery_temperature
FNDA:1,_RNvXs2_NtNtNtCs6JXvGULNGKJ_14darwin_metrics8hardware5iokit4mockNtB5_9MockIOKitNtB7_5IOKit24check_thermal_throttling
FNDA:1,_RNvXs2_NtNtNtCs6JXvGULNGKJ_14darwin_metrics8hardware5iokit4mockNtB5_9MockIOKitNtB7_5IOKit24get_heatsink_temperature
FNDA:1,_RNvXs2_NtNtNtCs6JXvGULNGKJ_14darwin_metrics8hardware5iokit4mockNtB5_9MockIOKitNtB7_5IOKit28io_registry_entry_get_parent
FNDA:1,_RNvXs2_NtNtNtCs6JXvGULNGKJ_14darwin_metrics8hardware5iokit4mockNtB5_9MockIOKitNtB7_5IOKit31io_service_get_matching_service
FNDA:1,_RNvXs2_NtNtNtCs6JXvGULNGKJ_14darwin_metrics8hardware5iokit4mockNtB5_9MockIOKitNtB7_5IOKit38io_registry_entry_create_cf_properties
FNF:43
FNH:41
DA:38,0
DA:39,0
DA:40,0
DA:45,27
DA:46,27
DA:47,27
DA:48,27
DA:49,27
DA:50,27
DA:51,27
DA:52,27
DA:53,27
DA:54,27
DA:55,27
DA:56,27
DA:57,27
DA:58,27
DA:59,27
DA:60,27
DA:61,27
DA:62,27
DA:63,27
DA:64,27
DA:65,27
DA:66,27
DA:67,27
DA:68,27
DA:69,27
DA:70,27
DA:71,27
DA:72,27
DA:73,27
DA:74,27
DA:75,27
DA:76,27
DA:77,27
DA:78,27
DA:79,27
DA:80,27
DA:81,27
DA:82,27
DA:83,27
DA:84,27
DA:85,27
DA:86,27
DA:87,27
DA:88,27
DA:89,27
DA:90,27
DA:91,27
DA:92,27
DA:93,27
DA:96,1
DA:97,1
DA:98,1
DA:99,1
DA:100,1
DA:102,1
DA:103,1
DA:104,1
DA:105,1
DA:106,1
DA:108,1
DA:109,1
DA:110,1
DA:111,1
DA:112,1
DA:114,5
DA:115,5
DA:116,5
DA:117,5
DA:118,5
DA:120,1
DA:121,1
DA:122,1
DA:123,1
DA:124,1
DA:126,1
DA:127,1
DA:128,1
DA:129,1
DA:130,1
DA:132,1
DA:133,1
DA:134,1
DA:135,1
DA:136,1
DA:138,1
DA:139,1
DA:140,1
DA:141,1
DA:142,1
DA:144,1
DA:145,1
DA:146,1
DA:147,1
DA:148,1
DA:150,1
DA:151,1
DA:152,1
DA:153,1
DA:154,1
DA:156,1
DA:157,1
DA:158,1
DA:159,1
DA:160,1
DA:162,1
DA:163,1
DA:164,1
DA:165,1
DA:166,1
DA:168,1
DA:169,1
DA:170,1
DA:171,1
DA:172,1
DA:174,1
DA:175,1
DA:176,1
DA:177,1
DA:178,1
DA:180,1
DA:181,1
DA:182,1
DA:183,1
DA:184,1
DA:186,1
DA:187,1
DA:188,1
DA:189,1
DA:190,1
DA:192,1
DA:193,1
DA:194,1
DA:195,1
DA:196,1
DA:203,1
DA:204,1
DA:205,1
DA:207,1
DA:208,1
DA:209,1
DA:210,1
DA:211,1
DA:212,1
DA:214,1
DA:215,1
DA:216,1
DA:217,1
DA:218,1
DA:219,1
DA:221,0
DA:222,0
DA:223,0
DA:225,1
DA:226,1
DA:227,1
DA:228,1
DA:229,1
DA:230,1
DA:231,1
DA:233,0
DA:235,1
DA:237,1
DA:238,1
DA:239,1
DA:240,1
DA:241,1
DA:242,1
DA:243,1
DA:245,0
DA:247,1
DA:249,1
DA:250,1
DA:251,1
DA:253,0
DA:255,1
DA:257,1
DA:258,1
DA:259,1
DA:260,1
DA:261,1
DA:262,1
DA:263,1
DA:265,1
DA:266,1
DA:267,1
DA:269,1
DA:270,1
DA:271,1
DA:274,1
DA:275,1
DA:276,1
DA:278,0
DA:280,1
DA:282,1
DA:283,1
DA:284,1
DA:286,0
DA:288,1
DA:290,1
DA:291,1
DA:292,1
DA:294,0
DA:295,0
DA:296,0
DA:297,0
DA:298,0
DA:299,0
DA:300,0
DA:301,0
DA:303,1
DA:306,1
DA:307,1
DA:308,1
DA:310,0
DA:312,1
DA:314,1
DA:315,1
DA:316,1
DA:318,0
DA:320,1
DA:322,1
DA:323,1
DA:324,1
DA:325,1
DA:326,0
DA:327,0
DA:329,0
DA:330,0
DA:331,0
DA:332,0
DA:333,0
DA:334,0
DA:335,1
DA:337,1
DA:338,1
DA:339,1
DA:341,0
DA:342,0
DA:343,0
DA:344,0
DA:345,0
DA:346,0
DA:347,0
DA:348,0
DA:349,0
DA:350,0
DA:351,0
DA:352,0
DA:353,0
DA:354,0
DA:356,1
DA:359,1
DA:360,1
DA:361,1
DA:363,0
DA:365,1
DA:367,1
DA:368,1
DA:369,1
DA:371,0
DA:373,1
DA:375,1
DA:376,1
DA:377,1
DA:379,0
DA:381,1
DA:383,1
DA:384,1
DA:385,1
DA:387,0
DA:389,1
DA:391,1
DA:392,1
DA:393,1
DA:395,0
DA:397,1
DA:399,1
DA:400,1
DA:401,1
DA:403,0
DA:404,0
DA:405,0
DA:406,0
DA:407,0
DA:408,0
DA:409,0
DA:410,0
DA:411,0
DA:413,1
DA:415,1
DA:416,1
DA:417,1
DA:418,1
DA:419,0
DA:420,0
DA:422,0
DA:423,1
BRF:0
BRH:0
LF:300
LH:240
end_of_record
SF:/Users/smeya/git/darwin-metrics/src/hardware/iokit/mod.rs
FN:1154,_RNvNtNtNtCs6JXvGULNGKJ_14darwin_metrics8hardware5iokit5testss_16test_get_service
FN:1287,_RNvNtNtNtCs6JXvGULNGKJ_14darwin_metrics8hardware5iokit5testss_17test_get_all_fans
FN:1118,_RNvNtNtNtCs6JXvGULNGKJ_14darwin_metrics8hardware5iokit5testss_17test_get_fan_info
FN:1241,_RNvNtNtNtCs6JXvGULNGKJ_14darwin_metrics8hardware5iokit5testss_17test_read_smc_key
FN:1211,_RNvNtNtNtCs6JXvGULNGKJ_14darwin_metrics8hardware5iokit5testss_18test_get_cpu_power
FN:1257,_RNvNtNtNtCs6JXvGULNGKJ_14darwin_metrics8hardware5iokit5testss_18test_get_fan_count
FN:1272,_RNvNtNtNtCs6JXvGULNGKJ_14darwin_metrics8hardware5iokit5testss_18test_get_fan_speed
FN:966,_RNvNtNtNtCs6JXvGULNGKJ_14darwin_metrics8hardware5iokit5testss_18test_get_gpu_stats
FN:1089,_RNvNtNtNtCs6JXvGULNGKJ_14darwin_metrics8hardware5iokit5testss_21test_get_thermal_info
FN:1060,_RNvNtNtNtCs6JXvGULNGKJ_14darwin_metrics8hardware5iokit5testss_22test_get_bool_property
FN:1076,_RNvNtNtNtCs6JXvGULNGKJ_14darwin_metrics8hardware5iokit5testss_22test_get_dict_property
FN:923,_RNvNtNtNtCs6JXvGULNGKJ_14darwin_metrics8hardware5iokit5testss_23test_smc_key_from_chars
FN:936,_RNvNtNtNtCs6JXvGULNGKJ_14darwin_metrics8hardware5iokit5testss_24test_get_cpu_temperature
FN:951,_RNvNtNtNtCs6JXvGULNGKJ_14darwin_metrics8hardware5iokit5testss_24test_get_gpu_temperature
FN:1044,_RNvNtNtNtCs6JXvGULNGKJ_14darwin_metrics8hardware5iokit5testss_24test_get_number_property
FN:1028,_RNvNtNtNtCs6JXvGULNGKJ_14darwin_metrics8hardware5iokit5testss_24test_get_string_property
FN:990,_RNvNtNtNtCs6JXvGULNGKJ_14darwin_metrics8hardware5iokit5testss_24test_io_service_matching
FN:1181,_RNvNtNtNtCs6JXvGULNGKJ_14darwin_metrics8hardware5iokit5testss_28test_get_ambient_temperature
FN:1196,_RNvNtNtNtCs6JXvGULNGKJ_14darwin_metrics8hardware5iokit5testss_28test_get_battery_temperature
FN:1226,_RNvNtNtNtCs6JXvGULNGKJ_14darwin_metrics8hardware5iokit5testss_29test_check_thermal_throttling
FN:1166,_RNvNtNtNtCs6JXvGULNGKJ_14darwin_metrics8hardware5iokit5testss_29test_get_heatsink_temperature
FN:1141,_RNvNtNtNtCs6JXvGULNGKJ_14darwin_metrics8hardware5iokit5testss_33test_io_registry_entry_get_parent
FN:1002,_RNvNtNtNtCs6JXvGULNGKJ_14darwin_metrics8hardware5iokit5testss_36test_io_service_get_matching_service
FN:1015,_RNvNtNtNtCs6JXvGULNGKJ_14darwin_metrics8hardware5iokit5testss_43test_io_registry_entry_create_cf_properties
FN:879,_RNCNCNvXs_NtNtCs6JXvGULNGKJ_14darwin_metrics8hardware5iokitNtB8_9IOKitImplNtB8_5IOKit13get_gpu_stats00Bc_
FN:377,_RNCNCNvXs_NtNtCs6JXvGULNGKJ_14darwin_metrics8hardware5iokitNtB8_9IOKitImplNtB8_5IOKit38io_registry_entry_create_cf_properties00Bc_
FN:694,_RNCNvXs_NtNtCs6JXvGULNGKJ_14darwin_metrics8hardware5iokitNtB6_9IOKitImplNtB6_5IOKit13get_gpu_stats0Ba_
FN:488,_RNCNvXs_NtNtCs6JXvGULNGKJ_14darwin_metrics8hardware5iokitNtB6_9IOKitImplNtB6_5IOKit17get_bool_property0Ba_
FN:489,_RNCNvXs_NtNtCs6JXvGULNGKJ_14darwin_metrics8hardware5iokitNtB6_9IOKitImplNtB6_5IOKit17get_bool_propertys_0Ba_
FN:446,_RNCNvXs_NtNtCs6JXvGULNGKJ_14darwin_metrics8hardware5iokitNtB6_9IOKitImplNtB6_5IOKit19get_number_property0Ba_
FN:401,_RNCNvXs_NtNtCs6JXvGULNGKJ_14darwin_metrics8hardware5iokitNtB6_9IOKitImplNtB6_5IOKit19get_string_property0Ba_
FN:273,_RNCNvXs_NtNtCs6JXvGULNGKJ_14darwin_metrics8hardware5iokitNtB6_9IOKitImplNtB6_5IOKit19io_service_matching0Ba_
FN:342,_RNCNvXs_NtNtCs6JXvGULNGKJ_14darwin_metrics8hardware5iokitNtB6_9IOKitImplNtB6_5IOKit38io_registry_entry_create_cf_properties0Ba_
FN:132,_RNvMNtNtCs6JXvGULNGKJ_14darwin_metrics8hardware5iokitNtB2_9IOKitImpl12smc_read_key
FN:556,_RNvXs_NtNtCs6JXvGULNGKJ_14darwin_metrics8hardware5iokitNtB4_9IOKitImplNtB4_5IOKit11get_service
FN:671,_RNvXs_NtNtCs6JXvGULNGKJ_14darwin_metrics8hardware5iokitNtB4_9IOKitImplNtB4_5IOKit12get_all_fans
FN:633,_RNvXs_NtNtCs6JXvGULNGKJ_14darwin_metrics8hardware5iokitNtB4_9IOKitImplNtB4_5IOKit12get_fan_info
FN:616,_RNvXs_NtNtCs6JXvGULNGKJ_14darwin_metrics8hardware5iokitNtB4_9IOKitImplNtB4_5IOKit12read_smc_key
FN:583,_RNvXs_NtNtCs6JXvGULNGKJ_14darwin_metrics8hardware5iokitNtB4_9IOKitImplNtB4_5IOKit13get_cpu_power
FN:628,_RNvXs_NtNtCs6JXvGULNGKJ_14darwin_metrics8hardware5iokitNtB4_9IOKitImplNtB4_5IOKit13get_fan_count
FN:622,_RNvXs_NtNtCs6JXvGULNGKJ_14darwin_metrics8hardware5iokitNtB4_9IOKitImplNtB4_5IOKit13get_fan_speed
FN:687,_RNvXs_NtNtCs6JXvGULNGKJ_14darwin_metrics8hardware5iokitNtB4_9IOKitImplNtB4_5IOKit13get_gpu_stats
FN:593,_RNvXs_NtNtCs6JXvGULNGKJ_14darwin_metrics8hardware5iokitNtB4_9IOKitImplNtB4_5IOKit16get_thermal_info
FN:480,_RNvXs_NtNtCs6JXvGULNGKJ_14darwin_metrics8hardware5iokitNtB4_9IOKitImplNtB4_5IOKit17get_bool_property
FN:493,_RNvXs_NtNtCs6JXvGULNGKJ_14darwin_metrics8hardware5iokitNtB4_9IOKitImplNtB4_5IOKit17get_dict_property
FN:385,_RNvXs_NtNtCs6JXvGULNGKJ_14darwin_metrics8hardware5iokitNtB4_9IOKitImplNtB4_5IOKit17io_object_release
FN:563,_RNvXs_NtNtCs6JXvGULNGKJ_14darwin_metrics8hardware5iokitNtB4_9IOKitImplNtB4_5IOKit19get_cpu_temperature
FN:567,_RNvXs_NtNtCs6JXvGULNGKJ_14darwin_metrics8hardware5iokitNtB4_9IOKitImplNtB4_5IOKit19get_gpu_temperature
FN:435,_RNvXs_NtNtCs6JXvGULNGKJ_14darwin_metrics8hardware5iokitNtB4_9IOKitImplNtB4_5IOKit19get_number_property
FN:390,_RNvXs_NtNtCs6JXvGULNGKJ_14darwin_metrics8hardware5iokitNtB4_9IOKitImplNtB4_5IOKit19get_string_property
FN:268,_RNvXs_NtNtCs6JXvGULNGKJ_14darwin_metrics8hardware5iokitNtB4_9IOKitImplNtB4_5IOKit19io_service_matching
FN:575,_RNvXs_NtNtCs6JXvGULNGKJ_14darwin_metrics8hardware5iokitNtB4_9IOKitImplNtB4_5IOKit23get_ambient_temperature
FN:579,_RNvXs_NtNtCs6JXvGULNGKJ_14darwin_metrics8hardware5iokitNtB4_9IOKitImplNtB4_5IOKit23get_battery_temperature
FN:587,_RNvXs_NtNtCs6JXvGULNGKJ_14darwin_metrics8hardware5iokitNtB4_9IOKitImplNtB4_5IOKit24check_thermal_throttling
FN:571,_RNvXs_NtNtCs6JXvGULNGKJ_14darwin_metrics8hardware5iokitNtB4_9IOKitImplNtB4_5IOKit24get_heatsink_temperature
FN:524,_RNvXs_NtNtCs6JXvGULNGKJ_14darwin_metrics8hardware5iokitNtB4_9IOKitImplNtB4_5IOKit28io_registry_entry_get_parent
FN:327,_RNvXs_NtNtCs6JXvGULNGKJ_14darwin_metrics8hardware5iokitNtB4_9IOKitImplNtB4_5IOKit31io_service_get_matching_service
FN:336,_RNvXs_NtNtCs6JXvGULNGKJ_14darwin_metrics8hardware5iokitNtB4_9IOKitImplNtB4_5IOKit38io_registry_entry_create_cf_properties
FN:879,_RNCNCNvXs_NtNtCsaakIWYUxKbY_14darwin_metrics8hardware5iokitNtB8_9IOKitImplNtB8_5IOKit13get_gpu_stats00Bc_
FN:377,_RNCNCNvXs_NtNtCsaakIWYUxKbY_14darwin_metrics8hardware5iokitNtB8_9IOKitImplNtB8_5IOKit38io_registry_entry_create_cf_properties00Bc_
FN:694,_RNCNvXs_NtNtCsaakIWYUxKbY_14darwin_metrics8hardware5iokitNtB6_9IOKitImplNtB6_5IOKit13get_gpu_stats0Ba_
FN:488,_RNCNvXs_NtNtCsaakIWYUxKbY_14darwin_metrics8hardware5iokitNtB6_9IOKitImplNtB6_5IOKit17get_bool_property0Ba_
FN:489,_RNCNvXs_NtNtCsaakIWYUxKbY_14darwin_metrics8hardware5iokitNtB6_9IOKitImplNtB6_5IOKit17get_bool_propertys_0Ba_
FN:446,_RNCNvXs_NtNtCsaakIWYUxKbY_14darwin_metrics8hardware5iokitNtB6_9IOKitImplNtB6_5IOKit19get_number_property0Ba_
FN:401,_RNCNvXs_NtNtCsaakIWYUxKbY_14darwin_metrics8hardware5iokitNtB6_9IOKitImplNtB6_5IOKit19get_string_property0Ba_
FN:273,_RNCNvXs_NtNtCsaakIWYUxKbY_14darwin_metrics8hardware5iokitNtB6_9IOKitImplNtB6_5IOKit19io_service_matching0Ba_
FN:342,_RNCNvXs_NtNtCsaakIWYUxKbY_14darwin_metrics8hardware5iokitNtB6_9IOKitImplNtB6_5IOKit38io_registry_entry_create_cf_properties0Ba_
FN:132,_RNvMNtNtCsaakIWYUxKbY_14darwin_metrics8hardware5iokitNtB2_9IOKitImpl12smc_read_key
FN:556,_RNvXs_NtNtCsaakIWYUxKbY_14darwin_metrics8hardware5iokitNtB4_9IOKitImplNtB4_5IOKit11get_service
FN:671,_RNvXs_NtNtCsaakIWYUxKbY_14darwin_metrics8hardware5iokitNtB4_9IOKitImplNtB4_5IOKit12get_all_fans
FN:633,_RNvXs_NtNtCsaakIWYUxKbY_14darwin_metrics8hardware5iokitNtB4_9IOKitImplNtB4_5IOKit12get_fan_info
FN:616,_RNvXs_NtNtCsaakIWYUxKbY_14darwin_metrics8hardware5iokitNtB4_9IOKitImplNtB4_5IOKit12read_smc_key
FN:583,_RNvXs_NtNtCsaakIWYUxKbY_14darwin_metrics8hardware5iokitNtB4_9IOKitImplNtB4_5IOKit13get_cpu_power
FN:628,_RNvXs_NtNtCsaakIWYUxKbY_14darwin_metrics8hardware5iokitNtB4_9IOKitImplNtB4_5IOKit13get_fan_count
FN:622,_RNvXs_NtNtCsaakIWYUxKbY_14darwin_metrics8hardware5iokitNtB4_9IOKitImplNtB4_5IOKit13get_fan_speed
FN:687,_RNvXs_NtNtCsaakIWYUxKbY_14darwin_metrics8hardware5iokitNtB4_9IOKitImplNtB4_5IOKit13get_gpu_stats
FN:593,_RNvXs_NtNtCsaakIWYUxKbY_14darwin_metrics8hardware5iokitNtB4_9IOKitImplNtB4_5IOKit16get_thermal_info
FN:480,_RNvXs_NtNtCsaakIWYUxKbY_14darwin_metrics8hardware5iokitNtB4_9IOKitImplNtB4_5IOKit17get_bool_property
FN:493,_RNvXs_NtNtCsaakIWYUxKbY_14darwin_metrics8hardware5iokitNtB4_9IOKitImplNtB4_5IOKit17get_dict_property
FN:385,_RNvXs_NtNtCsaakIWYUxKbY_14darwin_metrics8hardware5iokitNtB4_9IOKitImplNtB4_5IOKit17io_object_release
FN:563,_RNvXs_NtNtCsaakIWYUxKbY_14darwin_metrics8hardware5iokitNtB4_9IOKitImplNtB4_5IOKit19get_cpu_temperature
FN:567,_RNvXs_NtNtCsaakIWYUxKbY_14darwin_metrics8hardware5iokitNtB4_9IOKitImplNtB4_5IOKit19get_gpu_temperature
FN:435,_RNvXs_NtNtCsaakIWYUxKbY_14darwin_metrics8hardware5iokitNtB4_9IOKitImplNtB4_5IOKit19get_number_property
FN:390,_RNvXs_NtNtCsaakIWYUxKbY_14darwin_metrics8hardware5iokitNtB4_9IOKitImplNtB4_5IOKit19get_string_property
FN:268,_RNvXs_NtNtCsaakIWYUxKbY_14darwin_metrics8hardware5iokitNtB4_9IOKitImplNtB4_5IOKit19io_service_matching
FN:575,_RNvXs_NtNtCsaakIWYUxKbY_14darwin_metrics8hardware5iokitNtB4_9IOKitImplNtB4_5IOKit23get_ambient_temperature
FN:579,_RNvXs_NtNtCsaakIWYUxKbY_14darwin_metrics8hardware5iokitNtB4_9IOKitImplNtB4_5IOKit23get_battery_temperature
FN:587,_RNvXs_NtNtCsaakIWYUxKbY_14darwin_metrics8hardware5iokitNtB4_9IOKitImplNtB4_5IOKit24check_thermal_throttling
FN:571,_RNvXs_NtNtCsaakIWYUxKbY_14darwin_metrics8hardware5iokitNtB4_9IOKitImplNtB4_5IOKit24get_heatsink_temperature
FN:524,_RNvXs_NtNtCsaakIWYUxKbY_14darwin_metrics8hardware5iokitNtB4_9IOKitImplNtB4_5IOKit28io_registry_entry_get_parent
FN:327,_RNvXs_NtNtCsaakIWYUxKbY_14darwin_metrics8hardware5iokitNtB4_9IOKitImplNtB4_5IOKit31io_service_get_matching_service
FN:336,_RNvXs_NtNtCsaakIWYUxKbY_14darwin_metrics8hardware5iokitNtB4_9IOKitImplNtB4_5IOKit38io_registry_entry_create_cf_properties
FNDA:1,_RNvNtNtNtCs6JXvGULNGKJ_14darwin_metrics8hardware5iokit5testss_16test_get_service
FNDA:1,_RNvNtNtNtCs6JXvGULNGKJ_14darwin_metrics8hardware5iokit5testss_17test_get_all_fans
FNDA:1,_RNvNtNtNtCs6JXvGULNGKJ_14darwin_metrics8hardware5iokit5testss_17test_get_fan_info
FNDA:1,_RNvNtNtNtCs6JXvGULNGKJ_14darwin_metrics8hardware5iokit5testss_17test_read_smc_key
FNDA:1,_RNvNtNtNtCs6JXvGULNGKJ_14darwin_metrics8hardware5iokit5testss_18test_get_cpu_power
FNDA:1,_RNvNtNtNtCs6JXvGULNGKJ_14darwin_metrics8hardware5iokit5testss_18test_get_fan_count
FNDA:1,_RNvNtNtNtCs6JXvGULNGKJ_14darwin_metrics8hardware5iokit5testss_18test_get_fan_speed
FNDA:1,_RNvNtNtNtCs6JXvGULNGKJ_14darwin_metrics8hardware5iokit5testss_18test_get_gpu_stats
FNDA:1,_RNvNtNtNtCs6JXvGULNGKJ_14darwin_metrics8hardware5iokit5testss_21test_get_thermal_info
FNDA:1,_RNvNtNtNtCs6JXvGULNGKJ_14darwin_metrics8hardware5iokit5testss_22test_get_bool_property
FNDA:1,_RNvNtNtNtCs6JXvGULNGKJ_14darwin_metrics8hardware5iokit5testss_22test_get_dict_property
FNDA:1,_RNvNtNtNtCs6JXvGULNGKJ_14darwin_metrics8hardware5iokit5testss_23test_smc_key_from_chars
FNDA:1,_RNvNtNtNtCs6JXvGULNGKJ_14darwin_metrics8hardware5iokit5testss_24test_get_cpu_temperature
FNDA:1,_RNvNtNtNtCs6JXvGULNGKJ_14darwin_metrics8hardware5iokit5testss_24test_get_gpu_temperature
FNDA:1,_RNvNtNtNtCs6JXvGULNGKJ_14darwin_metrics8hardware5iokit5testss_24test_get_number_property
FNDA:1,_RNvNtNtNtCs6JXvGULNGKJ_14darwin_metrics8hardware5iokit5testss_24test_get_string_property
FNDA:1,_RNvNtNtNtCs6JXvGULNGKJ_14darwin_metrics8hardware5iokit5testss_24test_io_service_matching
FNDA:1,_RNvNtNtNtCs6JXvGULNGKJ_14darwin_metrics8hardware5iokit5testss_28test_get_ambient_temperature
FNDA:1,_RNvNtNtNtCs6JXvGULNGKJ_14darwin_metrics8hardware5iokit5testss_28test_get_battery_temperature
FNDA:1,_RNvNtNtNtCs6JXvGULNGKJ_14darwin_metrics8hardware5iokit5testss_29test_check_thermal_throttling
FNDA:1,_RNvNtNtNtCs6JXvGULNGKJ_14darwin_metrics8hardware5iokit5testss_29test_get_heatsink_temperature
FNDA:1,_RNvNtNtNtCs6JXvGULNGKJ_14darwin_metrics8hardware5iokit5testss_33test_io_registry_entry_get_parent
FNDA:1,_RNvNtNtNtCs6JXvGULNGKJ_14darwin_metrics8hardware5iokit5testss_36test_io_service_get_matching_service
FNDA:1,_RNvNtNtNtCs6JXvGULNGKJ_14darwin_metrics8hardware5iokit5testss_43test_io_registry_entry_create_cf_properties
FNDA:0,_RNCNCNvXs_NtNtCs6JXvGULNGKJ_14darwin_metrics8hardware5iokitNtB8_9IOKitImplNtB8_5IOKit13get_gpu_stats00Bc_
FNDA:0,_RNCNCNvXs_NtNtCs6JXvGULNGKJ_14darwin_metrics8hardware5iokitNtB8_9IOKitImplNtB8_5IOKit38io_registry_entry_create_cf_properties00Bc_
FNDA:0,_RNCNvXs_NtNtCs6JXvGULNGKJ_14darwin_metrics8hardware5iokitNtB6_9IOKitImplNtB6_5IOKit13get_gpu_stats0Ba_
FNDA:0,_RNCNvXs_NtNtCs6JXvGULNGKJ_14darwin_metrics8hardware5iokitNtB6_9IOKitImplNtB6_5IOKit17get_bool_property0Ba_
FNDA:0,_RNCNvXs_NtNtCs6JXvGULNGKJ_14darwin_metrics8hardware5iokitNtB6_9IOKitImplNtB6_5IOKit17get_bool_propertys_0Ba_
FNDA:0,_RNCNvXs_NtNtCs6JXvGULNGKJ_14darwin_metrics8hardware5iokitNtB6_9IOKitImplNtB6_5IOKit19get_number_property0Ba_
FNDA:0,_RNCNvXs_NtNtCs6JXvGULNGKJ_14darwin_metrics8hardware5iokitNtB6_9IOKitImplNtB6_5IOKit19get_string_property0Ba_
FNDA:0,_RNCNvXs_NtNtCs6JXvGULNGKJ_14darwin_metrics8hardware5iokitNtB6_9IOKitImplNtB6_5IOKit19io_service_matching0Ba_
FNDA:0,_RNCNvXs_NtNtCs6JXvGULNGKJ_14darwin_metrics8hardware5iokitNtB6_9IOKitImplNtB6_5IOKit38io_registry_entry_create_cf_properties0Ba_
FNDA:2,_RNvMNtNtCs6JXvGULNGKJ_14darwin_metrics8hardware5iokitNtB2_9IOKitImpl12smc_read_key
FNDA:0,_RNvXs_NtNtCs6JXvGULNGKJ_14darwin_metrics8hardware5iokitNtB4_9IOKitImplNtB4_5IOKit11get_service
FNDA:1,_RNvXs_NtNtCs6JXvGULNGKJ_14darwin_metrics8hardware5iokitNtB4_9IOKitImplNtB4_5IOKit12get_all_fans
FNDA:0,_RNvXs_NtNtCs6JXvGULNGKJ_14darwin_metrics8hardware5iokitNtB4_9IOKitImplNtB4_5IOKit12get_fan_info
FNDA:0,_RNvXs_NtNtCs6JXvGULNGKJ_14darwin_metrics8hardware5iokitNtB4_9IOKitImplNtB4_5IOKit12read_smc_key
FNDA:0,_RNvXs_NtNtCs6JXvGULNGKJ_14darwin_metrics8hardware5iokitNtB4_9IOKitImplNtB4_5IOKit13get_cpu_power
FNDA:1,_RNvXs_NtNtCs6JXvGULNGKJ_14darwin_metrics8hardware5iokitNtB4_9IOKitImplNtB4_5IOKit13get_fan_count
FNDA:0,_RNvXs_NtNtCs6JXvGULNGKJ_14darwin_metrics8hardware5iokitNtB4_9IOKitImplNtB4_5IOKit13get_fan_speed
FNDA:0,_RNvXs_NtNtCs6JXvGULNGKJ_14darwin_metrics8hardware5iokitNtB4_9IOKitImplNtB4_5IOKit13get_gpu_stats
FNDA:1,_RNvXs_NtNtCs6JXvGULNGKJ_14darwin_metrics8hardware5iokitNtB4_9IOKitImplNtB4_5IOKit16get_thermal_info
FNDA:0,_RNvXs_NtNtCs6JXvGULNGKJ_14darwin_metrics8hardware5iokitNtB4_9IOKitImplNtB4_5IOKit17get_bool_property
FNDA:0,_RNvXs_NtNtCs6JXvGULNGKJ_14darwin_metrics8hardware5iokitNtB4_9IOKitImplNtB4_5IOKit17get_dict_property
FNDA:0,_RNvXs_NtNtCs6JXvGULNGKJ_14darwin_metrics8hardware5iokitNtB4_9IOKitImplNtB4_5IOKit17io_object_release
FNDA:1,_RNvXs_NtNtCs6JXvGULNGKJ_14darwin_metrics8hardware5iokitNtB4_9IOKitImplNtB4_5IOKit19get_cpu_temperature
FNDA:0,_RNvXs_NtNtCs6JXvGULNGKJ_14darwin_metrics8hardware5iokitNtB4_9IOKitImplNtB4_5IOKit19get_gpu_temperature
FNDA:0,_RNvXs_NtNtCs6JXvGULNGKJ_14darwin_metrics8hardware5iokitNtB4_9IOKitImplNtB4_5IOKit19get_number_property
FNDA:0,_RNvXs_NtNtCs6JXvGULNGKJ_14darwin_metrics8hardware5iokitNtB4_9IOKitImplNtB4_5IOKit19get_string_property
FNDA:0,_RNvXs_NtNtCs6JXvGULNGKJ_14darwin_metrics8hardware5iokitNtB4_9IOKitImplNtB4_5IOKit19io_service_matching
FNDA:0,_RNvXs_NtNtCs6JXvGULNGKJ_14darwin_metrics8hardware5iokitNtB4_9IOKitImplNtB4_5IOKit23get_ambient_temperature
FNDA:0,_RNvXs_NtNtCs6JXvGULNGKJ_14darwin_metrics8hardware5iokitNtB4_9IOKitImplNtB4_5IOKit23get_battery_temperature
FNDA:0,_RNvXs_NtNtCs6JXvGULNGKJ_14darwin_metrics8hardware5iokitNtB4_9IOKitImplNtB4_5IOKit24check_thermal_throttling
FNDA:0,_RNvXs_NtNtCs6JXvGULNGKJ_14darwin_metrics8hardware5iokitNtB4_9IOKitImplNtB4_5IOKit24get_heatsink_temperature
FNDA:0,_RNvXs_NtNtCs6JXvGULNGKJ_14darwin_metrics8hardware5iokitNtB4_9IOKitImplNtB4_5IOKit28io_registry_entry_get_parent
FNDA:0,_RNvXs_NtNtCs6JXvGULNGKJ_14darwin_metrics8hardware5iokitNtB4_9IOKitImplNtB4_5IOKit31io_service_get_matching_service
FNDA:0,_RNvXs_NtNtCs6JXvGULNGKJ_14darwin_metrics8hardware5iokitNtB4_9IOKitImplNtB4_5IOKit38io_registry_entry_create_cf_properties
FNDA:0,_RNCNCNvXs_NtNtCsaakIWYUxKbY_14darwin_metrics8hardware5iokitNtB8_9IOKitImplNtB8_5IOKit13get_gpu_stats00Bc_
FNDA:0,_RNCNCNvXs_NtNtCsaakIWYUxKbY_14darwin_metrics8hardware5iokitNtB8_9IOKitImplNtB8_5IOKit38io_registry_entry_create_cf_properties00Bc_
FNDA:0,_RNCNvXs_NtNtCsaakIWYUxKbY_14darwin_metrics8hardware5iokitNtB6_9IOKitImplNtB6_5IOKit13get_gpu_stats0Ba_
FNDA:0,_RNCNvXs_NtNtCsaakIWYUxKbY_14darwin_metrics8hardware5iokitNtB6_9IOKitImplNtB6_5IOKit17get_bool_property0Ba_
FNDA:0,_RNCNvXs_NtNtCsaakIWYUxKbY_14darwin_metrics8hardware5iokitNtB6_9IOKitImplNtB6_5IOKit17get_bool_propertys_0Ba_
FNDA:0,_RNCNvXs_NtNtCsaakIWYUxKbY_14darwin_metrics8hardware5iokitNtB6_9IOKitImplNtB6_5IOKit19get_number_property0Ba_
FNDA:0,_RNCNvXs_NtNtCsaakIWYUxKbY_14darwin_metrics8hardware5iokitNtB6_9IOKitImplNtB6_5IOKit19get_string_property0Ba_
FNDA:0,_RNCNvXs_NtNtCsaakIWYUxKbY_14darwin_metrics8hardware5iokitNtB6_9IOKitImplNtB6_5IOKit19io_service_matching0Ba_
FNDA:0,_RNCNvXs_NtNtCsaakIWYUxKbY_14darwin_metrics8hardware5iokitNtB6_9IOKitImplNtB6_5IOKit38io_registry_entry_create_cf_properties0Ba_
FNDA:0,_RNvMNtNtCsaakIWYUxKbY_14darwin_metrics8hardware5iokitNtB2_9IOKitImpl12smc_read_key
FNDA:0,_RNvXs_NtNtCsaakIWYUxKbY_14darwin_metrics8hardware5iokitNtB4_9IOKitImplNtB4_5IOKit11get_service
FNDA:0,_RNvXs_NtNtCsaakIWYUxKbY_14darwin_metrics8hardware5iokitNtB4_9IOKitImplNtB4_5IOKit12get_all_fans
FNDA:0,_RNvXs_NtNtCsaakIWYUxKbY_14darwin_metrics8hardware5iokitNtB4_9IOKitImplNtB4_5IOKit12get_fan_info
FNDA:0,_RNvXs_NtNtCsaakIWYUxKbY_14darwin_metrics8hardware5iokitNtB4_9IOKitImplNtB4_5IOKit12read_smc_key
FNDA:0,_RNvXs_NtNtCsaakIWYUxKbY_14darwin_metrics8hardware5iokitNtB4_9IOKitImplNtB4_5IOKit13get_cpu_power
FNDA:0,_RNvXs_NtNtCsaakIWYUxKbY_14darwin_metrics8hardware5iokitNtB4_9IOKitImplNtB4_5IOKit13get_fan_count
FNDA:0,_RNvXs_NtNtCsaakIWYUxKbY_14darwin_metrics8hardware5iokitNtB4_9IOKitImplNtB4_5IOKit13get_fan_speed
FNDA:0,_RNvXs_NtNtCsaakIWYUxKbY_14darwin_metrics8hardware5iokitNtB4_9IOKitImplNtB4_5IOKit13get_gpu_stats
FNDA:0,_RNvXs_NtNtCsaakIWYUxKbY_14darwin_metrics8hardware5iokitNtB4_9IOKitImplNtB4_5IOKit16get_thermal_info
FNDA:0,_RNvXs_NtNtCsaakIWYUxKbY_14darwin_metrics8hardware5iokitNtB4_9IOKitImplNtB4_5IOKit17get_bool_property
FNDA:0,_RNvXs_NtNtCsaakIWYUxKbY_14darwin_metrics8hardware5iokitNtB4_9IOKitImplNtB4_5IOKit17get_dict_property
FNDA:0,_RNvXs_NtNtCsaakIWYUxKbY_14darwin_metrics8hardware5iokitNtB4_9IOKitImplNtB4_5IOKit17io_object_release
FNDA:0,_RNvXs_NtNtCsaakIWYUxKbY_14darwin_metrics8hardware5iokitNtB4_9IOKitImplNtB4_5IOKit19get_cpu_temperature
FNDA:0,_RNvXs_NtNtCsaakIWYUxKbY_14darwin_metrics8hardware5iokitNtB4_9IOKitImplNtB4_5IOKit19get_gpu_temperature
FNDA:0,_RNvXs_NtNtCsaakIWYUxKbY_14darwin_metrics8hardware5iokitNtB4_9IOKitImplNtB4_5IOKit19get_number_property
FNDA:0,_RNvXs_NtNtCsaakIWYUxKbY_14darwin_metrics8hardware5iokitNtB4_9IOKitImplNtB4_5IOKit19get_string_property
FNDA:0,_RNvXs_NtNtCsaakIWYUxKbY_14darwin_metrics8hardware5iokitNtB4_9IOKitImplNtB4_5IOKit19io_service_matching
FNDA:0,_RNvXs_NtNtCsaakIWYUxKbY_14darwin_metrics8hardware5iokitNtB4_9IOKitImplNtB4_5IOKit23get_ambient_temperature
FNDA:0,_RNvXs_NtNtCsaakIWYUxKbY_14darwin_metrics8hardware5iokitNtB4_9IOKitImplNtB4_5IOKit23get_battery_temperature
FNDA:0,_RNvXs_NtNtCsaakIWYUxKbY_14darwin_metrics8hardware5iokitNtB4_9IOKitImplNtB4_5IOKit24check_thermal_throttling
FNDA:0,_RNvXs_NtNtCsaakIWYUxKbY_14darwin_metrics8hardware5iokitNtB4_9IOKitImplNtB4_5IOKit24get_heatsink_temperature
FNDA:0,_RNvXs_NtNtCsaakIWYUxKbY_14darwin_metrics8hardware5iokitNtB4_9IOKitImplNtB4_5IOKit28io_registry_entry_get_parent
FNDA:0,_RNvXs_NtNtCsaakIWYUxKbY_14darwin_metrics8hardware5iokitNtB4_9IOKitImplNtB4_5IOKit31io_service_get_matching_service
FNDA:0,_RNvXs_NtNtCsaakIWYUxKbY_14darwin_metrics8hardware5iokitNtB4_9IOKitImplNtB4_5IOKit38io_registry_entry_create_cf_properties
FNF:58
FNH:29
DA:132,2
DA:133,2
DA:134,2
DA:135,2
DA:136,2
DA:137,2
DA:138,2
DA:139,2
DA:140,2
DA:141,2
DA:142,2
DA:143,2
DA:144,2
DA:145,2
DA:146,2
DA:147,2
DA:148,2
DA:149,2
DA:150,2
DA:151,2
DA:152,2
DA:153,2
DA:154,2
DA:155,2
DA:156,2
DA:157,2
DA:158,2
DA:159,0
DA:160,2
DA:161,2
DA:162,2
DA:163,2
DA:164,0
DA:165,2
DA:166,2
DA:167,2
DA:168,2
DA:169,2
DA:170,2
DA:171,0
DA:172,0
DA:173,0
DA:174,0
DA:175,0
DA:176,0
DA:177,0
DA:178,0
DA:179,0
DA:180,0
DA:181,0
DA:182,0
DA:183,0
DA:184,0
DA:185,0
DA:186,0
DA:187,0
DA:188,0
DA:189,0
DA:190,0
DA:191,0
DA:192,0
DA:193,0
DA:194,0
DA:195,0
DA:196,0
DA:197,0
DA:198,0
DA:199,0
DA:200,0
DA:201,0
DA:202,0
DA:203,0
DA:204,0
DA:205,0
DA:206,0
DA:207,0
DA:208,0
DA:209,0
DA:210,0
DA:211,0
DA:212,0
DA:213,0
DA:214,0
DA:215,0
DA:216,0
DA:217,0
DA:218,0
DA:219,0
DA:220,0
DA:221,0
DA:222,0
DA:223,0
DA:224,0
DA:225,0
DA:226,0
DA:227,0
DA:228,0
DA:229,0
DA:230,0
DA:232,0
DA:233,0
DA:234,0
DA:235,0
DA:236,0
DA:239,0
DA:240,0
DA:241,0
DA:242,0
DA:243,0
DA:246,0
DA:247,0
DA:248,0
DA:249,0
DA:250,0
DA:253,0
DA:254,0
DA:255,0
DA:256,0
DA:257,0
DA:259,0
DA:260,0
DA:261,0
DA:262,0
DA:264,2
DA:268,0
DA:269,0
DA:270,0
DA:271,0
DA:272,0
DA:273,0
DA:274,0
DA:275,0
DA:276,0
DA:277,0
DA:278,0
DA:279,0
DA:280,0
DA:281,0
DA:282,0
DA:283,0
DA:284,0
DA:285,0
DA:286,0
DA:288,0
DA:289,0
DA:290,0
DA:294,0
DA:295,0
DA:296,0
DA:297,0
DA:298,0
DA:299,0
DA:300,0
DA:301,0
DA:302,0
DA:303,0
DA:304,0
DA:305,0
DA:306,0
DA:307,0
DA:308,0
DA:309,0
DA:310,0
DA:311,0
DA:312,0
DA:313,0
DA:314,0
DA:317,0
DA:318,0
DA:320,0
DA:321,0
DA:327,0
DA:328,0
DA:329,0
DA:330,0
DA:331,0
DA:332,0
DA:333,0
DA:334,0
DA:336,0
DA:337,0
DA:338,0
DA:339,0
DA:340,0
DA:341,0
DA:342,0
DA:343,0
DA:344,0
DA:345,0
DA:346,0
DA:347,0
DA:348,0
DA:349,0
DA:350,0
DA:351,0
DA:352,0
DA:353,0
DA:354,0
DA:355,0
DA:356,0
DA:357,0
DA:358,0
DA:359,0
DA:360,0
DA:361,0
DA:362,0
DA:363,0
DA:364,0
DA:365,0
DA:366,0
DA:367,0
DA:368,0
DA:369,0
DA:370,0
DA:371,0
DA:372,0
DA:373,0
DA:374,0
DA:375,0
DA:376,0
DA:377,0
DA:378,0
DA:379,0
DA:380,0
DA:382,0
DA:383,0
DA:385,0
DA:386,0
DA:387,0
DA:388,0
DA:390,0
DA:391,0
DA:392,0
DA:393,0
DA:394,0
DA:395,0
DA:396,0
DA:397,0
DA:398,0
DA:399,0
DA:400,0
DA:401,0
DA:402,0
DA:403,0
DA:404,0
DA:405,0
DA:407,0
DA:408,0
DA:410,0
DA:411,0
DA:412,0
DA:413,0
DA:414,0
DA:415,0
DA:416,0
DA:417,0
DA:419,0
DA:420,0
DA:422,0
DA:423,0
DA:424,0
DA:425,0
DA:426,0
DA:427,0
DA:428,0
DA:429,0
DA:430,0
DA:431,0
DA:432,0
DA:433,0
DA:435,0
DA:436,0
DA:437,0
DA:438,0
DA:439,0
DA:440,0
DA:441,0
DA:442,0
DA:443,0
DA:444,0
DA:445,0
DA:446,0
DA:447,0
DA:448,0
DA:449,0
DA:450,0
DA:452,0
DA:453,0
DA:455,0
DA:456,0
DA:457,0
DA:458,0
DA:459,0
DA:460,0
DA:461,0
DA:462,0
DA:464,0
DA:465,0
DA:467,0
DA:468,0
DA:469,0
DA:470,0
DA:471,0
DA:472,0
DA:473,0
DA:474,0
DA:475,0
DA:476,0
DA:477,0
DA:478,0
DA:480,0
DA:481,0
DA:482,0
DA:483,0
DA:484,0
DA:485,0
DA:486,0
DA:487,0
DA:488,0
DA:489,0
DA:490,0
DA:491,0
DA:493,0
DA:494,0
DA:495,0
DA:496,0
DA:497,0
DA:498,0
DA:500,0
DA:502,0
DA:503,0
DA:504,0
DA:505,0
DA:508,0
DA:509,0
DA:510,0
DA:511,0
DA:512,0
DA:513,0
DA:514,0
DA:515,0
DA:516,0
DA:517,0
DA:518,0
DA:519,0
DA:520,0
DA:522,0
DA:524,0
DA:536,0
DA:537,0
DA:540,0
DA:541,0
DA:542,0
DA:544,0
DA:545,0
DA:546,0
DA:547,0
DA:548,0
DA:549,0
DA:550,0
DA:551,0
DA:552,0
DA:554,0
DA:556,0
DA:557,0
DA:558,0
DA:559,0
DA:560,0
DA:563,1
DA:564,1
DA:565,1
DA:567,0
DA:568,0
DA:569,0
DA:571,0
DA:572,0
DA:573,0
DA:575,0
DA:576,0
DA:577,0
DA:579,0
DA:580,0
DA:581,0
DA:583,0
DA:584,0
DA:585,0
DA:587,0
DA:589,0
DA:590,0
DA:591,0
DA:593,1
DA:595,1
DA:598,0
DA:599,0
DA:600,0
DA:601,0
DA:602,0
DA:603,0
DA:604,0
DA:605,0
DA:606,0
DA:607,0
DA:608,0
DA:609,0
DA:610,0
DA:611,0
DA:612,0
DA:613,0
DA:614,1
DA:616,0
DA:617,0
DA:618,0
DA:619,0
DA:622,0
DA:624,0
DA:625,0
DA:626,0
DA:628,1
DA:629,1
DA:630,0
DA:631,1
DA:633,0
DA:634,0
DA:635,0
DA:636,0
DA:637,0
DA:638,0
DA:639,0
DA:640,0
DA:641,0
DA:642,0
DA:643,0
DA:644,0
DA:645,0
DA:646,0
DA:647,0
DA:648,0
DA:649,0
DA:650,0
DA:651,0
DA:652,0
DA:653,0
DA:654,0
DA:657,0
DA:658,0
DA:659,0
DA:662,0
DA:663,0
DA:665,0
DA:668,0
DA:669,0
DA:671,1
DA:672,1
DA:675,0
DA:676,0
DA:677,0
DA:678,0
DA:679,0
DA:680,0
DA:681,0
DA:684,0
DA:685,1
DA:687,0
DA:688,0
DA:689,0
DA:690,0
DA:691,0
DA:692,0
DA:693,0
DA:694,0
DA:695,0
DA:696,0
DA:697,0
DA:698,0
DA:699,0
DA:700,0
DA:701,0
DA:702,0
DA:703,0
DA:704,0
DA:706,0
DA:707,0
DA:708,0
DA:709,0
DA:710,0
DA:711,0
DA:713,0
DA:714,0
DA:715,0
DA:716,0
DA:717,0
DA:718,0
DA:719,0
DA:720,0
DA:721,0
DA:722,0
DA:723,0
DA:724,0
DA:725,0
DA:726,0
DA:727,0
DA:728,0
DA:729,0
DA:730,0
DA:731,0
DA:732,0
DA:733,0
DA:734,0
DA:736,0
DA:739,0
DA:746,0
DA:747,0
DA:748,0
DA:749,0
DA:750,0
DA:751,0
DA:752,0
DA:753,0
DA:754,0
DA:755,0
DA:757,0
DA:758,0
DA:759,0
DA:760,0
DA:761,0
DA:763,0
DA:765,0
DA:766,0
DA:767,0
DA:768,0
DA:769,0
DA:770,0
DA:772,0
DA:773,0
DA:774,0
DA:775,0
DA:776,0
DA:777,0
DA:780,0
DA:781,0
DA:782,0
DA:783,0
DA:784,0
DA:785,0
DA:786,0
DA:787,0
DA:788,0
DA:790,0
DA:793,0
DA:799,0
DA:804,0
DA:806,0
DA:809,0
DA:810,0
DA:813,0
DA:814,0
DA:815,0
DA:816,0
DA:817,0
DA:818,0
DA:819,0
DA:820,0
DA:821,0
DA:822,0
DA:823,0
DA:824,0
DA:825,0
DA:827,0
DA:830,0
DA:834,0
DA:837,0
DA:840,0
DA:842,0
DA:843,0
DA:846,0
DA:847,0
DA:850,0
DA:851,0
DA:852,0
DA:853,0
DA:854,0
DA:856,0
DA:859,0
DA:863,0
DA:866,0
DA:869,0
DA:872,0
DA:874,0
DA:877,0
DA:878,0
DA:879,0
DA:880,0
DA:881,0
DA:882,0
DA:883,0
DA:884,0
DA:885,0
DA:886,0
DA:887,0
DA:890,0
DA:893,0
DA:896,0
DA:897,0
DA:898,0
DA:899,0
DA:900,0
DA:901,0
DA:902,0
DA:905,0
DA:906,0
DA:907,0
DA:908,0
DA:909,0
DA:911,0
DA:912,0
DA:923,1
DA:924,1
DA:925,1
DA:926,1
DA:927,1
DA:928,1
DA:929,1
DA:930,1
DA:931,1
DA:932,1
DA:933,1
DA:936,1
DA:937,1
DA:938,1
DA:939,1
DA:940,1
DA:941,1
DA:942,1
DA:943,1
DA:944,1
DA:945,1
DA:946,1
DA:947,1
DA:948,1
DA:951,1
DA:952,1
DA:953,1
DA:954,1
DA:955,1
DA:956,1
DA:957,1
DA:958,1
DA:959,1
DA:960,1
DA:961,1
DA:962,1
DA:963,1
DA:966,1
DA:967,1
DA:968,1
DA:969,1
DA:970,1
DA:971,1
DA:972,1
DA:973,1
DA:974,1
DA:975,1
DA:976,1
DA:977,1
DA:978,1
DA:979,1
DA:980,1
DA:981,1
DA:982,1
DA:983,1
DA:984,1
DA:985,1
DA:986,1
DA:987,1
DA:990,1
DA:991,1
DA:992,1
DA:993,1
DA:994,1
DA:995,1
DA:996,1
DA:997,1
DA:998,1
DA:999,1
DA:1002,1
DA:1003,1
DA:1004,1
DA:1005,1
DA:1006,1
DA:1007,1
DA:1008,1
DA:1009,1
DA:1010,1
DA:1011,1
DA:1012,1
DA:1015,1
DA:1016,1
DA:1017,1
DA:1018,1
DA:1019,1
DA:1020,1
DA:1021,1
DA:1022,1
DA:1023,1
DA:1024,1
DA:1025,1
DA:1028,1
DA:1029,1
DA:1030,1
DA:1031,1
DA:1032,1
DA:1033,1
DA:1034,1
DA:1035,1
DA:1036,1
DA:1037,1
DA:1038,1
DA:1039,1
DA:1040,1
DA:1041,1
DA:1044,1
DA:1045,1
DA:1046,1
DA:1047,1
DA:1048,1
DA:1049,1
DA:1050,1
DA:1051,1
DA:1052,1
DA:1053,1
DA:1054,1
DA:1055,1
DA:1056,1
DA:1057,1
DA:1060,1
DA:1061,1
DA:1062,1
DA:1063,1
DA:1064,1
DA:1065,1
DA:1066,1
DA:1067,1
DA:1068,1
DA:1069,1
DA:1070,1
DA:1071,1
DA:1072,1
DA:1073,1
DA:1076,1
DA:1077,1
DA:1078,1
DA:1079,1
DA:1080,1
DA:1081,1
DA:1082,1
DA:1083,1
DA:1084,1
DA:1085,1
DA:1086,1
DA:1089,1
DA:1090,1
DA:1091,1
DA:1092,1
DA:1093,1
DA:1094,1
DA:1095,1
DA:1096,1
DA:1097,1
DA:1098,1
DA:1099,1
DA:1100,1
DA:1101,1
DA:1102,1
DA:1103,1
DA:1104,1
DA:1105,1
DA:1106,1
DA:1107,1
DA:1108,1
DA:1109,1
DA:1110,1
DA:1111,1
DA:1112,1
DA:1113,1
DA:1114,1
DA:1115,1
DA:1118,1
DA:1119,1
DA:1120,1
DA:1121,1
DA:1122,1
DA:1123,1
DA:1124,1
DA:1125,1
DA:1126,1
DA:1127,1
DA:1128,1
DA:1129,1
DA:1130,1
DA:1131,1
DA:1132,1
DA:1133,1
DA:1134,1
DA:1135,1
DA:1136,1
DA:1137,1
DA:1138,1
DA:1141,1
DA:1142,1
DA:1143,1
DA:1144,1
DA:1145,1
DA:1146,1
DA:1147,1
DA:1148,1
DA:1149,1
DA:1150,1
DA:1151,1
DA:1154,1
DA:1155,1
DA:1156,1
DA:1157,1
DA:1158,1
DA:1159,1
DA:1160,1
DA:1161,1
DA:1162,1
DA:1163,1
DA:1166,1
DA:1167,1
DA:1168,1
DA:1169,1
DA:1170,1
DA:1171,1
DA:1172,1
DA:1173,1
DA:1174,1
DA:1175,1
DA:1176,1
DA:1177,1
DA:1178,1
DA:1181,1
DA:1182,1
DA:1183,1
DA:1184,1
DA:1185,1
DA:1186,1
DA:1187,1
DA:1188,1
DA:1189,1
DA:1190,1
DA:1191,1
DA:1192,1
DA:1193,1
DA:1196,1
DA:1197,1
DA:1198,1
DA:1199,1
DA:1200,1
DA:1201,1
DA:1202,1
DA:1203,1
DA:1204,1
DA:1205,1
DA:1206,1
DA:1207,1
DA:1208,1
DA:1211,1
DA:1212,1
DA:1213,1
DA:1214,1
DA:1215,1
DA:1216,1
DA:1217,1
DA:1218,1
DA:1219,1
DA:1220,1
DA:1221,1
DA:1222,1
DA:1223,1
DA:1226,1
DA:1227,1
DA:1228,1
DA:1229,1
DA:1230,1
DA:1231,1
DA:1232,1
DA:1233,1
DA:1234,1
DA:1235,1
DA:1236,1
DA:1237,1
DA:1238,1
DA:1241,1
DA:1242,1
DA:1243,1
DA:1244,1
DA:1245,1
DA:1246,1
DA:1247,1
DA:1248,1
DA:1249,1
DA:1250,1
DA:1251,1
DA:1252,1
DA:1253,1
DA:1254,1
DA:1257,1
DA:1258,1
DA:1259,1
DA:1260,1
DA:1261,1
DA:1262,1
DA:1263,1
DA:1264,1
DA:1265,1
DA:1266,1
DA:1267,1
DA:1268,1
DA:1269,1
DA:1272,1
DA:1273,1
DA:1274,1
DA:1275,1
DA:1276,1
DA:1277,1
DA:1278,1
DA:1279,1
DA:1280,1
DA:1281,1
DA:1282,1
DA:1283,1
DA:1284,1
DA:1287,1
DA:1288,1
DA:1289,1
DA:1290,1
DA:1291,1
DA:1292,1
DA:1293,1
DA:1294,1
DA:1295,1
DA:1296,1
DA:1297,1
DA:1298,1
DA:1299,1
DA:1300,1
DA:1301,1
DA:1302,1
DA:1303,1
DA:1304,1
DA:1305,1
DA:1306,1
DA:1307,1
DA:1308,1
DA:1309,1
DA:1310,1
DA:1311,1
DA:1312,1
DA:1313,1
DA:1314,1
BRF:0
BRH:0
LF:976
LH:396
end_of_record
SF:/Users/smeya/git/darwin-metrics/src/hardware/memory/mod.rs
FN:304,_RNvMs3_NtNtCs6JXvGULNGKJ_14darwin_metrics8hardware6memoryNtB5_6Memory11with_values
FN:510,_RNvMs3_NtNtCs6JXvGULNGKJ_14darwin_metrics8hardware6memoryNtB5_6Memory13usage_history
FN:333,_RNvMs3_NtNtCs6JXvGULNGKJ_14darwin_metrics8hardware6memoryNtB5_6Memory15with_basic_info
FN:474,_RNvMs3_NtNtCs6JXvGULNGKJ_14darwin_metrics8hardware6memoryNtB5_6Memory19pressure_percentage
FN:95,_RNvXNtNtCs6JXvGULNGKJ_14darwin_metrics8hardware6memoryNtB2_13PressureLevelNtNtCs4P3ALgZxGbJ_4core3fmt7Display3fmt
FN:188,_RNvXs0_NtNtCs6JXvGULNGKJ_14darwin_metrics8hardware6memoryNtB5_6MemoryNtNtCs4P3ALgZxGbJ_4core3fmt5Debug3fmt
FN:239,_RNvXs2_NtNtCs6JXvGULNGKJ_14darwin_metrics8hardware6memoryNtB5_6MemoryNtNtCs4P3ALgZxGbJ_4core3cmp9PartialEq2eq
FN:701,_RNCNCNvMs6_NtNtCs6JXvGULNGKJ_14darwin_metrics8hardware6memoryNtB9_6Memory12update_async00Bd_
FN:575,_RNvMs3_NtNtCs6JXvGULNGKJ_14darwin_metrics8hardware6memoryNtB5_6Memory13get_page_size
FN:599,_RNvMs3_NtNtCs6JXvGULNGKJ_14darwin_metrics8hardware6memoryNtB5_6Memory14get_swap_usage
FN:478,_RNvMs3_NtNtCs6JXvGULNGKJ_14darwin_metrics8hardware6memoryNtB5_6Memory14pressure_level
FN:551,_RNvMs3_NtNtCs6JXvGULNGKJ_14darwin_metrics8hardware6memoryNtB5_6Memory16get_total_memory
FN:514,_RNvMs3_NtNtCs6JXvGULNGKJ_14darwin_metrics8hardware6memoryNtB5_6Memory16start_monitoring
FN:470,_RNvMs3_NtNtCs6JXvGULNGKJ_14darwin_metrics8hardware6memoryNtB5_6Memory16usage_percentage
FN:579,_RNvMs3_NtNtCs6JXvGULNGKJ_14darwin_metrics8hardware6memoryNtB5_6Memory17get_vm_statistics
FN:488,_RNvMs3_NtNtCs6JXvGULNGKJ_14darwin_metrics8hardware6memoryNtB5_6Memory23set_pressure_thresholds
FN:638,_RNvMs3_NtNtCs6JXvGULNGKJ_14darwin_metrics8hardware6memoryNtB5_6Memory25check_pressure_thresholds
FN:279,_RNvMs3_NtNtCs6JXvGULNGKJ_14darwin_metrics8hardware6memoryNtB5_6Memory3new
FN:383,_RNvMs3_NtNtCs6JXvGULNGKJ_14darwin_metrics8hardware6memoryNtB5_6Memory6update
FN:446,_RNvMs3_NtNtCs6JXvGULNGKJ_14darwin_metrics8hardware6memoryNtB5_6Memory8get_info
FN:654,_RNvMs4_NtNtCs6JXvGULNGKJ_14darwin_metrics8hardware6memoryNtB5_19MemoryMonitorHandle4stop
FN:658,_RNvMs4_NtNtCs6JXvGULNGKJ_14darwin_metrics8hardware6memoryNtB5_19MemoryMonitorHandle9is_active
FN:697,_RNvMs6_NtNtCs6JXvGULNGKJ_14darwin_metrics8hardware6memoryNtB5_6Memory12update_async
FN:753,_RNvMs6_NtNtCs6JXvGULNGKJ_14darwin_metrics8hardware6memoryNtB5_6Memory14get_info_async
FN:216,_RNvXs1_NtNtCs6JXvGULNGKJ_14darwin_metrics8hardware6memoryNtB5_6MemoryNtNtCs4P3ALgZxGbJ_4core5clone5Clone5clone
FN:141,_RNvXs_NtNtCs6JXvGULNGKJ_14darwin_metrics8hardware6memoryNtB4_9SwapUsageNtNtCs4P3ALgZxGbJ_4core7default7Default7default
FN:521,_RNCNCNvMs3_NtNtCs6JXvGULNGKJ_14darwin_metrics8hardware6memoryNtB9_6Memory16start_monitoring00Bd_
FN:501,_RINvMs3_NtNtCs6JXvGULNGKJ_14darwin_metrics8hardware6memoryNtB6_6Memory18on_pressure_changeNCNvNtB6_5testss_23test_pressure_callbacks0EBa_
FN:824,_RNCNvNtNtNtCs6JXvGULNGKJ_14darwin_metrics8hardware6memory5testss_23test_pressure_callbacks0B9_
FN:709,_RNCNCNvMs6_NtNtCs6JXvGULNGKJ_14darwin_metrics8hardware6memoryNtB9_6Memory12update_async0s_0Bd_
FN:756,_RNCNCNvMs6_NtNtCs6JXvGULNGKJ_14darwin_metrics8hardware6memoryNtB9_6Memory14get_info_async00Bd_
FN:514,_RNCNvMs3_NtNtCs6JXvGULNGKJ_14darwin_metrics8hardware6memoryNtB7_6Memory16start_monitoring0Bb_
FN:697,_RNCNvMs6_NtNtCs6JXvGULNGKJ_14darwin_metrics8hardware6memoryNtB7_6Memory12update_async0Bb_
FN:753,_RNCNvMs6_NtNtCs6JXvGULNGKJ_14darwin_metrics8hardware6memoryNtB7_6Memory14get_info_async0Bb_
FN:896,_RNCNvNtNtNtCs6JXvGULNGKJ_14darwin_metrics8hardware6memory5testss_17test_update_async0B9_
FN:903,_RNCNvNtNtNtCs6JXvGULNGKJ_14darwin_metrics8hardware6memory5testss_19test_get_info_async0B9_
FN:878,_RNCNvNtNtNtCs6JXvGULNGKJ_14darwin_metrics8hardware6memory5testss_22test_memory_monitoring0B9_
FN:896,_RNvNtNtNtCs6JXvGULNGKJ_14darwin_metrics8hardware6memory5testss_17test_update_async
FN:771,_RNvNtNtNtCs6JXvGULNGKJ_14darwin_metrics8hardware6memory5testss_18test_memory_update
FN:903,_RNvNtNtNtCs6JXvGULNGKJ_14darwin_metrics8hardware6memory5testss_19test_get_info_async
FN:778,_RNvNtNtNtCs6JXvGULNGKJ_14darwin_metrics8hardware6memory5testss_19test_memory_metrics
FN:806,_RNvNtNtNtCs6JXvGULNGKJ_14darwin_metrics8hardware6memory5testss_21test_usage_percentage
FN:840,_RNvNtNtNtCs6JXvGULNGKJ_14darwin_metrics8hardware6memory5testss_22test_custom_thresholds
FN:878,_RNvNtNtNtCs6JXvGULNGKJ_14darwin_metrics8hardware6memory5testss_22test_memory_monitoring
FN:818,_RNvNtNtNtCs6JXvGULNGKJ_14darwin_metrics8hardware6memory5testss_23test_pressure_callbacks
FN:860,_RNvNtNtNtCs6JXvGULNGKJ_14darwin_metrics8hardware6memory5testss_26test_memory_info_functions
FN:765,_RNvNtNtNtCs6JXvGULNGKJ_14darwin_metrics8hardware6memory5testss_26test_memory_initialization
FN:664,_RNvXs5_NtNtCs6JXvGULNGKJ_14darwin_metrics8hardware6memoryNtB5_19MemoryMonitorHandleNtNtNtCs4P3ALgZxGbJ_4core3ops4drop4Drop4drop
FN:501,_RINvMs3_NtNtCsaakIWYUxKbY_14darwin_metrics8hardware6memoryNtB6_6Memory18on_pressure_changepEBa_
FN:521,_RNCNCNvMs3_NtNtCsaakIWYUxKbY_14darwin_metrics8hardware6memoryNtB9_6Memory16start_monitoring00Bd_
FN:701,_RNCNCNvMs6_NtNtCsaakIWYUxKbY_14darwin_metrics8hardware6memoryNtB9_6Memory12update_async00Bd_
FN:709,_RNCNCNvMs6_NtNtCsaakIWYUxKbY_14darwin_metrics8hardware6memoryNtB9_6Memory12update_async0s_0Bd_
FN:756,_RNCNCNvMs6_NtNtCsaakIWYUxKbY_14darwin_metrics8hardware6memoryNtB9_6Memory14get_info_async00Bd_
FN:514,_RNCNvMs3_NtNtCsaakIWYUxKbY_14darwin_metrics8hardware6memoryNtB7_6Memory16start_monitoring0Bb_
FN:697,_RNCNvMs6_NtNtCsaakIWYUxKbY_14darwin_metrics8hardware6memoryNtB7_6Memory12update_async0Bb_
FN:753,_RNCNvMs6_NtNtCsaakIWYUxKbY_14darwin_metrics8hardware6memoryNtB7_6Memory14get_info_async0Bb_
FN:304,_RNvMs3_NtNtCsaakIWYUxKbY_14darwin_metrics8hardware6memoryNtB5_6Memory11with_values
FN:575,_RNvMs3_NtNtCsaakIWYUxKbY_14darwin_metrics8hardware6memoryNtB5_6Memory13get_page_size
FN:510,_RNvMs3_NtNtCsaakIWYUxKbY_14darwin_metrics8hardware6memoryNtB5_6Memory13usage_history
FN:599,_RNvMs3_NtNtCsaakIWYUxKbY_14darwin_metrics8hardware6memoryNtB5_6Memory14get_swap_usage
FN:478,_RNvMs3_NtNtCsaakIWYUxKbY_14darwin_metrics8hardware6memoryNtB5_6Memory14pressure_level
FN:333,_RNvMs3_NtNtCsaakIWYUxKbY_14darwin_metrics8hardware6memoryNtB5_6Memory15with_basic_info
FN:551,_RNvMs3_NtNtCsaakIWYUxKbY_14darwin_metrics8hardware6memoryNtB5_6Memory16get_total_memory
FN:514,_RNvMs3_NtNtCsaakIWYUxKbY_14darwin_metrics8hardware6memoryNtB5_6Memory16start_monitoring
FN:470,_RNvMs3_NtNtCsaakIWYUxKbY_14darwin_metrics8hardware6memoryNtB5_6Memory16usage_percentage
FN:579,_RNvMs3_NtNtCsaakIWYUxKbY_14darwin_metrics8hardware6memoryNtB5_6Memory17get_vm_statistics
FN:474,_RNvMs3_NtNtCsaakIWYUxKbY_14darwin_metrics8hardware6memoryNtB5_6Memory19pressure_percentage
FN:488,_RNvMs3_NtNtCsaakIWYUxKbY_14darwin_metrics8hardware6memoryNtB5_6Memory23set_pressure_thresholds
FN:638,_RNvMs3_NtNtCsaakIWYUxKbY_14darwin_metrics8hardware6memoryNtB5_6Memory25check_pressure_thresholds
FN:279,_RNvMs3_NtNtCsaakIWYUxKbY_14darwin_metrics8hardware6memoryNtB5_6Memory3new
FN:383,_RNvMs3_NtNtCsaakIWYUxKbY_14darwin_metrics8hardware6memoryNtB5_6Memory6update
FN:446,_RNvMs3_NtNtCsaakIWYUxKbY_14darwin_metrics8hardware6memoryNtB5_6Memory8get_info
FN:654,_RNvMs4_NtNtCsaakIWYUxKbY_14darwin_metrics8hardware6memoryNtB5_19MemoryMonitorHandle4stop
FN:658,_RNvMs4_NtNtCsaakIWYUxKbY_14darwin_metrics8hardware6memoryNtB5_19MemoryMonitorHandle9is_active
FN:697,_RNvMs6_NtNtCsaakIWYUxKbY_14darwin_metrics8hardware6memoryNtB5_6Memory12update_async
FN:753,_RNvMs6_NtNtCsaakIWYUxKbY_14darwin_metrics8hardware6memoryNtB5_6Memory14get_info_async
FN:95,_RNvXNtNtCsaakIWYUxKbY_14darwin_metrics8hardware6memoryNtB2_13PressureLevelNtNtCs4P3ALgZxGbJ_4core3fmt7Display3fmt
FN:188,_RNvXs0_NtNtCsaakIWYUxKbY_14darwin_metrics8hardware6memoryNtB5_6MemoryNtNtCs4P3ALgZxGbJ_4core3fmt5Debug3fmt
FN:216,_RNvXs1_NtNtCsaakIWYUxKbY_14darwin_metrics8hardware6memoryNtB5_6MemoryNtNtCs4P3ALgZxGbJ_4core5clone5Clone5clone
FN:239,_RNvXs2_NtNtCsaakIWYUxKbY_14darwin_metrics8hardware6memoryNtB5_6MemoryNtNtCs4P3ALgZxGbJ_4core3cmp9PartialEq2eq
FN:141,_RNvXs_NtNtCsaakIWYUxKbY_14darwin_metrics8hardware6memoryNtB4_9SwapUsageNtNtCs4P3ALgZxGbJ_4core7default7Default7default
FN:664,_RNvXs5_NtNtCsaakIWYUxKbY_14darwin_metrics8hardware6memoryNtB5_19MemoryMonitorHandleNtNtNtCs4P3ALgZxGbJ_4core3ops4drop4Drop4drop
FNDA:0,_RNvMs3_NtNtCs6JXvGULNGKJ_14darwin_metrics8hardware6memoryNtB5_6Memory11with_values
FNDA:0,_RNvMs3_NtNtCs6JXvGULNGKJ_14darwin_metrics8hardware6memoryNtB5_6Memory13usage_history
FNDA:0,_RNvMs3_NtNtCs6JXvGULNGKJ_14darwin_metrics8hardware6memoryNtB5_6Memory15with_basic_info
FNDA:0,_RNvMs3_NtNtCs6JXvGULNGKJ_14darwin_metrics8hardware6memoryNtB5_6Memory19pressure_percentage
FNDA:0,_RNvXNtNtCs6JXvGULNGKJ_14darwin_metrics8hardware6memoryNtB2_13PressureLevelNtNtCs4P3ALgZxGbJ_4core3fmt7Display3fmt
FNDA:0,_RNvXs0_NtNtCs6JXvGULNGKJ_14darwin_metrics8hardware6memoryNtB5_6MemoryNtNtCs4P3ALgZxGbJ_4core3fmt5Debug3fmt
FNDA:0,_RNvXs2_NtNtCs6JXvGULNGKJ_14darwin_metrics8hardware6memoryNtB5_6MemoryNtNtCs4P3ALgZxGbJ_4core3cmp9PartialEq2eq
FNDA:1,_RNCNCNvMs6_NtNtCs6JXvGULNGKJ_14darwin_metrics8hardware6memoryNtB9_6Memory12update_async00Bd_
FNDA:15,_RNvMs3_NtNtCs6JXvGULNGKJ_14darwin_metrics8hardware6memoryNtB5_6Memory13get_page_size
FNDA:15,_RNvMs3_NtNtCs6JXvGULNGKJ_14darwin_metrics8hardware6memoryNtB5_6Memory14get_swap_usage
FNDA:16,_RNvMs3_NtNtCs6JXvGULNGKJ_14darwin_metrics8hardware6memoryNtB5_6Memory14pressure_level
FNDA:15,_RNvMs3_NtNtCs6JXvGULNGKJ_14darwin_metrics8hardware6memoryNtB5_6Memory16get_total_memory
FNDA:1,_RNvMs3_NtNtCs6JXvGULNGKJ_14darwin_metrics8hardware6memoryNtB5_6Memory16start_monitoring
FNDA:15,_RNvMs3_NtNtCs6JXvGULNGKJ_14darwin_metrics8hardware6memoryNtB5_6Memory16usage_percentage
FNDA:15,_RNvMs3_NtNtCs6JXvGULNGKJ_14darwin_metrics8hardware6memoryNtB5_6Memory17get_vm_statistics
FNDA:4,_RNvMs3_NtNtCs6JXvGULNGKJ_14darwin_metrics8hardware6memoryNtB5_6Memory23set_pressure_thresholds
FNDA:15,_RNvMs3_NtNtCs6JXvGULNGKJ_14darwin_metrics8hardware6memoryNtB5_6Memory25check_pressure_thresholds
FNDA:8,_RNvMs3_NtNtCs6JXvGULNGKJ_14darwin_metrics8hardware6memoryNtB5_6Memory3new
FNDA:14,_RNvMs3_NtNtCs6JXvGULNGKJ_14darwin_metrics8hardware6memoryNtB5_6Memory6update
FNDA:4,_RNvMs3_NtNtCs6JXvGULNGKJ_14darwin_metrics8hardware6memoryNtB5_6Memory8get_info
FNDA:2,_RNvMs4_NtNtCs6JXvGULNGKJ_14darwin_metrics8hardware6memoryNtB5_19MemoryMonitorHandle4stop
FNDA:2,_RNvMs4_NtNtCs6JXvGULNGKJ_14darwin_metrics8hardware6memoryNtB5_19MemoryMonitorHandle9is_active
FNDA:1,_RNvMs6_NtNtCs6JXvGULNGKJ_14darwin_metrics8hardware6memoryNtB5_6Memory12update_async
FNDA:1,_RNvMs6_NtNtCs6JXvGULNGKJ_14darwin_metrics8hardware6memoryNtB5_6Memory14get_info_async
FNDA:1,_RNvXs1_NtNtCs6JXvGULNGKJ_14darwin_metrics8hardware6memoryNtB5_6MemoryNtNtCs4P3ALgZxGbJ_4core5clone5Clone5clone
FNDA:27,_RNvXs_NtNtCs6JXvGULNGKJ_14darwin_metrics8hardware6memoryNtB4_9SwapUsageNtNtCs4P3ALgZxGbJ_4core7default7Default7default
FNDA:1,_RNCNCNvMs3_NtNtCs6JXvGULNGKJ_14darwin_metrics8hardware6memoryNtB9_6Memory16start_monitoring00Bd_
FNDA:1,_RINvMs3_NtNtCs6JXvGULNGKJ_14darwin_metrics8hardware6memoryNtB6_6Memory18on_pressure_changeNCNvNtB6_5testss_23test_pressure_callbacks0EBa_
FNDA:1,_RNCNvNtNtNtCs6JXvGULNGKJ_14darwin_metrics8hardware6memory5testss_23test_pressure_callbacks0B9_
FNDA:0,_RNCNCNvMs6_NtNtCs6JXvGULNGKJ_14darwin_metrics8hardware6memoryNtB9_6Memory12update_async0s_0Bd_
FNDA:0,_RNCNCNvMs6_NtNtCs6JXvGULNGKJ_14darwin_metrics8hardware6memoryNtB9_6Memory14get_info_async00Bd_
FNDA:1,_RNCNvMs3_NtNtCs6JXvGULNGKJ_14darwin_metrics8hardware6memoryNtB7_6Memory16start_monitoring0Bb_
FNDA:1,_RNCNvMs6_NtNtCs6JXvGULNGKJ_14darwin_metrics8hardware6memoryNtB7_6Memory12update_async0Bb_
FNDA:1,_RNCNvMs6_NtNtCs6JXvGULNGKJ_14darwin_metrics8hardware6memoryNtB7_6Memory14get_info_async0Bb_
FNDA:1,_RNCNvNtNtNtCs6JXvGULNGKJ_14darwin_metrics8hardware6memory5testss_17test_update_async0B9_
FNDA:1,_RNCNvNtNtNtCs6JXvGULNGKJ_14darwin_metrics8hardware6memory5testss_19test_get_info_async0B9_
FNDA:1,_RNCNvNtNtNtCs6JXvGULNGKJ_14darwin_metrics8hardware6memory5testss_22test_memory_monitoring0B9_
FNDA:1,_RNvNtNtNtCs6JXvGULNGKJ_14darwin_metrics8hardware6memory5testss_17test_update_async
FNDA:1,_RNvNtNtNtCs6JXvGULNGKJ_14darwin_metrics8hardware6memory5testss_18test_memory_update
FNDA:1,_RNvNtNtNtCs6JXvGULNGKJ_14darwin_metrics8hardware6memory5testss_19test_get_info_async
FNDA:1,_RNvNtNtNtCs6JXvGULNGKJ_14darwin_metrics8hardware6memory5testss_19test_memory_metrics
FNDA:1,_RNvNtNtNtCs6JXvGULNGKJ_14darwin_metrics8hardware6memory5testss_21test_usage_percentage
FNDA:1,_RNvNtNtNtCs6JXvGULNGKJ_14darwin_metrics8hardware6memory5testss_22test_custom_thresholds
FNDA:1,_RNvNtNtNtCs6JXvGULNGKJ_14darwin_metrics8hardware6memory5testss_22test_memory_monitoring
FNDA:1,_RNvNtNtNtCs6JXvGULNGKJ_14darwin_metrics8hardware6memory5testss_23test_pressure_callbacks
FNDA:1,_RNvNtNtNtCs6JXvGULNGKJ_14darwin_metrics8hardware6memory5testss_26test_memory_info_functions
FNDA:1,_RNvNtNtNtCs6JXvGULNGKJ_14darwin_metrics8hardware6memory5testss_26test_memory_initialization
FNDA:1,_RNvXs5_NtNtCs6JXvGULNGKJ_14darwin_metrics8hardware6memoryNtB5_19MemoryMonitorHandleNtNtNtCs4P3ALgZxGbJ_4core3ops4drop4Drop4drop
FNDA:0,_RINvMs3_NtNtCsaakIWYUxKbY_14darwin_metrics8hardware6memoryNtB6_6Memory18on_pressure_changepEBa_
FNDA:0,_RNCNCNvMs3_NtNtCsaakIWYUxKbY_14darwin_metrics8hardware6memoryNtB9_6Memory16start_monitoring00Bd_
FNDA:0,_RNCNCNvMs6_NtNtCsaakIWYUxKbY_14darwin_metrics8hardware6memoryNtB9_6Memory12update_async00Bd_
FNDA:0,_RNCNCNvMs6_NtNtCsaakIWYUxKbY_14darwin_metrics8hardware6memoryNtB9_6Memory12update_async0s_0Bd_
FNDA:0,_RNCNCNvMs6_NtNtCsaakIWYUxKbY_14darwin_metrics8hardware6memoryNtB9_6Memory14get_info_async00Bd_
FNDA:0,_RNCNvMs3_NtNtCsaakIWYUxKbY_14darwin_metrics8hardware6memoryNtB7_6Memory16start_monitoring0Bb_
FNDA:0,_RNCNvMs6_NtNtCsaakIWYUxKbY_14darwin_metrics8hardware6memoryNtB7_6Memory12update_async0Bb_
FNDA:0,_RNCNvMs6_NtNtCsaakIWYUxKbY_14darwin_metrics8hardware6memoryNtB7_6Memory14get_info_async0Bb_
FNDA:0,_RNvMs3_NtNtCsaakIWYUxKbY_14darwin_metrics8hardware6memoryNtB5_6Memory11with_values
FNDA:0,_RNvMs3_NtNtCsaakIWYUxKbY_14darwin_metrics8hardware6memoryNtB5_6Memory13get_page_size
FNDA:0,_RNvMs3_NtNtCsaakIWYUxKbY_14darwin_metrics8hardware6memoryNtB5_6Memory13usage_history
FNDA:0,_RNvMs3_NtNtCsaakIWYUxKbY_14darwin_metrics8hardware6memoryNtB5_6Memory14get_swap_usage
FNDA:0,_RNvMs3_NtNtCsaakIWYUxKbY_14darwin_metrics8hardware6memoryNtB5_6Memory14pressure_level
FNDA:0,_RNvMs3_NtNtCsaakIWYUxKbY_14darwin_metrics8hardware6memoryNtB5_6Memory15with_basic_info
FNDA:0,_RNvMs3_NtNtCsaakIWYUxKbY_14darwin_metrics8hardware6memoryNtB5_6Memory16get_total_memory
FNDA:0,_RNvMs3_NtNtCsaakIWYUxKbY_14darwin_metrics8hardware6memoryNtB5_6Memory16start_monitoring
FNDA:0,_RNvMs3_NtNtCsaakIWYUxKbY_14darwin_metrics8hardware6memoryNtB5_6Memory16usage_percentage
FNDA:0,_RNvMs3_NtNtCsaakIWYUxKbY_14darwin_metrics8hardware6memoryNtB5_6Memory17get_vm_statistics
FNDA:0,_RNvMs3_NtNtCsaakIWYUxKbY_14darwin_metrics8hardware6memoryNtB5_6Memory19pressure_percentage
FNDA:0,_RNvMs3_NtNtCsaakIWYUxKbY_14darwin_metrics8hardware6memoryNtB5_6Memory23set_pressure_thresholds
FNDA:0,_RNvMs3_NtNtCsaakIWYUxKbY_14darwin_metrics8hardware6memoryNtB5_6Memory25check_pressure_thresholds
FNDA:0,_RNvMs3_NtNtCsaakIWYUxKbY_14darwin_metrics8hardware6memoryNtB5_6Memory3new
FNDA:0,_RNvMs3_NtNtCsaakIWYUxKbY_14darwin_metrics8hardware6memoryNtB5_6Memory6update
FNDA:0,_RNvMs3_NtNtCsaakIWYUxKbY_14darwin_metrics8hardware6memoryNtB5_6Memory8get_info
FNDA:0,_RNvMs4_NtNtCsaakIWYUxKbY_14darwin_metrics8hardware6memoryNtB5_19MemoryMonitorHandle4stop
FNDA:0,_RNvMs4_NtNtCsaakIWYUxKbY_14darwin_metrics8hardware6memoryNtB5_19MemoryMonitorHandle9is_active
FNDA:0,_RNvMs6_NtNtCsaakIWYUxKbY_14darwin_metrics8hardware6memoryNtB5_6Memory12update_async
FNDA:0,_RNvMs6_NtNtCsaakIWYUxKbY_14darwin_metrics8hardware6memoryNtB5_6Memory14get_info_async
FNDA:0,_RNvXNtNtCsaakIWYUxKbY_14darwin_metrics8hardware6memoryNtB2_13PressureLevelNtNtCs4P3ALgZxGbJ_4core3fmt7Display3fmt
FNDA:0,_RNvXs0_NtNtCsaakIWYUxKbY_14darwin_metrics8hardware6memoryNtB5_6MemoryNtNtCs4P3ALgZxGbJ_4core3fmt5Debug3fmt
FNDA:0,_RNvXs1_NtNtCsaakIWYUxKbY_14darwin_metrics8hardware6memoryNtB5_6MemoryNtNtCs4P3ALgZxGbJ_4core5clone5Clone5clone
FNDA:0,_RNvXs2_NtNtCsaakIWYUxKbY_14darwin_metrics8hardware6memoryNtB5_6MemoryNtNtCs4P3ALgZxGbJ_4core3cmp9PartialEq2eq
FNDA:0,_RNvXs_NtNtCsaakIWYUxKbY_14darwin_metrics8hardware6memoryNtB4_9SwapUsageNtNtCs4P3ALgZxGbJ_4core7default7Default7default
FNDA:0,_RNvXs5_NtNtCsaakIWYUxKbY_14darwin_metrics8hardware6memoryNtB5_19MemoryMonitorHandleNtNtNtCs4P3ALgZxGbJ_4core3ops4drop4Drop4drop
FNF:48
FNH:39
DA:95,0
DA:96,0
DA:97,0
DA:98,0
DA:99,0
DA:101,0
DA:141,27
DA:142,27
DA:143,27
DA:188,0
DA:189,0
DA:190,0
DA:191,0
DA:194,0
DA:195,0
DA:196,0
DA:197,0
DA:198,0
DA:199,0
DA:200,0
DA:201,0
DA:202,0
DA:203,0
DA:204,0
DA:205,0
DA:206,0
DA:207,0
DA:208,0
DA:209,0
DA:210,0
DA:211,0
DA:212,0
DA:216,1
DA:217,1
DA:218,1
DA:219,1
DA:220,1
DA:221,1
DA:222,1
DA:223,1
DA:224,1
DA:225,1
DA:226,1
DA:227,1
DA:228,1
DA:229,1
DA:230,1
DA:231,1
DA:232,1
DA:233,1
DA:234,1
DA:235,1
DA:239,0
DA:240,0
DA:241,0
DA:242,0
DA:243,0
DA:244,0
DA:245,0
DA:246,0
DA:247,0
DA:248,0
DA:249,0
DA:250,0
DA:251,0
DA:252,0
DA:253,0
DA:254,0
DA:255,0
DA:256,0
DA:279,8
DA:280,8
DA:281,8
DA:282,8
DA:283,8
DA:284,8
DA:285,8
DA:286,8
DA:287,8
DA:288,8
DA:289,8
DA:290,8
DA:291,8
DA:292,8
DA:293,8
DA:294,8
DA:295,8
DA:296,8
DA:297,8
DA:298,8
DA:299,8
DA:300,8
DA:301,8
DA:304,0
DA:305,0
DA:306,0
DA:307,0
DA:308,0
DA:309,0
DA:310,0
DA:311,0
DA:312,0
DA:313,0
DA:314,0
DA:315,0
DA:316,0
DA:317,0
DA:318,0
DA:319,0
DA:320,0
DA:321,0
DA:322,0
DA:323,0
DA:324,0
DA:325,0
DA:326,0
DA:327,0
DA:328,0
DA:329,0
DA:330,0
DA:331,0
DA:333,0
DA:334,0
DA:335,0
DA:336,0
DA:337,0
DA:338,0
DA:339,0
DA:340,0
DA:341,0
DA:342,0
DA:343,0
DA:344,0
DA:345,0
DA:346,0
DA:347,0
DA:348,0
DA:349,0
DA:383,14
DA:384,14
DA:386,14
DA:388,14
DA:390,14
DA:391,14
DA:392,14
DA:393,14
DA:394,14
DA:395,14
DA:396,14
DA:397,14
DA:398,14
DA:399,14
DA:400,14
DA:402,14
DA:404,14
DA:405,14
DA:406,14
DA:407,14
DA:408,2
DA:409,2
DA:411,0
DA:414,2
DA:415,2
DA:417,0
DA:420,2
DA:421,2
DA:422,12
DA:424,14
DA:425,0
DA:427,14
DA:430,14
DA:431,14
DA:432,14
DA:433,14
DA:434,14
DA:435,14
DA:436,14
DA:437,14
DA:438,0
DA:439,14
DA:441,14
DA:442,14
DA:443,14
DA:444,14
DA:446,4
DA:447,4
DA:448,4
DA:449,4
DA:450,4
DA:451,4
DA:452,4
DA:453,4
DA:454,4
DA:455,4
DA:456,4
DA:457,4
DA:458,4
DA:459,4
DA:460,4
DA:461,4
DA:462,4
DA:463,4
DA:464,4
DA:465,4
DA:466,4
DA:467,4
DA:468,4
DA:470,15
DA:471,15
DA:472,15
DA:474,0
DA:475,0
DA:476,0
DA:478,16
DA:479,16
DA:480,0
DA:481,16
DA:482,16
DA:484,0
DA:486,16
DA:488,4
DA:489,4
DA:491,3
DA:492,3
DA:493,3
DA:494,3
DA:495,1
DA:496,1
DA:497,1
DA:498,1
DA:499,4
DA:501,1
DA:502,1
DA:503,1
DA:504,1
DA:505,1
DA:506,1
DA:507,1
DA:508,1
DA:510,0
DA:511,0
DA:512,0
DA:514,1
DA:515,1
DA:516,1
DA:517,1
DA:518,1
DA:519,1
DA:520,1
DA:521,1
DA:522,1
DA:524,3
DA:525,3
DA:526,3
DA:527,0
DA:528,3
DA:529,3
DA:531,0
DA:534,3
DA:535,1
DA:536,1
DA:537,0
DA:538,0
DA:539,0
DA:540,1
DA:541,2
DA:542,0
DA:544,3
DA:546,1
DA:547,1
DA:548,1
DA:549,1
DA:551,15
DA:552,15
DA:553,15
DA:554,15
DA:555,15
DA:556,15
DA:557,15
DA:558,15
DA:559,15
DA:560,15
DA:561,15
DA:562,15
DA:563,15
DA:564,15
DA:565,15
DA:566,15
DA:567,15
DA:568,15
DA:569,15
DA:571,0
DA:573,15
DA:575,15
DA:576,15
DA:577,15
DA:579,15
DA:580,15
DA:581,15
DA:582,15
DA:583,15
DA:584,15
DA:585,15
DA:586,15
DA:587,15
DA:588,15
DA:589,15
DA:590,15
DA:591,15
DA:592,15
DA:593,0
DA:594,15
DA:595,15
DA:596,15
DA:597,15
DA:599,15
DA:600,15
DA:601,15
DA:602,15
DA:603,15
DA:604,15
DA:605,15
DA:606,15
DA:607,15
DA:608,15
DA:609,15
DA:610,15
DA:611,15
DA:612,15
DA:613,15
DA:614,15
DA:615,15
DA:616,15
DA:617,15
DA:618,15
DA:620,15
DA:621,15
DA:622,0
DA:623,0
DA:624,0
DA:625,0
DA:626,0
DA:627,0
DA:628,0
DA:629,0
DA:630,0
DA:631,0
DA:633,0
DA:636,15
DA:638,15
DA:639,15
DA:641,15
DA:642,15
DA:643,1
DA:644,1
DA:645,0
DA:646,15
DA:654,2
DA:655,2
DA:656,2
DA:658,2
DA:659,2
DA:660,2
DA:664,1
DA:665,1
DA:666,1
DA:697,1
DA:698,1
DA:699,1
DA:700,1
DA:701,1
DA:702,1
DA:703,1
DA:704,1
DA:705,0
DA:707,1
DA:708,1
DA:709,1
DA:712,1
DA:713,1
DA:714,1
DA:715,1
DA:716,1
DA:717,1
DA:718,1
DA:719,1
DA:720,1
DA:721,1
DA:722,1
DA:723,1
DA:724,1
DA:725,1
DA:727,0
DA:729,1
DA:753,1
DA:754,1
DA:755,1
DA:756,1
DA:757,1
DA:765,1
DA:766,1
DA:767,1
DA:768,1
DA:771,1
DA:772,1
DA:773,1
DA:774,1
DA:775,1
DA:778,1
DA:779,1
DA:780,1
DA:781,1
DA:782,1
DA:783,1
DA:784,1
DA:785,1
DA:786,1
DA:787,1
DA:788,0
DA:792,1
DA:793,1
DA:797,1
DA:798,0
DA:799,0
DA:800,0
DA:802,1
DA:803,1
DA:806,1
DA:807,1
DA:808,1
DA:809,1
DA:810,1
DA:811,1
DA:812,0
DA:815,1
DA:818,1
DA:819,1
DA:820,1
DA:821,1
DA:822,1
DA:823,1
DA:824,1
DA:825,1
DA:826,1
DA:827,1
DA:828,1
DA:829,1
DA:830,1
DA:831,1
DA:832,1
DA:833,1
DA:834,1
DA:835,1
DA:836,1
DA:837,1
DA:840,1
DA:841,1
DA:842,1
DA:843,1
DA:844,1
DA:845,1
DA:848,1
DA:849,1
DA:852,1
DA:853,1
DA:855,1
DA:856,1
DA:857,1
DA:860,1
DA:861,1
DA:862,1
DA:863,1
DA:864,1
DA:866,1
DA:867,1
DA:868,1
DA:870,1
DA:871,1
DA:873,1
DA:874,1
DA:875,1
DA:878,1
DA:879,1
DA:880,1
DA:881,1
DA:882,1
DA:883,1
DA:884,1
DA:885,1
DA:886,1
DA:887,1
DA:888,1
DA:889,1
DA:890,1
DA:891,1
DA:892,1
DA:893,1
DA:896,1
DA:897,1
DA:898,1
DA:899,1
DA:900,1
DA:903,1
DA:904,1
DA:905,1
DA:906,1
DA:907,1
DA:908,1
DA:909,1
BRF:0
BRH:0
LF:538
LH:404
end_of_record
SF:/Users/smeya/git/darwin-metrics/src/hardware/temperature/mod.rs
FN:434,_RNCNCNvMs_NtNtCs6JXvGULNGKJ_14darwin_metrics8hardware11temperatureNtB8_11Temperature13refresh_async00Bc_
FN:463,_RNCNCNvMs_NtNtCs6JXvGULNGKJ_14darwin_metrics8hardware11temperatureNtB8_11Temperature13refresh_async0s0_0Bc_
FN:465,_RNCNCNvMs_NtNtCs6JXvGULNGKJ_14darwin_metrics8hardware11temperatureNtB8_11Temperature13refresh_async0s1_0Bc_
FN:436,_RNCNCNvMs_NtNtCs6JXvGULNGKJ_14darwin_metrics8hardware11temperatureNtB8_11Temperature13refresh_async0s_0Bc_
FN:513,_RNCNCNvMs_NtNtCs6JXvGULNGKJ_14darwin_metrics8hardware11temperatureNtB8_11Temperature19is_throttling_async00Bc_
FN:515,_RNCNCNvMs_NtNtCs6JXvGULNGKJ_14darwin_metrics8hardware11temperatureNtB8_11Temperature19is_throttling_async0s_0Bc_
FN:379,_RNCNCNvMs_NtNtCs6JXvGULNGKJ_14darwin_metrics8hardware11temperatureNtB8_11Temperature21cpu_temperature_async00Bc_
FN:390,_RNCNCNvMs_NtNtCs6JXvGULNGKJ_14darwin_metrics8hardware11temperatureNtB8_11Temperature21gpu_temperature_async00Bc_
FN:412,_RNCNCNvMs_NtNtCs6JXvGULNGKJ_14darwin_metrics8hardware11temperatureNtB8_11Temperature25ambient_temperature_async00Bc_
FN:423,_RNCNCNvMs_NtNtCs6JXvGULNGKJ_14darwin_metrics8hardware11temperatureNtB8_11Temperature25battery_temperature_async00Bc_
FN:401,_RNCNCNvMs_NtNtCs6JXvGULNGKJ_14darwin_metrics8hardware11temperatureNtB8_11Temperature26heatsink_temperature_async00Bc_
FN:429,_RNCNvMs_NtNtCs6JXvGULNGKJ_14darwin_metrics8hardware11temperatureNtB6_11Temperature13refresh_async0Ba_
FN:505,_RNCNvMs_NtNtCs6JXvGULNGKJ_14darwin_metrics8hardware11temperatureNtB6_11Temperature19is_throttling_async0Ba_
FN:374,_RNCNvMs_NtNtCs6JXvGULNGKJ_14darwin_metrics8hardware11temperatureNtB6_11Temperature21cpu_temperature_async0Ba_
FN:385,_RNCNvMs_NtNtCs6JXvGULNGKJ_14darwin_metrics8hardware11temperatureNtB6_11Temperature21gpu_temperature_async0Ba_
FN:297,_RNCNvMs_NtNtCs6JXvGULNGKJ_14darwin_metrics8hardware11temperatureNtB6_11Temperature22get_sensor_temperature0Ba_
FN:407,_RNCNvMs_NtNtCs6JXvGULNGKJ_14darwin_metrics8hardware11temperatureNtB6_11Temperature25ambient_temperature_async0Ba_
FN:418,_RNCNvMs_NtNtCs6JXvGULNGKJ_14darwin_metrics8hardware11temperatureNtB6_11Temperature25battery_temperature_async0Ba_
FN:487,_RNCNvMs_NtNtCs6JXvGULNGKJ_14darwin_metrics8hardware11temperatureNtB6_11Temperature25get_thermal_metrics_async0Ba_
FN:396,_RNCNvMs_NtNtCs6JXvGULNGKJ_14darwin_metrics8hardware11temperatureNtB6_11Temperature26heatsink_temperature_async0Ba_
FN:335,_RNCNvMs_NtNtCs6JXvGULNGKJ_14darwin_metrics8hardware11temperatureNtB6_11Temperature9cpu_power0Ba_
FN:341,_RNvMs_NtNtCs6JXvGULNGKJ_14darwin_metrics8hardware11temperatureNtB4_11Temperature13is_throttling
FN:429,_RNvMs_NtNtCs6JXvGULNGKJ_14darwin_metrics8hardware11temperatureNtB4_11Temperature13refresh_async
FN:505,_RNvMs_NtNtCs6JXvGULNGKJ_14darwin_metrics8hardware11temperatureNtB4_11Temperature19is_throttling_async
FN:374,_RNvMs_NtNtCs6JXvGULNGKJ_14darwin_metrics8hardware11temperatureNtB4_11Temperature21cpu_temperature_async
FN:385,_RNvMs_NtNtCs6JXvGULNGKJ_14darwin_metrics8hardware11temperatureNtB4_11Temperature21gpu_temperature_async
FN:289,_RNvMs_NtNtCs6JXvGULNGKJ_14darwin_metrics8hardware11temperatureNtB4_11Temperature22get_sensor_temperature
FN:407,_RNvMs_NtNtCs6JXvGULNGKJ_14darwin_metrics8hardware11temperatureNtB4_11Temperature25ambient_temperature_async
FN:418,_RNvMs_NtNtCs6JXvGULNGKJ_14darwin_metrics8hardware11temperatureNtB4_11Temperature25battery_temperature_async
FN:487,_RNvMs_NtNtCs6JXvGULNGKJ_14darwin_metrics8hardware11temperatureNtB4_11Temperature25get_thermal_metrics_async
FN:396,_RNvMs_NtNtCs6JXvGULNGKJ_14darwin_metrics8hardware11temperatureNtB4_11Temperature26heatsink_temperature_async
FN:330,_RNvMs_NtNtCs6JXvGULNGKJ_14darwin_metrics8hardware11temperatureNtB4_11Temperature9cpu_power
FN:549,_RNvXs0_NtNtCs6JXvGULNGKJ_14darwin_metrics8hardware11temperatureNtB5_11TemperatureNtNtCs4P3ALgZxGbJ_4core7default7Default7default
FN:214,_RNCNvMs_NtNtCs6JXvGULNGKJ_14darwin_metrics8hardware11temperatureNtB6_11Temperature15cpu_temperature0Ba_
FN:225,_RNCNvMs_NtNtCs6JXvGULNGKJ_14darwin_metrics8hardware11temperatureNtB6_11Temperature15gpu_temperature0Ba_
FN:247,_RNCNvMs_NtNtCs6JXvGULNGKJ_14darwin_metrics8hardware11temperatureNtB6_11Temperature19ambient_temperature0Ba_
FN:258,_RNCNvMs_NtNtCs6JXvGULNGKJ_14darwin_metrics8hardware11temperatureNtB6_11Temperature19battery_temperature0Ba_
FN:236,_RNCNvMs_NtNtCs6JXvGULNGKJ_14darwin_metrics8hardware11temperatureNtB6_11Temperature20heatsink_temperature0Ba_
FN:326,_RNCNvMs_NtNtCs6JXvGULNGKJ_14darwin_metrics8hardware11temperatureNtB6_11Temperature7get_fan0Ba_
FN:103,_RNvMs_NtNtCs6JXvGULNGKJ_14darwin_metrics8hardware11temperatureNtB4_11Temperature11with_config
FN:264,_RNvMs_NtNtCs6JXvGULNGKJ_14darwin_metrics8hardware11temperatureNtB4_11Temperature12list_sensors
FN:116,_RNvMs_NtNtCs6JXvGULNGKJ_14darwin_metrics8hardware11temperatureNtB4_11Temperature14should_refresh
FN:209,_RNvMs_NtNtCs6JXvGULNGKJ_14darwin_metrics8hardware11temperatureNtB4_11Temperature15cpu_temperature
FN:220,_RNvMs_NtNtCs6JXvGULNGKJ_14darwin_metrics8hardware11temperatureNtB4_11Temperature15gpu_temperature
FN:242,_RNvMs_NtNtCs6JXvGULNGKJ_14darwin_metrics8hardware11temperatureNtB4_11Temperature19ambient_temperature
FN:253,_RNvMs_NtNtCs6JXvGULNGKJ_14darwin_metrics8hardware11temperatureNtB4_11Temperature19battery_temperature
FN:357,_RNvMs_NtNtCs6JXvGULNGKJ_14darwin_metrics8hardware11temperatureNtB4_11Temperature19get_thermal_metrics
FN:231,_RNvMs_NtNtCs6JXvGULNGKJ_14darwin_metrics8hardware11temperatureNtB4_11Temperature20heatsink_temperature
FN:90,_RNvMs_NtNtCs6JXvGULNGKJ_14darwin_metrics8hardware11temperatureNtB4_11Temperature3new
FN:319,_RNvMs_NtNtCs6JXvGULNGKJ_14darwin_metrics8hardware11temperatureNtB4_11Temperature7get_fan
FN:121,_RNvMs_NtNtCs6JXvGULNGKJ_14darwin_metrics8hardware11temperatureNtB4_11Temperature7refresh
FN:310,_RNvMs_NtNtCs6JXvGULNGKJ_14darwin_metrics8hardware11temperatureNtB4_11Temperature8get_fans
FN:301,_RNvMs_NtNtCs6JXvGULNGKJ_14darwin_metrics8hardware11temperatureNtB4_11Temperature9fan_count
FN:59,_RNvXNtNtCs6JXvGULNGKJ_14darwin_metrics8hardware11temperatureNtB2_17TemperatureConfigNtNtCs4P3ALgZxGbJ_4core7default7Default7default
FN:682,_RNCNvNtNtNtCs6JXvGULNGKJ_14darwin_metrics8hardware11temperature5testss_17test_list_sensors0B9_
FN:686,_RNCNvNtNtNtCs6JXvGULNGKJ_14darwin_metrics8hardware11temperature5testss_17test_list_sensorss0_0B9_
FN:689,_RNCNvNtNtNtCs6JXvGULNGKJ_14darwin_metrics8hardware11temperature5testss_17test_list_sensorss1_0B9_
FN:692,_RNCNvNtNtNtCs6JXvGULNGKJ_14darwin_metrics8hardware11temperature5testss_17test_list_sensorss2_0B9_
FN:685,_RNCNvNtNtNtCs6JXvGULNGKJ_14darwin_metrics8hardware11temperature5testss_17test_list_sensorss_0B9_
FN:570,_RNvNtNtNtCs6JXvGULNGKJ_14darwin_metrics8hardware11temperature5testss_16test_with_config
FN:659,_RNvNtNtNtCs6JXvGULNGKJ_14darwin_metrics8hardware11temperature5testss_17test_list_sensors
FN:709,_RNvNtNtNtCs6JXvGULNGKJ_14darwin_metrics8hardware11temperature5testss_18test_fan_functions
FN:584,_RNvNtNtNtCs6JXvGULNGKJ_14darwin_metrics8hardware11temperature5testss_19test_should_refresh
FN:606,_RNvNtNtNtCs6JXvGULNGKJ_14darwin_metrics8hardware11temperature5testss_20test_cpu_temperature
FN:623,_RNvNtNtNtCs6JXvGULNGKJ_14darwin_metrics8hardware11temperature5testss_20test_gpu_temperature
FN:561,_RNvNtNtNtCs6JXvGULNGKJ_14darwin_metrics8hardware11temperature5testss_20test_temperature_new
FN:639,_RNvNtNtNtCs6JXvGULNGKJ_14darwin_metrics8hardware11temperature5testss_23test_additional_sensors
FN:790,_RNvNtNtNtCs6JXvGULNGKJ_14darwin_metrics8hardware11temperature5testss_24test_get_thermal_metrics
FN:759,_RNvNtNtNtCs6JXvGULNGKJ_14darwin_metrics8hardware11temperature5testss_27test_is_throttling_property
FN:775,_RNvNtNtNtCs6JXvGULNGKJ_14darwin_metrics8hardware11temperature5testss_40test_is_throttling_temperature_heuristic
FN:214,_RNCNvMs_NtNtCsaakIWYUxKbY_14darwin_metrics8hardware11temperatureNtB6_11Temperature15cpu_temperature0Ba_
FN:225,_RNCNvMs_NtNtCsaakIWYUxKbY_14darwin_metrics8hardware11temperatureNtB6_11Temperature15gpu_temperature0Ba_
FN:247,_RNCNvMs_NtNtCsaakIWYUxKbY_14darwin_metrics8hardware11temperatureNtB6_11Temperature19ambient_temperature0Ba_
FN:258,_RNCNvMs_NtNtCsaakIWYUxKbY_14darwin_metrics8hardware11temperatureNtB6_11Temperature19battery_temperature0Ba_
FN:236,_RNCNvMs_NtNtCsaakIWYUxKbY_14darwin_metrics8hardware11temperatureNtB6_11Temperature20heatsink_temperature0Ba_
FN:297,_RNCNvMs_NtNtCsaakIWYUxKbY_14darwin_metrics8hardware11temperatureNtB6_11Temperature22get_sensor_temperature0Ba_
FN:326,_RNCNvMs_NtNtCsaakIWYUxKbY_14darwin_metrics8hardware11temperatureNtB6_11Temperature7get_fan0Ba_
FN:335,_RNCNvMs_NtNtCsaakIWYUxKbY_14darwin_metrics8hardware11temperatureNtB6_11Temperature9cpu_power0Ba_
FN:103,_RNvMs_NtNtCsaakIWYUxKbY_14darwin_metrics8hardware11temperatureNtB4_11Temperature11with_config
FN:264,_RNvMs_NtNtCsaakIWYUxKbY_14darwin_metrics8hardware11temperatureNtB4_11Temperature12list_sensors
FN:341,_RNvMs_NtNtCsaakIWYUxKbY_14darwin_metrics8hardware11temperatureNtB4_11Temperature13is_throttling
FN:429,_RNvMs_NtNtCsaakIWYUxKbY_14darwin_metrics8hardware11temperatureNtB4_11Temperature13refresh_async
FN:116,_RNvMs_NtNtCsaakIWYUxKbY_14darwin_metrics8hardware11temperatureNtB4_11Temperature14should_refresh
FN:209,_RNvMs_NtNtCsaakIWYUxKbY_14darwin_metrics8hardware11temperatureNtB4_11Temperature15cpu_temperature
FN:220,_RNvMs_NtNtCsaakIWYUxKbY_14darwin_metrics8hardware11temperatureNtB4_11Temperature15gpu_temperature
FN:242,_RNvMs_NtNtCsaakIWYUxKbY_14darwin_metrics8hardware11temperatureNtB4_11Temperature19ambient_temperature
FN:253,_RNvMs_NtNtCsaakIWYUxKbY_14darwin_metrics8hardware11temperatureNtB4_11Temperature19battery_temperature
FN:357,_RNvMs_NtNtCsaakIWYUxKbY_14darwin_metrics8hardware11temperatureNtB4_11Temperature19get_thermal_metrics
FN:505,_RNvMs_NtNtCsaakIWYUxKbY_14darwin_metrics8hardware11temperatureNtB4_11Temperature19is_throttling_async
FN:231,_RNvMs_NtNtCsaakIWYUxKbY_14darwin_metrics8hardware11temperatureNtB4_11Temperature20heatsink_temperature
FN:374,_RNvMs_NtNtCsaakIWYUxKbY_14darwin_metrics8hardware11temperatureNtB4_11Temperature21cpu_temperature_async
FN:385,_RNvMs_NtNtCsaakIWYUxKbY_14darwin_metrics8hardware11temperatureNtB4_11Temperature21gpu_temperature_async
FN:289,_RNvMs_NtNtCsaakIWYUxKbY_14darwin_metrics8hardware11temperatureNtB4_11Temperature22get_sensor_temperature
FN:407,_RNvMs_NtNtCsaakIWYUxKbY_14darwin_metrics8hardware11temperatureNtB4_11Temperature25ambient_temperature_async
FN:418,_RNvMs_NtNtCsaakIWYUxKbY_14darwin_metrics8hardware11temperatureNtB4_11Temperature25battery_temperature_async
FN:487,_RNvMs_NtNtCsaakIWYUxKbY_14darwin_metrics8hardware11temperatureNtB4_11Temperature25get_thermal_metrics_async
FN:396,_RNvMs_NtNtCsaakIWYUxKbY_14darwin_metrics8hardware11temperatureNtB4_11Temperature26heatsink_temperature_async
FN:90,_RNvMs_NtNtCsaakIWYUxKbY_14darwin_metrics8hardware11temperatureNtB4_11Temperature3new
FN:319,_RNvMs_NtNtCsaakIWYUxKbY_14darwin_metrics8hardware11temperatureNtB4_11Temperature7get_fan
FN:121,_RNvMs_NtNtCsaakIWYUxKbY_14darwin_metrics8hardware11temperatureNtB4_11Temperature7refresh
FN:310,_RNvMs_NtNtCsaakIWYUxKbY_14darwin_metrics8hardware11temperatureNtB4_11Temperature8get_fans
FN:330,_RNvMs_NtNtCsaakIWYUxKbY_14darwin_metrics8hardware11temperatureNtB4_11Temperature9cpu_power
FN:301,_RNvMs_NtNtCsaakIWYUxKbY_14darwin_metrics8hardware11temperatureNtB4_11Temperature9fan_count
FN:59,_RNvXNtNtCsaakIWYUxKbY_14darwin_metrics8hardware11temperatureNtB2_17TemperatureConfigNtNtCs4P3ALgZxGbJ_4core7default7Default7default
FN:549,_RNvXs0_NtNtCsaakIWYUxKbY_14darwin_metrics8hardware11temperatureNtB5_11TemperatureNtNtCs4P3ALgZxGbJ_4core7default7Default7default
FN:434,_RNCNCNvMs_NtNtCsaakIWYUxKbY_14darwin_metrics8hardware11temperatureNtB8_11Temperature13refresh_async00Bc_
FN:463,_RNCNCNvMs_NtNtCsaakIWYUxKbY_14darwin_metrics8hardware11temperatureNtB8_11Temperature13refresh_async0s0_0Bc_
FN:465,_RNCNCNvMs_NtNtCsaakIWYUxKbY_14darwin_metrics8hardware11temperatureNtB8_11Temperature13refresh_async0s1_0Bc_
FN:436,_RNCNCNvMs_NtNtCsaakIWYUxKbY_14darwin_metrics8hardware11temperatureNtB8_11Temperature13refresh_async0s_0Bc_
FN:513,_RNCNCNvMs_NtNtCsaakIWYUxKbY_14darwin_metrics8hardware11temperatureNtB8_11Temperature19is_throttling_async00Bc_
FN:515,_RNCNCNvMs_NtNtCsaakIWYUxKbY_14darwin_metrics8hardware11temperatureNtB8_11Temperature19is_throttling_async0s_0Bc_
FN:379,_RNCNCNvMs_NtNtCsaakIWYUxKbY_14darwin_metrics8hardware11temperatureNtB8_11Temperature21cpu_temperature_async00Bc_
FN:390,_RNCNCNvMs_NtNtCsaakIWYUxKbY_14darwin_metrics8hardware11temperatureNtB8_11Temperature21gpu_temperature_async00Bc_
FN:412,_RNCNCNvMs_NtNtCsaakIWYUxKbY_14darwin_metrics8hardware11temperatureNtB8_11Temperature25ambient_temperature_async00Bc_
FN:423,_RNCNCNvMs_NtNtCsaakIWYUxKbY_14darwin_metrics8hardware11temperatureNtB8_11Temperature25battery_temperature_async00Bc_
FN:401,_RNCNCNvMs_NtNtCsaakIWYUxKbY_14darwin_metrics8hardware11temperatureNtB8_11Temperature26heatsink_temperature_async00Bc_
FN:429,_RNCNvMs_NtNtCsaakIWYUxKbY_14darwin_metrics8hardware11temperatureNtB6_11Temperature13refresh_async0Ba_
FN:505,_RNCNvMs_NtNtCsaakIWYUxKbY_14darwin_metrics8hardware11temperatureNtB6_11Temperature19is_throttling_async0Ba_
FN:374,_RNCNvMs_NtNtCsaakIWYUxKbY_14darwin_metrics8hardware11temperatureNtB6_11Temperature21cpu_temperature_async0Ba_
FN:385,_RNCNvMs_NtNtCsaakIWYUxKbY_14darwin_metrics8hardware11temperatureNtB6_11Temperature21gpu_temperature_async0Ba_
FN:407,_RNCNvMs_NtNtCsaakIWYUxKbY_14darwin_metrics8hardware11temperatureNtB6_11Temperature25ambient_temperature_async0Ba_
FN:418,_RNCNvMs_NtNtCsaakIWYUxKbY_14darwin_metrics8hardware11temperatureNtB6_11Temperature25battery_temperature_async0Ba_
FN:487,_RNCNvMs_NtNtCsaakIWYUxKbY_14darwin_metrics8hardware11temperatureNtB6_11Temperature25get_thermal_metrics_async0Ba_
FN:396,_RNCNvMs_NtNtCsaakIWYUxKbY_14darwin_metrics8hardware11temperatureNtB6_11Temperature26heatsink_temperature_async0Ba_
FNDA:0,_RNCNCNvMs_NtNtCs6JXvGULNGKJ_14darwin_metrics8hardware11temperatureNtB8_11Temperature13refresh_async00Bc_
FNDA:0,_RNCNCNvMs_NtNtCs6JXvGULNGKJ_14darwin_metrics8hardware11temperatureNtB8_11Temperature13refresh_async0s0_0Bc_
FNDA:0,_RNCNCNvMs_NtNtCs6JXvGULNGKJ_14darwin_metrics8hardware11temperatureNtB8_11Temperature13refresh_async0s1_0Bc_
FNDA:0,_RNCNCNvMs_NtNtCs6JXvGULNGKJ_14darwin_metrics8hardware11temperatureNtB8_11Temperature13refresh_async0s_0Bc_
FNDA:0,_RNCNCNvMs_NtNtCs6JXvGULNGKJ_14darwin_metrics8hardware11temperatureNtB8_11Temperature19is_throttling_async00Bc_
FNDA:0,_RNCNCNvMs_NtNtCs6JXvGULNGKJ_14darwin_metrics8hardware11temperatureNtB8_11Temperature19is_throttling_async0s_0Bc_
FNDA:0,_RNCNCNvMs_NtNtCs6JXvGULNGKJ_14darwin_metrics8hardware11temperatureNtB8_11Temperature21cpu_temperature_async00Bc_
FNDA:0,_RNCNCNvMs_NtNtCs6JXvGULNGKJ_14darwin_metrics8hardware11temperatureNtB8_11Temperature21gpu_temperature_async00Bc_
FNDA:0,_RNCNCNvMs_NtNtCs6JXvGULNGKJ_14darwin_metrics8hardware11temperatureNtB8_11Temperature25ambient_temperature_async00Bc_
FNDA:0,_RNCNCNvMs_NtNtCs6JXvGULNGKJ_14darwin_metrics8hardware11temperatureNtB8_11Temperature25battery_temperature_async00Bc_
FNDA:0,_RNCNCNvMs_NtNtCs6JXvGULNGKJ_14darwin_metrics8hardware11temperatureNtB8_11Temperature26heatsink_temperature_async00Bc_
FNDA:0,_RNCNvMs_NtNtCs6JXvGULNGKJ_14darwin_metrics8hardware11temperatureNtB6_11Temperature13refresh_async0Ba_
FNDA:0,_RNCNvMs_NtNtCs6JXvGULNGKJ_14darwin_metrics8hardware11temperatureNtB6_11Temperature19is_throttling_async0Ba_
FNDA:0,_RNCNvMs_NtNtCs6JXvGULNGKJ_14darwin_metrics8hardware11temperatureNtB6_11Temperature21cpu_temperature_async0Ba_
FNDA:0,_RNCNvMs_NtNtCs6JXvGULNGKJ_14darwin_metrics8hardware11temperatureNtB6_11Temperature21gpu_temperature_async0Ba_
FNDA:0,_RNCNvMs_NtNtCs6JXvGULNGKJ_14darwin_metrics8hardware11temperatureNtB6_11Temperature22get_sensor_temperature0Ba_
FNDA:0,_RNCNvMs_NtNtCs6JXvGULNGKJ_14darwin_metrics8hardware11temperatureNtB6_11Temperature25ambient_temperature_async0Ba_
FNDA:0,_RNCNvMs_NtNtCs6JXvGULNGKJ_14darwin_metrics8hardware11temperatureNtB6_11Temperature25battery_temperature_async0Ba_
FNDA:0,_RNCNvMs_NtNtCs6JXvGULNGKJ_14darwin_metrics8hardware11temperatureNtB6_11Temperature25get_thermal_metrics_async0Ba_
FNDA:0,_RNCNvMs_NtNtCs6JXvGULNGKJ_14darwin_metrics8hardware11temperatureNtB6_11Temperature26heatsink_temperature_async0Ba_
FNDA:0,_RNCNvMs_NtNtCs6JXvGULNGKJ_14darwin_metrics8hardware11temperatureNtB6_11Temperature9cpu_power0Ba_
FNDA:0,_RNvMs_NtNtCs6JXvGULNGKJ_14darwin_metrics8hardware11temperatureNtB4_11Temperature13is_throttling
FNDA:0,_RNvMs_NtNtCs6JXvGULNGKJ_14darwin_metrics8hardware11temperatureNtB4_11Temperature13refresh_async
FNDA:0,_RNvMs_NtNtCs6JXvGULNGKJ_14darwin_metrics8hardware11temperatureNtB4_11Temperature19is_throttling_async
FNDA:0,_RNvMs_NtNtCs6JXvGULNGKJ_14darwin_metrics8hardware11temperatureNtB4_11Temperature21cpu_temperature_async
FNDA:0,_RNvMs_NtNtCs6JXvGULNGKJ_14darwin_metrics8hardware11temperatureNtB4_11Temperature21gpu_temperature_async
FNDA:0,_RNvMs_NtNtCs6JXvGULNGKJ_14darwin_metrics8hardware11temperatureNtB4_11Temperature22get_sensor_temperature
FNDA:0,_RNvMs_NtNtCs6JXvGULNGKJ_14darwin_metrics8hardware11temperatureNtB4_11Temperature25ambient_temperature_async
FNDA:0,_RNvMs_NtNtCs6JXvGULNGKJ_14darwin_metrics8hardware11temperatureNtB4_11Temperature25battery_temperature_async
FNDA:0,_RNvMs_NtNtCs6JXvGULNGKJ_14darwin_metrics8hardware11temperatureNtB4_11Temperature25get_thermal_metrics_async
FNDA:0,_RNvMs_NtNtCs6JXvGULNGKJ_14darwin_metrics8hardware11temperatureNtB4_11Temperature26heatsink_temperature_async
FNDA:0,_RNvMs_NtNtCs6JXvGULNGKJ_14darwin_metrics8hardware11temperatureNtB4_11Temperature9cpu_power
FNDA:0,_RNvXs0_NtNtCs6JXvGULNGKJ_14darwin_metrics8hardware11temperatureNtB5_11TemperatureNtNtCs4P3ALgZxGbJ_4core7default7Default7default
FNDA:0,_RNCNvMs_NtNtCs6JXvGULNGKJ_14darwin_metrics8hardware11temperatureNtB6_11Temperature15cpu_temperature0Ba_
FNDA:0,_RNCNvMs_NtNtCs6JXvGULNGKJ_14darwin_metrics8hardware11temperatureNtB6_11Temperature15gpu_temperature0Ba_
FNDA:0,_RNCNvMs_NtNtCs6JXvGULNGKJ_14darwin_metrics8hardware11temperatureNtB6_11Temperature19ambient_temperature0Ba_
FNDA:0,_RNCNvMs_NtNtCs6JXvGULNGKJ_14darwin_metrics8hardware11temperatureNtB6_11Temperature19battery_temperature0Ba_
FNDA:0,_RNCNvMs_NtNtCs6JXvGULNGKJ_14darwin_metrics8hardware11temperatureNtB6_11Temperature20heatsink_temperature0Ba_
FNDA:1,_RNCNvMs_NtNtCs6JXvGULNGKJ_14darwin_metrics8hardware11temperatureNtB6_11Temperature7get_fan0Ba_
FNDA:8,_RNvMs_NtNtCs6JXvGULNGKJ_14darwin_metrics8hardware11temperatureNtB4_11Temperature11with_config
FNDA:1,_RNvMs_NtNtCs6JXvGULNGKJ_14darwin_metrics8hardware11temperatureNtB4_11Temperature12list_sensors
FNDA:3,_RNvMs_NtNtCs6JXvGULNGKJ_14darwin_metrics8hardware11temperatureNtB4_11Temperature14should_refresh
FNDA:1,_RNvMs_NtNtCs6JXvGULNGKJ_14darwin_metrics8hardware11temperatureNtB4_11Temperature15cpu_temperature
FNDA:1,_RNvMs_NtNtCs6JXvGULNGKJ_14darwin_metrics8hardware11temperatureNtB4_11Temperature15gpu_temperature
FNDA:1,_RNvMs_NtNtCs6JXvGULNGKJ_14darwin_metrics8hardware11temperatureNtB4_11Temperature19ambient_temperature
FNDA:1,_RNvMs_NtNtCs6JXvGULNGKJ_14darwin_metrics8hardware11temperatureNtB4_11Temperature19battery_temperature
FNDA:1,_RNvMs_NtNtCs6JXvGULNGKJ_14darwin_metrics8hardware11temperatureNtB4_11Temperature19get_thermal_metrics
FNDA:1,_RNvMs_NtNtCs6JXvGULNGKJ_14darwin_metrics8hardware11temperatureNtB4_11Temperature20heatsink_temperature
FNDA:3,_RNvMs_NtNtCs6JXvGULNGKJ_14darwin_metrics8hardware11temperatureNtB4_11Temperature3new
FNDA:3,_RNvMs_NtNtCs6JXvGULNGKJ_14darwin_metrics8hardware11temperatureNtB4_11Temperature7get_fan
FNDA:1,_RNvMs_NtNtCs6JXvGULNGKJ_14darwin_metrics8hardware11temperatureNtB4_11Temperature7refresh
FNDA:1,_RNvMs_NtNtCs6JXvGULNGKJ_14darwin_metrics8hardware11temperatureNtB4_11Temperature8get_fans
FNDA:1,_RNvMs_NtNtCs6JXvGULNGKJ_14darwin_metrics8hardware11temperatureNtB4_11Temperature9fan_count
FNDA:3,_RNvXNtNtCs6JXvGULNGKJ_14darwin_metrics8hardware11temperatureNtB2_17TemperatureConfigNtNtCs4P3ALgZxGbJ_4core7default7Default7default
FNDA:4,_RNCNvNtNtNtCs6JXvGULNGKJ_14darwin_metrics8hardware11temperature5testss_17test_list_sensors0B9_
FNDA:1,_RNCNvNtNtNtCs6JXvGULNGKJ_14darwin_metrics8hardware11temperature5testss_17test_list_sensorss0_0B9_
FNDA:2,_RNCNvNtNtNtCs6JXvGULNGKJ_14darwin_metrics8hardware11temperature5testss_17test_list_sensorss1_0B9_
FNDA:5,_RNCNvNtNtNtCs6JXvGULNGKJ_14darwin_metrics8hardware11temperature5testss_17test_list_sensorss2_0B9_
FNDA:3,_RNCNvNtNtNtCs6JXvGULNGKJ_14darwin_metrics8hardware11temperature5testss_17test_list_sensorss_0B9_
FNDA:1,_RNvNtNtNtCs6JXvGULNGKJ_14darwin_metrics8hardware11temperature5testss_16test_with_config
FNDA:1,_RNvNtNtNtCs6JXvGULNGKJ_14darwin_metrics8hardware11temperature5testss_17test_list_sensors
FNDA:1,_RNvNtNtNtCs6JXvGULNGKJ_14darwin_metrics8hardware11temperature5testss_18test_fan_functions
FNDA:1,_RNvNtNtNtCs6JXvGULNGKJ_14darwin_metrics8hardware11temperature5testss_19test_should_refresh
FNDA:1,_RNvNtNtNtCs6JXvGULNGKJ_14darwin_metrics8hardware11temperature5testss_20test_cpu_temperature
FNDA:1,_RNvNtNtNtCs6JXvGULNGKJ_14darwin_metrics8hardware11temperature5testss_20test_gpu_temperature
FNDA:1,_RNvNtNtNtCs6JXvGULNGKJ_14darwin_metrics8hardware11temperature5testss_20test_temperature_new
FNDA:1,_RNvNtNtNtCs6JXvGULNGKJ_14darwin_metrics8hardware11temperature5testss_23test_additional_sensors
FNDA:1,_RNvNtNtNtCs6JXvGULNGKJ_14darwin_metrics8hardware11temperature5testss_24test_get_thermal_metrics
FNDA:1,_RNvNtNtNtCs6JXvGULNGKJ_14darwin_metrics8hardware11temperature5testss_27test_is_throttling_property
FNDA:1,_RNvNtNtNtCs6JXvGULNGKJ_14darwin_metrics8hardware11temperature5testss_40test_is_throttling_temperature_heuristic
FNDA:0,_RNCNvMs_NtNtCsaakIWYUxKbY_14darwin_metrics8hardware11temperatureNtB6_11Temperature15cpu_temperature0Ba_
FNDA:0,_RNCNvMs_NtNtCsaakIWYUxKbY_14darwin_metrics8hardware11temperatureNtB6_11Temperature15gpu_temperature0Ba_
FNDA:0,_RNCNvMs_NtNtCsaakIWYUxKbY_14darwin_metrics8hardware11temperatureNtB6_11Temperature19ambient_temperature0Ba_
FNDA:0,_RNCNvMs_NtNtCsaakIWYUxKbY_14darwin_metrics8hardware11temperatureNtB6_11Temperature19battery_temperature0Ba_
FNDA:0,_RNCNvMs_NtNtCsaakIWYUxKbY_14darwin_metrics8hardware11temperatureNtB6_11Temperature20heatsink_temperature0Ba_
FNDA:0,_RNCNvMs_NtNtCsaakIWYUxKbY_14darwin_metrics8hardware11temperatureNtB6_11Temperature22get_sensor_temperature0Ba_
FNDA:0,_RNCNvMs_NtNtCsaakIWYUxKbY_14darwin_metrics8hardware11temperatureNtB6_11Temperature7get_fan0Ba_
FNDA:0,_RNCNvMs_NtNtCsaakIWYUxKbY_14darwin_metrics8hardware11temperatureNtB6_11Temperature9cpu_power0Ba_
FNDA:0,_RNvMs_NtNtCsaakIWYUxKbY_14darwin_metrics8hardware11temperatureNtB4_11Temperature11with_config
FNDA:0,_RNvMs_NtNtCsaakIWYUxKbY_14darwin_metrics8hardware11temperatureNtB4_11Temperature12list_sensors
FNDA:0,_RNvMs_NtNtCsaakIWYUxKbY_14darwin_metrics8hardware11temperatureNtB4_11Temperature13is_throttling
FNDA:0,_RNvMs_NtNtCsaakIWYUxKbY_14darwin_metrics8hardware11temperatureNtB4_11Temperature13refresh_async
FNDA:0,_RNvMs_NtNtCsaakIWYUxKbY_14darwin_metrics8hardware11temperatureNtB4_11Temperature14should_refresh
FNDA:0,_RNvMs_NtNtCsaakIWYUxKbY_14darwin_metrics8hardware11temperatureNtB4_11Temperature15cpu_temperature
FNDA:0,_RNvMs_NtNtCsaakIWYUxKbY_14darwin_metrics8hardware11temperatureNtB4_11Temperature15gpu_temperature
FNDA:0,_RNvMs_NtNtCsaakIWYUxKbY_14darwin_metrics8hardware11temperatureNtB4_11Temperature19ambient_temperature
FNDA:0,_RNvMs_NtNtCsaakIWYUxKbY_14darwin_metrics8hardware11temperatureNtB4_11Temperature19battery_temperature
FNDA:0,_RNvMs_NtNtCsaakIWYUxKbY_14darwin_metrics8hardware11temperatureNtB4_11Temperature19get_thermal_metrics
FNDA:0,_RNvMs_NtNtCsaakIWYUxKbY_14darwin_metrics8hardware11temperatureNtB4_11Temperature19is_throttling_async
FNDA:0,_RNvMs_NtNtCsaakIWYUxKbY_14darwin_metrics8hardware11temperatureNtB4_11Temperature20heatsink_temperature
FNDA:0,_RNvMs_NtNtCsaakIWYUxKbY_14darwin_metrics8hardware11temperatureNtB4_11Temperature21cpu_temperature_async
FNDA:0,_RNvMs_NtNtCsaakIWYUxKbY_14darwin_metrics8hardware11temperatureNtB4_11Temperature21gpu_temperature_async
FNDA:0,_RNvMs_NtNtCsaakIWYUxKbY_14darwin_metrics8hardware11temperatureNtB4_11Temperature22get_sensor_temperature
FNDA:0,_RNvMs_NtNtCsaakIWYUxKbY_14darwin_metrics8hardware11temperatureNtB4_11Temperature25ambient_temperature_async
FNDA:0,_RNvMs_NtNtCsaakIWYUxKbY_14darwin_metrics8hardware11temperatureNtB4_11Temperature25battery_temperature_async
FNDA:0,_RNvMs_NtNtCsaakIWYUxKbY_14darwin_metrics8hardware11temperatureNtB4_11Temperature25get_thermal_metrics_async
FNDA:0,_RNvMs_NtNtCsaakIWYUxKbY_14darwin_metrics8hardware11temperatureNtB4_11Temperature26heatsink_temperature_async
FNDA:0,_RNvMs_NtNtCsaakIWYUxKbY_14darwin_metrics8hardware11temperatureNtB4_11Temperature3new
FNDA:0,_RNvMs_NtNtCsaakIWYUxKbY_14darwin_metrics8hardware11temperatureNtB4_11Temperature7get_fan
FNDA:0,_RNvMs_NtNtCsaakIWYUxKbY_14darwin_metrics8hardware11temperatureNtB4_11Temperature7refresh
FNDA:0,_RNvMs_NtNtCsaakIWYUxKbY_14darwin_metrics8hardware11temperatureNtB4_11Temperature8get_fans
FNDA:0,_RNvMs_NtNtCsaakIWYUxKbY_14darwin_metrics8hardware11temperatureNtB4_11Temperature9cpu_power
FNDA:0,_RNvMs_NtNtCsaakIWYUxKbY_14darwin_metrics8hardware11temperatureNtB4_11Temperature9fan_count
FNDA:0,_RNvXNtNtCsaakIWYUxKbY_14darwin_metrics8hardware11temperatureNtB2_17TemperatureConfigNtNtCs4P3ALgZxGbJ_4core7default7Default7default
FNDA:0,_RNvXs0_NtNtCsaakIWYUxKbY_14darwin_metrics8hardware11temperatureNtB5_11TemperatureNtNtCs4P3ALgZxGbJ_4core7default7Default7default
FNDA:0,_RNCNCNvMs_NtNtCsaakIWYUxKbY_14darwin_metrics8hardware11temperatureNtB8_11Temperature13refresh_async00Bc_
FNDA:0,_RNCNCNvMs_NtNtCsaakIWYUxKbY_14darwin_metrics8hardware11temperatureNtB8_11Temperature13refresh_async0s0_0Bc_
FNDA:0,_RNCNCNvMs_NtNtCsaakIWYUxKbY_14darwin_metrics8hardware11temperatureNtB8_11Temperature13refresh_async0s1_0Bc_
FNDA:0,_RNCNCNvMs_NtNtCsaakIWYUxKbY_14darwin_metrics8hardware11temperatureNtB8_11Temperature13refresh_async0s_0Bc_
FNDA:0,_RNCNCNvMs_NtNtCsaakIWYUxKbY_14darwin_metrics8hardware11temperatureNtB8_11Temperature19is_throttling_async00Bc_
FNDA:0,_RNCNCNvMs_NtNtCsaakIWYUxKbY_14darwin_metrics8hardware11temperatureNtB8_11Temperature19is_throttling_async0s_0Bc_
FNDA:0,_RNCNCNvMs_NtNtCsaakIWYUxKbY_14darwin_metrics8hardware11temperatureNtB8_11Temperature21cpu_temperature_async00Bc_
FNDA:0,_RNCNCNvMs_NtNtCsaakIWYUxKbY_14darwin_metrics8hardware11temperatureNtB8_11Temperature21gpu_temperature_async00Bc_
FNDA:0,_RNCNCNvMs_NtNtCsaakIWYUxKbY_14darwin_metrics8hardware11temperatureNtB8_11Temperature25ambient_temperature_async00Bc_
FNDA:0,_RNCNCNvMs_NtNtCsaakIWYUxKbY_14darwin_metrics8hardware11temperatureNtB8_11Temperature25battery_temperature_async00Bc_
FNDA:0,_RNCNCNvMs_NtNtCsaakIWYUxKbY_14darwin_metrics8hardware11temperatureNtB8_11Temperature26heatsink_temperature_async00Bc_
FNDA:0,_RNCNvMs_NtNtCsaakIWYUxKbY_14darwin_metrics8hardware11temperatureNtB6_11Temperature13refresh_async0Ba_
FNDA:0,_RNCNvMs_NtNtCsaakIWYUxKbY_14darwin_metrics8hardware11temperatureNtB6_11Temperature19is_throttling_async0Ba_
FNDA:0,_RNCNvMs_NtNtCsaakIWYUxKbY_14darwin_metrics8hardware11temperatureNtB6_11Temperature21cpu_temperature_async0Ba_
FNDA:0,_RNCNvMs_NtNtCsaakIWYUxKbY_14darwin_metrics8hardware11temperatureNtB6_11Temperature21gpu_temperature_async0Ba_
FNDA:0,_RNCNvMs_NtNtCsaakIWYUxKbY_14darwin_metrics8hardware11temperatureNtB6_11Temperature25ambient_temperature_async0Ba_
FNDA:0,_RNCNvMs_NtNtCsaakIWYUxKbY_14darwin_metrics8hardware11temperatureNtB6_11Temperature25battery_temperature_async0Ba_
FNDA:0,_RNCNvMs_NtNtCsaakIWYUxKbY_14darwin_metrics8hardware11temperatureNtB6_11Temperature25get_thermal_metrics_async0Ba_
FNDA:0,_RNCNvMs_NtNtCsaakIWYUxKbY_14darwin_metrics8hardware11temperatureNtB6_11Temperature26heatsink_temperature_async0Ba_
FNF:70
FNH:32
DA:59,3
DA:60,3
DA:61,3
DA:62,3
DA:63,3
DA:64,3
DA:65,3
DA:90,3
DA:91,3
DA:92,3
DA:93,3
DA:94,3
DA:95,3
DA:96,3
DA:97,3
DA:98,3
DA:99,3
DA:100,3
DA:103,8
DA:104,8
DA:105,8
DA:106,8
DA:107,8
DA:108,8
DA:109,8
DA:110,8
DA:111,8
DA:112,8
DA:113,8
DA:116,3
DA:117,3
DA:118,3
DA:121,1
DA:157,1
DA:159,0
DA:160,0
DA:163,0
DA:164,0
DA:165,0
DA:167,0
DA:168,0
DA:169,0
DA:171,0
DA:172,0
DA:173,0
DA:176,0
DA:177,0
DA:178,0
DA:179,0
DA:180,1
DA:183,1
DA:184,0
DA:187,0
DA:188,0
DA:189,0
DA:190,0
DA:191,0
DA:192,0
DA:193,0
DA:194,0
DA:195,0
DA:196,1
DA:199,1
DA:200,1
DA:201,1
DA:202,1
DA:203,1
DA:204,1
DA:205,1
DA:206,1
DA:209,1
DA:210,1
DA:211,0
DA:212,1
DA:214,1
DA:215,0
DA:216,1
DA:217,1
DA:220,1
DA:221,1
DA:222,0
DA:223,1
DA:225,1
DA:226,0
DA:227,1
DA:228,1
DA:231,1
DA:232,1
DA:233,0
DA:234,1
DA:236,1
DA:237,0
DA:238,1
DA:239,1
DA:242,1
DA:243,1
DA:244,0
DA:245,1
DA:247,1
DA:248,0
DA:249,1
DA:250,1
DA:253,1
DA:254,1
DA:255,0
DA:256,1
DA:258,1
DA:259,0
DA:260,1
DA:261,1
DA:264,1
DA:265,1
DA:266,0
DA:267,1
DA:269,1
DA:270,5
DA:271,5
DA:272,5
DA:273,4
DA:274,3
DA:275,2
DA:276,1
DA:277,1
DA:278,1
DA:279,1
DA:282,5
DA:285,1
DA:286,1
DA:289,0
DA:290,0
DA:291,0
DA:292,0
DA:294,0
DA:295,0
DA:296,0
DA:297,0
DA:298,0
DA:301,1
DA:302,1
DA:303,0
DA:304,1
DA:306,1
DA:307,1
DA:310,1
DA:311,1
DA:312,0
DA:313,1
DA:315,1
DA:316,1
DA:319,3
DA:320,3
DA:321,0
DA:322,3
DA:324,3
DA:325,3
DA:326,3
DA:327,3
DA:330,0
DA:331,0
DA:332,0
DA:333,0
DA:335,0
DA:336,0
DA:337,0
DA:338,0
DA:341,0
DA:342,0
DA:343,0
DA:344,0
DA:347,0
DA:348,0
DA:349,0
DA:352,0
DA:353,0
DA:354,0
DA:357,1
DA:358,1
DA:359,1
DA:361,1
DA:362,1
DA:363,1
DA:364,1
DA:365,1
DA:366,1
DA:367,1
DA:368,1
DA:369,1
DA:370,1
DA:371,1
DA:374,0
DA:375,0
DA:376,0
DA:377,0
DA:379,0
DA:380,0
DA:381,0
DA:382,0
DA:385,0
DA:386,0
DA:387,0
DA:388,0
DA:390,0
DA:391,0
DA:392,0
DA:393,0
DA:396,0
DA:397,0
DA:398,0
DA:399,0
DA:401,0
DA:402,0
DA:403,0
DA:404,0
DA:407,0
DA:408,0
DA:409,0
DA:410,0
DA:412,0
DA:413,0
DA:414,0
DA:415,0
DA:418,0
DA:419,0
DA:420,0
DA:421,0
DA:423,0
DA:424,0
DA:425,0
DA:426,0
DA:429,0
DA:430,0
DA:431,0
DA:432,0
DA:433,0
DA:434,0
DA:435,0
DA:436,0
DA:439,0
DA:440,0
DA:443,0
DA:444,0
DA:445,0
DA:447,0
DA:448,0
DA:449,0
DA:451,0
DA:452,0
DA:453,0
DA:456,0
DA:457,0
DA:458,0
DA:459,0
DA:460,0
DA:461,0
DA:462,0
DA:463,0
DA:464,0
DA:465,0
DA:467,0
DA:470,0
DA:471,0
DA:472,0
DA:473,0
DA:474,0
DA:475,0
DA:476,0
DA:477,0
DA:478,0
DA:481,0
DA:482,0
DA:483,0
DA:484,0
DA:487,0
DA:488,0
DA:489,0
DA:491,0
DA:492,0
DA:493,0
DA:494,0
DA:495,0
DA:496,0
DA:497,0
DA:498,0
DA:499,0
DA:500,0
DA:501,0
DA:505,0
DA:506,0
DA:507,0
DA:508,0
DA:512,0
DA:513,0
DA:514,0
DA:515,0
DA:517,0
DA:520,0
DA:521,0
DA:524,0
DA:549,0
DA:550,0
DA:551,0
DA:561,1
DA:562,1
DA:563,1
DA:564,1
DA:565,1
DA:566,1
DA:567,1
DA:570,1
DA:571,1
DA:572,1
DA:573,1
DA:574,1
DA:575,1
DA:576,1
DA:577,1
DA:578,1
DA:579,1
DA:580,1
DA:581,1
DA:584,1
DA:585,1
DA:586,1
DA:587,1
DA:588,1
DA:589,1
DA:590,1
DA:591,1
DA:592,1
DA:593,1
DA:594,1
DA:597,1
DA:598,1
DA:601,1
DA:602,1
DA:603,1
DA:606,1
DA:607,1
DA:608,1
DA:609,1
DA:610,1
DA:611,1
DA:612,1
DA:613,1
DA:614,1
DA:615,1
DA:616,1
DA:617,1
DA:618,1
DA:619,1
DA:620,1
DA:623,1
DA:624,1
DA:625,1
DA:626,1
DA:627,1
DA:628,1
DA:629,1
DA:630,1
DA:631,1
DA:632,1
DA:633,1
DA:634,1
DA:635,1
DA:636,1
DA:639,1
DA:640,1
DA:641,1
DA:642,1
DA:643,1
DA:644,1
DA:645,1
DA:646,1
DA:647,1
DA:648,1
DA:649,1
DA:650,1
DA:651,1
DA:652,1
DA:653,1
DA:654,1
DA:655,1
DA:656,1
DA:659,1
DA:660,1
DA:661,1
DA:662,1
DA:663,1
DA:664,1
DA:665,1
DA:666,1
DA:667,1
DA:668,1
DA:669,1
DA:670,1
DA:671,1
DA:672,1
DA:673,1
DA:674,1
DA:675,1
DA:676,1
DA:677,1
DA:680,1
DA:681,1
DA:682,4
DA:683,1
DA:684,1
DA:685,3
DA:686,1
DA:687,1
DA:688,1
DA:689,2
DA:690,2
DA:691,2
DA:692,5
DA:693,5
DA:694,1
DA:695,1
DA:697,0
DA:699,5
DA:700,1
DA:701,1
DA:702,1
DA:703,1
DA:704,1
DA:705,1
DA:706,1
DA:709,1
DA:710,1
DA:711,1
DA:712,1
DA:713,1
DA:714,1
DA:715,1
DA:716,1
DA:717,1
DA:718,1
DA:719,1
DA:720,1
DA:721,1
DA:722,1
DA:723,1
DA:724,1
DA:725,1
DA:726,1
DA:727,1
DA:728,1
DA:729,1
DA:730,1
DA:731,1
DA:732,1
DA:733,1
DA:734,1
DA:737,1
DA:738,1
DA:739,1
DA:740,1
DA:743,1
DA:744,1
DA:745,1
DA:746,1
DA:747,1
DA:748,1
DA:750,1
DA:751,1
DA:752,1
DA:755,1
DA:756,1
DA:759,1
DA:760,1
DA:761,1
DA:762,1
DA:763,1
DA:764,1
DA:765,1
DA:766,1
DA:769,1
DA:770,1
DA:771,1
DA:772,1
DA:775,1
DA:776,1
DA:777,1
DA:778,1
DA:779,1
DA:780,1
DA:781,1
DA:782,1
DA:785,1
DA:786,1
DA:787,1
DA:790,1
DA:791,1
DA:792,1
DA:793,1
DA:794,1
DA:795,1
DA:796,1
DA:797,1
DA:798,1
DA:799,1
DA:800,1
DA:801,1
DA:802,1
DA:803,1
DA:804,1
DA:805,1
DA:806,1
DA:807,1
DA:808,1
DA:809,1
DA:810,1
DA:811,1
DA:812,1
DA:813,1
DA:814,1
DA:815,1
DA:816,1
DA:817,1
DA:818,1
DA:819,1
DA:820,1
DA:821,1
DA:822,1
BRF:0
BRH:0
LF:570
LH:354
end_of_record
SF:/Users/smeya/git/darwin-metrics/src/network/interface.rs
FN:674,_RNCNCNvMs1_NtNtCs6JXvGULNGKJ_14darwin_metrics7network9interfaceNtB9_14NetworkManager12update_async00Bd_
FN:681,_RNCNCNvMs1_NtNtCs6JXvGULNGKJ_14darwin_metrics7network9interfaceNtB9_14NetworkManager12update_async0s_0Bd_
FN:698,_RNCNCNvMs1_NtNtCs6JXvGULNGKJ_14darwin_metrics7network9interfaceNtB9_14NetworkManager23active_interfaces_async00Bd_
FN:671,_RNCNvMs1_NtNtCs6JXvGULNGKJ_14darwin_metrics7network9interfaceNtB7_14NetworkManager12update_async0Bb_
FN:716,_RNCNvMs1_NtNtCs6JXvGULNGKJ_14darwin_metrics7network9interfaceNtB7_14NetworkManager19get_interface_async0Bb_
FN:704,_RNCNvMs1_NtNtCs6JXvGULNGKJ_14darwin_metrics7network9interfaceNtB7_14NetworkManager20get_throughput_async0Bb_
FN:697,_RNCNvMs1_NtNtCs6JXvGULNGKJ_14darwin_metrics7network9interfaceNtB7_14NetworkManager23active_interfaces_async0Bb_
FN:651,_RNCNvMs1_NtNtCs6JXvGULNGKJ_14darwin_metrics7network9interfaceNtB7_14NetworkManager9new_async0Bb_
FN:671,_RNvMs1_NtNtCs6JXvGULNGKJ_14darwin_metrics7network9interfaceNtB5_14NetworkManager12update_async
FN:716,_RNvMs1_NtNtCs6JXvGULNGKJ_14darwin_metrics7network9interfaceNtB5_14NetworkManager19get_interface_async
FN:704,_RNvMs1_NtNtCs6JXvGULNGKJ_14darwin_metrics7network9interfaceNtB5_14NetworkManager20get_throughput_async
FN:697,_RNvMs1_NtNtCs6JXvGULNGKJ_14darwin_metrics7network9interfaceNtB5_14NetworkManager23active_interfaces_async
FN:651,_RNvMs1_NtNtCs6JXvGULNGKJ_14darwin_metrics7network9interfaceNtB5_14NetworkManager9new_async
FN:218,_RNvMs_NtNtCs6JXvGULNGKJ_14darwin_metrics7network9interfaceNtB4_9Interface11is_wireless
FN:193,_RNvMs_NtNtCs6JXvGULNGKJ_14darwin_metrics7network9interfaceNtB4_9Interface15send_error_rate
FN:183,_RNvMs_NtNtCs6JXvGULNGKJ_14darwin_metrics7network9interfaceNtB4_9Interface16packet_send_rate
FN:213,_RNvMs_NtNtCs6JXvGULNGKJ_14darwin_metrics7network9interfaceNtB4_9Interface17is_point_to_point
FN:188,_RNvMs_NtNtCs6JXvGULNGKJ_14darwin_metrics7network9interfaceNtB4_9Interface18receive_error_rate
FN:203,_RNvMs_NtNtCs6JXvGULNGKJ_14darwin_metrics7network9interfaceNtB4_9Interface18supports_broadcast
FN:208,_RNvMs_NtNtCs6JXvGULNGKJ_14darwin_metrics7network9interfaceNtB4_9Interface18supports_multicast
FN:178,_RNvMs_NtNtCs6JXvGULNGKJ_14darwin_metrics7network9interfaceNtB4_9Interface19packet_receive_rate
FN:140,_RNvMs_NtNtCs6JXvGULNGKJ_14darwin_metrics7network9interfaceNtB4_9Interface9addresses
FN:38,_RNvXNtNtCs6JXvGULNGKJ_14darwin_metrics7network9interfaceNtB2_13InterfaceTypeNtNtCs4P3ALgZxGbJ_4core3fmt7Display3fmt
FN:362,_RNCNvMs1_NtNtCs6JXvGULNGKJ_14darwin_metrics7network9interfaceNtB7_14NetworkManager18total_upload_speed0Bb_
FN:357,_RNCNvMs1_NtNtCs6JXvGULNGKJ_14darwin_metrics7network9interfaceNtB7_14NetworkManager20total_download_speed0Bb_
FN:475,_RNCNvMs1_NtNtCs6JXvGULNGKJ_14darwin_metrics7network9interfaceNtB7_14NetworkManager21get_network_addresses0Bb_
FN:506,_RNCNvMs1_NtNtCs6JXvGULNGKJ_14darwin_metrics7network9interfaceNtB7_14NetworkManager21get_network_addressess_0Bb_
FN:346,_RNvMs1_NtNtCs6JXvGULNGKJ_14darwin_metrics7network9interfaceNtB5_14NetworkManager10interfaces
FN:351,_RNvMs1_NtNtCs6JXvGULNGKJ_14darwin_metrics7network9interfaceNtB5_14NetworkManager13get_interface
FN:366,_RNvMs1_NtNtCs6JXvGULNGKJ_14darwin_metrics7network9interfaceNtB5_14NetworkManager14get_interfaces
FN:361,_RNvMs1_NtNtCs6JXvGULNGKJ_14darwin_metrics7network9interfaceNtB5_14NetworkManager18total_upload_speed
FN:356,_RNvMs1_NtNtCs6JXvGULNGKJ_14darwin_metrics7network9interfaceNtB5_14NetworkManager20total_download_speed
FN:567,_RNvMs1_NtNtCs6JXvGULNGKJ_14darwin_metrics7network9interfaceNtB5_14NetworkManager20update_traffic_stats
FN:463,_RNvMs1_NtNtCs6JXvGULNGKJ_14darwin_metrics7network9interfaceNtB5_14NetworkManager21get_network_addresses
FN:618,_RNvMs1_NtNtCs6JXvGULNGKJ_14darwin_metrics7network9interfaceNtB5_14NetworkManager24determine_interface_type
FN:301,_RNvMs1_NtNtCs6JXvGULNGKJ_14darwin_metrics7network9interfaceNtB5_14NetworkManager3new
FN:324,_RNvMs1_NtNtCs6JXvGULNGKJ_14darwin_metrics7network9interfaceNtB5_14NetworkManager6update
FN:173,_RNvMs_NtNtCs6JXvGULNGKJ_14darwin_metrics7network9interfaceNtB4_9Interface11is_flag_set
FN:198,_RNvMs_NtNtCs6JXvGULNGKJ_14darwin_metrics7network9interfaceNtB4_9Interface11is_loopback
FN:135,_RNvMs_NtNtCs6JXvGULNGKJ_14darwin_metrics7network9interfaceNtB4_9Interface11mac_address
FN:130,_RNvMs_NtNtCs6JXvGULNGKJ_14darwin_metrics7network9interfaceNtB4_9Interface14interface_type
FN:150,_RNvMs_NtNtCs6JXvGULNGKJ_14darwin_metrics7network9interfaceNtB4_9Interface14update_traffic
FN:91,_RNvMs_NtNtCs6JXvGULNGKJ_14darwin_metrics7network9interfaceNtB4_9Interface3new
FN:125,_RNvMs_NtNtCs6JXvGULNGKJ_14darwin_metrics7network9interfaceNtB4_9Interface4name
FN:230,_RNvXs0_NtNtCs6JXvGULNGKJ_14darwin_metrics7network9interfaceNtB5_9InterfaceNtB7_14NetworkMetrics10bytes_sent
FN:250,_RNvXs0_NtNtCs6JXvGULNGKJ_14darwin_metrics7network9interfaceNtB5_9InterfaceNtB7_14NetworkMetrics10collisions
FN:246,_RNvXs0_NtNtCs6JXvGULNGKJ_14darwin_metrics7network9interfaceNtB5_9InterfaceNtB7_14NetworkMetrics11send_errors
FN:238,_RNvXs0_NtNtCs6JXvGULNGKJ_14darwin_metrics7network9interfaceNtB5_9InterfaceNtB7_14NetworkMetrics12packets_sent
FN:258,_RNvXs0_NtNtCs6JXvGULNGKJ_14darwin_metrics7network9interfaceNtB5_9InterfaceNtB7_14NetworkMetrics12upload_speed
FN:226,_RNvXs0_NtNtCs6JXvGULNGKJ_14darwin_metrics7network9interfaceNtB5_9InterfaceNtB7_14NetworkMetrics14bytes_received
FN:254,_RNvXs0_NtNtCs6JXvGULNGKJ_14darwin_metrics7network9interfaceNtB5_9InterfaceNtB7_14NetworkMetrics14download_speed
FN:242,_RNvXs0_NtNtCs6JXvGULNGKJ_14darwin_metrics7network9interfaceNtB5_9InterfaceNtB7_14NetworkMetrics14receive_errors
FN:234,_RNvXs0_NtNtCs6JXvGULNGKJ_14darwin_metrics7network9interfaceNtB5_9InterfaceNtB7_14NetworkMetrics16packets_received
FN:262,_RNvXs0_NtNtCs6JXvGULNGKJ_14darwin_metrics7network9interfaceNtB5_9InterfaceNtB7_14NetworkMetrics9is_active
FN:506,_RNCNvMs1_NtNtCsaakIWYUxKbY_14darwin_metrics7network9interfaceNtB7_14NetworkManager21get_network_addressess_0Bb_
FN:346,_RNvMs1_NtNtCsaakIWYUxKbY_14darwin_metrics7network9interfaceNtB5_14NetworkManager10interfaces
FN:671,_RNvMs1_NtNtCsaakIWYUxKbY_14darwin_metrics7network9interfaceNtB5_14NetworkManager12update_async
FN:351,_RNvMs1_NtNtCsaakIWYUxKbY_14darwin_metrics7network9interfaceNtB5_14NetworkManager13get_interface
FN:366,_RNvMs1_NtNtCsaakIWYUxKbY_14darwin_metrics7network9interfaceNtB5_14NetworkManager14get_interfaces
FN:361,_RNvMs1_NtNtCsaakIWYUxKbY_14darwin_metrics7network9interfaceNtB5_14NetworkManager18total_upload_speed
FN:716,_RNvMs1_NtNtCsaakIWYUxKbY_14darwin_metrics7network9interfaceNtB5_14NetworkManager19get_interface_async
FN:704,_RNvMs1_NtNtCsaakIWYUxKbY_14darwin_metrics7network9interfaceNtB5_14NetworkManager20get_throughput_async
FN:356,_RNvMs1_NtNtCsaakIWYUxKbY_14darwin_metrics7network9interfaceNtB5_14NetworkManager20total_download_speed
FN:567,_RNvMs1_NtNtCsaakIWYUxKbY_14darwin_metrics7network9interfaceNtB5_14NetworkManager20update_traffic_stats
FN:463,_RNvMs1_NtNtCsaakIWYUxKbY_14darwin_metrics7network9interfaceNtB5_14NetworkManager21get_network_addresses
FN:697,_RNvMs1_NtNtCsaakIWYUxKbY_14darwin_metrics7network9interfaceNtB5_14NetworkManager23active_interfaces_async
FN:618,_RNvMs1_NtNtCsaakIWYUxKbY_14darwin_metrics7network9interfaceNtB5_14NetworkManager24determine_interface_type
FN:301,_RNvMs1_NtNtCsaakIWYUxKbY_14darwin_metrics7network9interfaceNtB5_14NetworkManager3new
FN:324,_RNvMs1_NtNtCsaakIWYUxKbY_14darwin_metrics7network9interfaceNtB5_14NetworkManager6update
FN:651,_RNvMs1_NtNtCsaakIWYUxKbY_14darwin_metrics7network9interfaceNtB5_14NetworkManager9new_async
FN:173,_RNvMs_NtNtCsaakIWYUxKbY_14darwin_metrics7network9interfaceNtB4_9Interface11is_flag_set
FN:198,_RNvMs_NtNtCsaakIWYUxKbY_14darwin_metrics7network9interfaceNtB4_9Interface11is_loopback
FN:218,_RNvMs_NtNtCsaakIWYUxKbY_14darwin_metrics7network9interfaceNtB4_9Interface11is_wireless
FN:135,_RNvMs_NtNtCsaakIWYUxKbY_14darwin_metrics7network9interfaceNtB4_9Interface11mac_address
FN:130,_RNvMs_NtNtCsaakIWYUxKbY_14darwin_metrics7network9interfaceNtB4_9Interface14interface_type
FN:150,_RNvMs_NtNtCsaakIWYUxKbY_14darwin_metrics7network9interfaceNtB4_9Interface14update_traffic
FN:193,_RNvMs_NtNtCsaakIWYUxKbY_14darwin_metrics7network9interfaceNtB4_9Interface15send_error_rate
FN:183,_RNvMs_NtNtCsaakIWYUxKbY_14darwin_metrics7network9interfaceNtB4_9Interface16packet_send_rate
FN:213,_RNvMs_NtNtCsaakIWYUxKbY_14darwin_metrics7network9interfaceNtB4_9Interface17is_point_to_point
FN:188,_RNvMs_NtNtCsaakIWYUxKbY_14darwin_metrics7network9interfaceNtB4_9Interface18receive_error_rate
FN:203,_RNvMs_NtNtCsaakIWYUxKbY_14darwin_metrics7network9interfaceNtB4_9Interface18supports_broadcast
FN:208,_RNvMs_NtNtCsaakIWYUxKbY_14darwin_metrics7network9interfaceNtB4_9Interface18supports_multicast
FN:178,_RNvMs_NtNtCsaakIWYUxKbY_14darwin_metrics7network9interfaceNtB4_9Interface19packet_receive_rate
FN:91,_RNvMs_NtNtCsaakIWYUxKbY_14darwin_metrics7network9interfaceNtB4_9Interface3new
FN:125,_RNvMs_NtNtCsaakIWYUxKbY_14darwin_metrics7network9interfaceNtB4_9Interface4name
FN:140,_RNvMs_NtNtCsaakIWYUxKbY_14darwin_metrics7network9interfaceNtB4_9Interface9addresses
FN:38,_RNvXNtNtCsaakIWYUxKbY_14darwin_metrics7network9interfaceNtB2_13InterfaceTypeNtNtCs4P3ALgZxGbJ_4core3fmt7Display3fmt
FN:230,_RNvXs0_NtNtCsaakIWYUxKbY_14darwin_metrics7network9interfaceNtB5_9InterfaceNtB7_14NetworkMetrics10bytes_sent
FN:250,_RNvXs0_NtNtCsaakIWYUxKbY_14darwin_metrics7network9interfaceNtB5_9InterfaceNtB7_14NetworkMetrics10collisions
FN:246,_RNvXs0_NtNtCsaakIWYUxKbY_14darwin_metrics7network9interfaceNtB5_9InterfaceNtB7_14NetworkMetrics11send_errors
FN:238,_RNvXs0_NtNtCsaakIWYUxKbY_14darwin_metrics7network9interfaceNtB5_9InterfaceNtB7_14NetworkMetrics12packets_sent
FN:258,_RNvXs0_NtNtCsaakIWYUxKbY_14darwin_metrics7network9interfaceNtB5_9InterfaceNtB7_14NetworkMetrics12upload_speed
FN:226,_RNvXs0_NtNtCsaakIWYUxKbY_14darwin_metrics7network9interfaceNtB5_9InterfaceNtB7_14NetworkMetrics14bytes_received
FN:254,_RNvXs0_NtNtCsaakIWYUxKbY_14darwin_metrics7network9interfaceNtB5_9InterfaceNtB7_14NetworkMetrics14download_speed
FN:242,_RNvXs0_NtNtCsaakIWYUxKbY_14darwin_metrics7network9interfaceNtB5_9InterfaceNtB7_14NetworkMetrics14receive_errors
FN:234,_RNvXs0_NtNtCsaakIWYUxKbY_14darwin_metrics7network9interfaceNtB5_9InterfaceNtB7_14NetworkMetrics16packets_received
FN:262,_RNvXs0_NtNtCsaakIWYUxKbY_14darwin_metrics7network9interfaceNtB5_9InterfaceNtB7_14NetworkMetrics9is_active
FN:674,_RNCNCNvMs1_NtNtCsaakIWYUxKbY_14darwin_metrics7network9interfaceNtB9_14NetworkManager12update_async00Bd_
FN:681,_RNCNCNvMs1_NtNtCsaakIWYUxKbY_14darwin_metrics7network9interfaceNtB9_14NetworkManager12update_async0s_0Bd_
FN:698,_RNCNCNvMs1_NtNtCsaakIWYUxKbY_14darwin_metrics7network9interfaceNtB9_14NetworkManager23active_interfaces_async00Bd_
FN:671,_RNCNvMs1_NtNtCsaakIWYUxKbY_14darwin_metrics7network9interfaceNtB7_14NetworkManager12update_async0Bb_
FN:716,_RNCNvMs1_NtNtCsaakIWYUxKbY_14darwin_metrics7network9interfaceNtB7_14NetworkManager19get_interface_async0Bb_
FN:704,_RNCNvMs1_NtNtCsaakIWYUxKbY_14darwin_metrics7network9interfaceNtB7_14NetworkManager20get_throughput_async0Bb_
FN:697,_RNCNvMs1_NtNtCsaakIWYUxKbY_14darwin_metrics7network9interfaceNtB7_14NetworkManager23active_interfaces_async0Bb_
FN:651,_RNCNvMs1_NtNtCsaakIWYUxKbY_14darwin_metrics7network9interfaceNtB7_14NetworkManager9new_async0Bb_
FN:475,_RNCNvMs1_NtNtCsaakIWYUxKbY_14darwin_metrics7network9interfaceNtB7_14NetworkManager21get_network_addresses0Bb_
FN:362,_RNCNvMs1_NtNtCsaakIWYUxKbY_14darwin_metrics7network9interfaceNtB7_14NetworkManager18total_upload_speed0Bb_
FN:357,_RNCNvMs1_NtNtCsaakIWYUxKbY_14darwin_metrics7network9interfaceNtB7_14NetworkManager20total_download_speed0Bb_
FNDA:0,_RNCNCNvMs1_NtNtCs6JXvGULNGKJ_14darwin_metrics7network9interfaceNtB9_14NetworkManager12update_async00Bd_
FNDA:0,_RNCNCNvMs1_NtNtCs6JXvGULNGKJ_14darwin_metrics7network9interfaceNtB9_14NetworkManager12update_async0s_0Bd_
FNDA:0,_RNCNCNvMs1_NtNtCs6JXvGULNGKJ_14darwin_metrics7network9interfaceNtB9_14NetworkManager23active_interfaces_async00Bd_
FNDA:0,_RNCNvMs1_NtNtCs6JXvGULNGKJ_14darwin_metrics7network9interfaceNtB7_14NetworkManager12update_async0Bb_
FNDA:0,_RNCNvMs1_NtNtCs6JXvGULNGKJ_14darwin_metrics7network9interfaceNtB7_14NetworkManager19get_interface_async0Bb_
FNDA:0,_RNCNvMs1_NtNtCs6JXvGULNGKJ_14darwin_metrics7network9interfaceNtB7_14NetworkManager20get_throughput_async0Bb_
FNDA:0,_RNCNvMs1_NtNtCs6JXvGULNGKJ_14darwin_metrics7network9interfaceNtB7_14NetworkManager23active_interfaces_async0Bb_
FNDA:0,_RNCNvMs1_NtNtCs6JXvGULNGKJ_14darwin_metrics7network9interfaceNtB7_14NetworkManager9new_async0Bb_
FNDA:0,_RNvMs1_NtNtCs6JXvGULNGKJ_14darwin_metrics7network9interfaceNtB5_14NetworkManager12update_async
FNDA:0,_RNvMs1_NtNtCs6JXvGULNGKJ_14darwin_metrics7network9interfaceNtB5_14NetworkManager19get_interface_async
FNDA:0,_RNvMs1_NtNtCs6JXvGULNGKJ_14darwin_metrics7network9interfaceNtB5_14NetworkManager20get_throughput_async
FNDA:0,_RNvMs1_NtNtCs6JXvGULNGKJ_14darwin_metrics7network9interfaceNtB5_14NetworkManager23active_interfaces_async
FNDA:0,_RNvMs1_NtNtCs6JXvGULNGKJ_14darwin_metrics7network9interfaceNtB5_14NetworkManager9new_async
FNDA:0,_RNvMs_NtNtCs6JXvGULNGKJ_14darwin_metrics7network9interfaceNtB4_9Interface11is_wireless
FNDA:0,_RNvMs_NtNtCs6JXvGULNGKJ_14darwin_metrics7network9interfaceNtB4_9Interface15send_error_rate
FNDA:0,_RNvMs_NtNtCs6JXvGULNGKJ_14darwin_metrics7network9interfaceNtB4_9Interface16packet_send_rate
FNDA:0,_RNvMs_NtNtCs6JXvGULNGKJ_14darwin_metrics7network9interfaceNtB4_9Interface17is_point_to_point
FNDA:0,_RNvMs_NtNtCs6JXvGULNGKJ_14darwin_metrics7network9interfaceNtB4_9Interface18receive_error_rate
FNDA:0,_RNvMs_NtNtCs6JXvGULNGKJ_14darwin_metrics7network9interfaceNtB4_9Interface18supports_broadcast
FNDA:0,_RNvMs_NtNtCs6JXvGULNGKJ_14darwin_metrics7network9interfaceNtB4_9Interface18supports_multicast
FNDA:0,_RNvMs_NtNtCs6JXvGULNGKJ_14darwin_metrics7network9interfaceNtB4_9Interface19packet_receive_rate
FNDA:0,_RNvMs_NtNtCs6JXvGULNGKJ_14darwin_metrics7network9interfaceNtB4_9Interface9addresses
FNDA:0,_RNvXNtNtCs6JXvGULNGKJ_14darwin_metrics7network9interfaceNtB2_13InterfaceTypeNtNtCs4P3ALgZxGbJ_4core3fmt7Display3fmt
FNDA:2,_RNCNvMs1_NtNtCs6JXvGULNGKJ_14darwin_metrics7network9interfaceNtB7_14NetworkManager18total_upload_speed0Bb_
FNDA:2,_RNCNvMs1_NtNtCs6JXvGULNGKJ_14darwin_metrics7network9interfaceNtB7_14NetworkManager20total_download_speed0Bb_
FNDA:0,_RNCNvMs1_NtNtCs6JXvGULNGKJ_14darwin_metrics7network9interfaceNtB7_14NetworkManager21get_network_addresses0Bb_
FNDA:0,_RNCNvMs1_NtNtCs6JXvGULNGKJ_14darwin_metrics7network9interfaceNtB7_14NetworkManager21get_network_addressess_0Bb_
FNDA:1,_RNvMs1_NtNtCs6JXvGULNGKJ_14darwin_metrics7network9interfaceNtB5_14NetworkManager10interfaces
FNDA:3,_RNvMs1_NtNtCs6JXvGULNGKJ_14darwin_metrics7network9interfaceNtB5_14NetworkManager13get_interface
FNDA:0,_RNvMs1_NtNtCs6JXvGULNGKJ_14darwin_metrics7network9interfaceNtB5_14NetworkManager14get_interfaces
FNDA:1,_RNvMs1_NtNtCs6JXvGULNGKJ_14darwin_metrics7network9interfaceNtB5_14NetworkManager18total_upload_speed
FNDA:1,_RNvMs1_NtNtCs6JXvGULNGKJ_14darwin_metrics7network9interfaceNtB5_14NetworkManager20total_download_speed
FNDA:0,_RNvMs1_NtNtCs6JXvGULNGKJ_14darwin_metrics7network9interfaceNtB5_14NetworkManager20update_traffic_stats
FNDA:0,_RNvMs1_NtNtCs6JXvGULNGKJ_14darwin_metrics7network9interfaceNtB5_14NetworkManager21get_network_addresses
FNDA:0,_RNvMs1_NtNtCs6JXvGULNGKJ_14darwin_metrics7network9interfaceNtB5_14NetworkManager24determine_interface_type
FNDA:0,_RNvMs1_NtNtCs6JXvGULNGKJ_14darwin_metrics7network9interfaceNtB5_14NetworkManager3new
FNDA:0,_RNvMs1_NtNtCs6JXvGULNGKJ_14darwin_metrics7network9interfaceNtB5_14NetworkManager6update
FNDA:6,_RNvMs_NtNtCs6JXvGULNGKJ_14darwin_metrics7network9interfaceNtB4_9Interface11is_flag_set
FNDA:4,_RNvMs_NtNtCs6JXvGULNGKJ_14darwin_metrics7network9interfaceNtB4_9Interface11is_loopback
FNDA:2,_RNvMs_NtNtCs6JXvGULNGKJ_14darwin_metrics7network9interfaceNtB4_9Interface11mac_address
FNDA:2,_RNvMs_NtNtCs6JXvGULNGKJ_14darwin_metrics7network9interfaceNtB4_9Interface14interface_type
FNDA:0,_RNvMs_NtNtCs6JXvGULNGKJ_14darwin_metrics7network9interfaceNtB4_9Interface14update_traffic
FNDA:5,_RNvMs_NtNtCs6JXvGULNGKJ_14darwin_metrics7network9interfaceNtB4_9Interface3new
FNDA:2,_RNvMs_NtNtCs6JXvGULNGKJ_14darwin_metrics7network9interfaceNtB4_9Interface4name
FNDA:1,_RNvXs0_NtNtCs6JXvGULNGKJ_14darwin_metrics7network9interfaceNtB5_9InterfaceNtB7_14NetworkMetrics10bytes_sent
FNDA:1,_RNvXs0_NtNtCs6JXvGULNGKJ_14darwin_metrics7network9interfaceNtB5_9InterfaceNtB7_14NetworkMetrics10collisions
FNDA:1,_RNvXs0_NtNtCs6JXvGULNGKJ_14darwin_metrics7network9interfaceNtB5_9InterfaceNtB7_14NetworkMetrics11send_errors
FNDA:1,_RNvXs0_NtNtCs6JXvGULNGKJ_14darwin_metrics7network9interfaceNtB5_9InterfaceNtB7_14NetworkMetrics12packets_sent
FNDA:3,_RNvXs0_NtNtCs6JXvGULNGKJ_14darwin_metrics7network9interfaceNtB5_9InterfaceNtB7_14NetworkMetrics12upload_speed
FNDA:1,_RNvXs0_NtNtCs6JXvGULNGKJ_14darwin_metrics7network9interfaceNtB5_9InterfaceNtB7_14NetworkMetrics14bytes_received
FNDA:3,_RNvXs0_NtNtCs6JXvGULNGKJ_14darwin_metrics7network9interfaceNtB5_9InterfaceNtB7_14NetworkMetrics14download_speed
FNDA:1,_RNvXs0_NtNtCs6JXvGULNGKJ_14darwin_metrics7network9interfaceNtB5_9InterfaceNtB7_14NetworkMetrics14receive_errors
FNDA:1,_RNvXs0_NtNtCs6JXvGULNGKJ_14darwin_metrics7network9interfaceNtB5_9InterfaceNtB7_14NetworkMetrics16packets_received
FNDA:1,_RNvXs0_NtNtCs6JXvGULNGKJ_14darwin_metrics7network9interfaceNtB5_9InterfaceNtB7_14NetworkMetrics9is_active
FNDA:0,_RNCNvMs1_NtNtCsaakIWYUxKbY_14darwin_metrics7network9interfaceNtB7_14NetworkManager21get_network_addressess_0Bb_
FNDA:0,_RNvMs1_NtNtCsaakIWYUxKbY_14darwin_metrics7network9interfaceNtB5_14NetworkManager10interfaces
FNDA:0,_RNvMs1_NtNtCsaakIWYUxKbY_14darwin_metrics7network9interfaceNtB5_14NetworkManager12update_async
FNDA:0,_RNvMs1_NtNtCsaakIWYUxKbY_14darwin_metrics7network9interfaceNtB5_14NetworkManager13get_interface
FNDA:0,_RNvMs1_NtNtCsaakIWYUxKbY_14darwin_metrics7network9interfaceNtB5_14NetworkManager14get_interfaces
FNDA:0,_RNvMs1_NtNtCsaakIWYUxKbY_14darwin_metrics7network9interfaceNtB5_14NetworkManager18total_upload_speed
FNDA:0,_RNvMs1_NtNtCsaakIWYUxKbY_14darwin_metrics7network9interfaceNtB5_14NetworkManager19get_interface_async
FNDA:0,_RNvMs1_NtNtCsaakIWYUxKbY_14darwin_metrics7network9interfaceNtB5_14NetworkManager20get_throughput_async
FNDA:0,_RNvMs1_NtNtCsaakIWYUxKbY_14darwin_metrics7network9interfaceNtB5_14NetworkManager20total_download_speed
FNDA:0,_RNvMs1_NtNtCsaakIWYUxKbY_14darwin_metrics7network9interfaceNtB5_14NetworkManager20update_traffic_stats
FNDA:0,_RNvMs1_NtNtCsaakIWYUxKbY_14darwin_metrics7network9interfaceNtB5_14NetworkManager21get_network_addresses
FNDA:0,_RNvMs1_NtNtCsaakIWYUxKbY_14darwin_metrics7network9interfaceNtB5_14NetworkManager23active_interfaces_async
FNDA:0,_RNvMs1_NtNtCsaakIWYUxKbY_14darwin_metrics7network9interfaceNtB5_14NetworkManager24determine_interface_type
FNDA:0,_RNvMs1_NtNtCsaakIWYUxKbY_14darwin_metrics7network9interfaceNtB5_14NetworkManager3new
FNDA:0,_RNvMs1_NtNtCsaakIWYUxKbY_14darwin_metrics7network9interfaceNtB5_14NetworkManager6update
FNDA:0,_RNvMs1_NtNtCsaakIWYUxKbY_14darwin_metrics7network9interfaceNtB5_14NetworkManager9new_async
FNDA:0,_RNvMs_NtNtCsaakIWYUxKbY_14darwin_metrics7network9interfaceNtB4_9Interface11is_flag_set
FNDA:0,_RNvMs_NtNtCsaakIWYUxKbY_14darwin_metrics7network9interfaceNtB4_9Interface11is_loopback
FNDA:0,_RNvMs_NtNtCsaakIWYUxKbY_14darwin_metrics7network9interfaceNtB4_9Interface11is_wireless
FNDA:0,_RNvMs_NtNtCsaakIWYUxKbY_14darwin_metrics7network9interfaceNtB4_9Interface11mac_address
FNDA:0,_RNvMs_NtNtCsaakIWYUxKbY_14darwin_metrics7network9interfaceNtB4_9Interface14interface_type
FNDA:0,_RNvMs_NtNtCsaakIWYUxKbY_14darwin_metrics7network9interfaceNtB4_9Interface14update_traffic
FNDA:0,_RNvMs_NtNtCsaakIWYUxKbY_14darwin_metrics7network9interfaceNtB4_9Interface15send_error_rate
FNDA:0,_RNvMs_NtNtCsaakIWYUxKbY_14darwin_metrics7network9interfaceNtB4_9Interface16packet_send_rate
FNDA:0,_RNvMs_NtNtCsaakIWYUxKbY_14darwin_metrics7network9interfaceNtB4_9Interface17is_point_to_point
FNDA:0,_RNvMs_NtNtCsaakIWYUxKbY_14darwin_metrics7network9interfaceNtB4_9Interface18receive_error_rate
FNDA:0,_RNvMs_NtNtCsaakIWYUxKbY_14darwin_metrics7network9interfaceNtB4_9Interface18supports_broadcast
FNDA:0,_RNvMs_NtNtCsaakIWYUxKbY_14darwin_metrics7network9interfaceNtB4_9Interface18supports_multicast
FNDA:0,_RNvMs_NtNtCsaakIWYUxKbY_14darwin_metrics7network9interfaceNtB4_9Interface19packet_receive_rate
FNDA:0,_RNvMs_NtNtCsaakIWYUxKbY_14darwin_metrics7network9interfaceNtB4_9Interface3new
FNDA:0,_RNvMs_NtNtCsaakIWYUxKbY_14darwin_metrics7network9interfaceNtB4_9Interface4name
FNDA:0,_RNvMs_NtNtCsaakIWYUxKbY_14darwin_metrics7network9interfaceNtB4_9Interface9addresses
FNDA:0,_RNvXNtNtCsaakIWYUxKbY_14darwin_metrics7network9interfaceNtB2_13InterfaceTypeNtNtCs4P3ALgZxGbJ_4core3fmt7Display3fmt
FNDA:0,_RNvXs0_NtNtCsaakIWYUxKbY_14darwin_metrics7network9interfaceNtB5_9InterfaceNtB7_14NetworkMetrics10bytes_sent
FNDA:0,_RNvXs0_NtNtCsaakIWYUxKbY_14darwin_metrics7network9interfaceNtB5_9InterfaceNtB7_14NetworkMetrics10collisions
FNDA:0,_RNvXs0_NtNtCsaakIWYUxKbY_14darwin_metrics7network9interfaceNtB5_9InterfaceNtB7_14NetworkMetrics11send_errors
FNDA:0,_RNvXs0_NtNtCsaakIWYUxKbY_14darwin_metrics7network9interfaceNtB5_9InterfaceNtB7_14NetworkMetrics12packets_sent
FNDA:0,_RNvXs0_NtNtCsaakIWYUxKbY_14darwin_metrics7network9interfaceNtB5_9InterfaceNtB7_14NetworkMetrics12upload_speed
FNDA:0,_RNvXs0_NtNtCsaakIWYUxKbY_14darwin_metrics7network9interfaceNtB5_9InterfaceNtB7_14NetworkMetrics14bytes_received
FNDA:0,_RNvXs0_NtNtCsaakIWYUxKbY_14darwin_metrics7network9interfaceNtB5_9InterfaceNtB7_14NetworkMetrics14download_speed
FNDA:0,_RNvXs0_NtNtCsaakIWYUxKbY_14darwin_metrics7network9interfaceNtB5_9InterfaceNtB7_14NetworkMetrics14receive_errors
FNDA:0,_RNvXs0_NtNtCsaakIWYUxKbY_14darwin_metrics7network9interfaceNtB5_9InterfaceNtB7_14NetworkMetrics16packets_received
FNDA:0,_RNvXs0_NtNtCsaakIWYUxKbY_14darwin_metrics7network9interfaceNtB5_9InterfaceNtB7_14NetworkMetrics9is_active
FNDA:0,_RNCNCNvMs1_NtNtCsaakIWYUxKbY_14darwin_metrics7network9interfaceNtB9_14NetworkManager12update_async00Bd_
FNDA:0,_RNCNCNvMs1_NtNtCsaakIWYUxKbY_14darwin_metrics7network9interfaceNtB9_14NetworkManager12update_async0s_0Bd_
FNDA:0,_RNCNCNvMs1_NtNtCsaakIWYUxKbY_14darwin_metrics7network9interfaceNtB9_14NetworkManager23active_interfaces_async00Bd_
FNDA:0,_RNCNvMs1_NtNtCsaakIWYUxKbY_14darwin_metrics7network9interfaceNtB7_14NetworkManager12update_async0Bb_
FNDA:0,_RNCNvMs1_NtNtCsaakIWYUxKbY_14darwin_metrics7network9interfaceNtB7_14NetworkManager19get_interface_async0Bb_
FNDA:0,_RNCNvMs1_NtNtCsaakIWYUxKbY_14darwin_metrics7network9interfaceNtB7_14NetworkManager20get_throughput_async0Bb_
FNDA:0,_RNCNvMs1_NtNtCsaakIWYUxKbY_14darwin_metrics7network9interfaceNtB7_14NetworkManager23active_interfaces_async0Bb_
FNDA:0,_RNCNvMs1_NtNtCsaakIWYUxKbY_14darwin_metrics7network9interfaceNtB7_14NetworkManager9new_async0Bb_
FNDA:0,_RNCNvMs1_NtNtCsaakIWYUxKbY_14darwin_metrics7network9interfaceNtB7_14NetworkManager21get_network_addresses0Bb_
FNDA:0,_RNCNvMs1_NtNtCsaakIWYUxKbY_14darwin_metrics7network9interfaceNtB7_14NetworkManager18total_upload_speed0Bb_
FNDA:0,_RNCNvMs1_NtNtCsaakIWYUxKbY_14darwin_metrics7network9interfaceNtB7_14NetworkManager20total_download_speed0Bb_
FNF:54
FNH:22
DA:38,0
DA:39,0
DA:40,0
DA:41,0
DA:42,0
DA:43,0
DA:44,0
DA:46,0
DA:91,5
DA:92,5
DA:93,5
DA:94,5
DA:95,5
DA:96,5
DA:97,5
DA:98,5
DA:99,5
DA:100,5
DA:101,5
DA:102,5
DA:103,5
DA:104,5
DA:105,5
DA:106,5
DA:107,5
DA:108,5
DA:109,5
DA:110,5
DA:111,5
DA:112,5
DA:113,5
DA:114,5
DA:115,5
DA:116,5
DA:117,5
DA:118,5
DA:119,5
DA:120,5
DA:121,5
DA:122,5
DA:125,2
DA:126,2
DA:127,2
DA:130,2
DA:131,2
DA:132,2
DA:135,2
DA:136,2
DA:137,2
DA:140,0
DA:141,0
DA:142,0
DA:144,0
DA:146,0
DA:150,0
DA:151,0
DA:152,0
DA:153,0
DA:154,0
DA:155,0
DA:156,0
DA:157,0
DA:158,0
DA:159,0
DA:160,0
DA:161,0
DA:162,0
DA:163,0
DA:164,0
DA:165,0
DA:166,0
DA:167,0
DA:168,0
DA:169,0
DA:170,0
DA:173,6
DA:174,6
DA:175,6
DA:178,0
DA:179,0
DA:180,0
DA:183,0
DA:184,0
DA:185,0
DA:188,0
DA:189,0
DA:190,0
DA:193,0
DA:194,0
DA:195,0
DA:198,4
DA:199,4
DA:200,4
DA:203,0
DA:204,0
DA:205,0
DA:208,0
DA:209,0
DA:210,0
DA:213,0
DA:214,0
DA:215,0
DA:218,0
DA:219,0
DA:220,0
DA:221,0
DA:222,0
DA:226,1
DA:227,1
DA:228,1
DA:230,1
DA:231,1
DA:232,1
DA:234,1
DA:235,1
DA:236,1
DA:238,1
DA:239,1
DA:240,1
DA:242,1
DA:243,1
DA:244,1
DA:246,1
DA:247,1
DA:248,1
DA:250,1
DA:251,1
DA:252,1
DA:254,3
DA:255,3
DA:256,3
DA:258,3
DA:259,3
DA:260,3
DA:262,1
DA:263,1
DA:264,1
DA:301,0
DA:302,0
DA:305,0
DA:306,0
DA:308,0
DA:310,0
DA:311,0
DA:324,0
DA:326,0
DA:328,0
DA:329,0
DA:330,0
DA:331,0
DA:333,0
DA:334,0
DA:346,1
DA:347,1
DA:348,1
DA:351,3
DA:352,3
DA:353,3
DA:356,1
DA:357,2
DA:358,1
DA:361,1
DA:362,2
DA:363,1
DA:366,0
DA:367,0
DA:368,0
DA:371,0
DA:374,0
DA:377,0
DA:379,0
DA:381,0
DA:383,0
DA:384,0
DA:385,0
DA:388,0
DA:389,0
DA:390,0
DA:391,0
DA:393,0
DA:394,0
DA:395,0
DA:396,0
DA:397,0
DA:398,0
DA:399,0
DA:400,0
DA:401,0
DA:402,0
DA:403,0
DA:404,0
DA:405,0
DA:406,0
DA:407,0
DA:408,0
DA:409,0
DA:410,0
DA:411,0
DA:412,0
DA:413,0
DA:417,0
DA:420,0
DA:422,0
DA:423,0
DA:424,0
DA:426,0
DA:427,0
DA:428,0
DA:429,0
DA:430,0
DA:431,0
DA:432,0
DA:433,0
DA:434,0
DA:435,0
DA:436,0
DA:437,0
DA:438,0
DA:439,0
DA:440,0
DA:441,0
DA:442,0
DA:443,0
DA:444,0
DA:445,0
DA:446,0
DA:447,0
DA:448,0
DA:449,0
DA:450,0
DA:452,0
DA:455,0
DA:456,0
DA:457,0
DA:459,0
DA:460,0
DA:463,0
DA:464,0
DA:465,0
DA:466,0
DA:467,0
DA:468,0
DA:469,0
DA:470,0
DA:471,0
DA:472,0
DA:473,0
DA:474,0
DA:475,0
DA:476,0
DA:477,0
DA:478,0
DA:479,0
DA:480,0
DA:481,0
DA:482,0
DA:483,0
DA:484,0
DA:485,0
DA:486,0
DA:487,0
DA:488,0
DA:491,0
DA:492,0
DA:494,0
DA:495,0
DA:500,0
DA:501,0
DA:502,0
DA:503,0
DA:504,0
DA:505,0
DA:506,0
DA:507,0
DA:508,0
DA:509,0
DA:510,0
DA:512,0
DA:513,0
DA:514,0
DA:515,0
DA:516,0
DA:517,0
DA:518,0
DA:519,0
DA:520,0
DA:521,0
DA:522,0
DA:523,0
DA:524,0
DA:525,0
DA:526,0
DA:527,0
DA:528,0
DA:529,0
DA:530,0
DA:531,0
DA:532,0
DA:533,0
DA:534,0
DA:535,0
DA:536,0
DA:537,0
DA:538,0
DA:539,0
DA:540,0
DA:541,0
DA:542,0
DA:543,0
DA:544,0
DA:545,0
DA:546,0
DA:547,0
DA:548,0
DA:549,0
DA:550,0
DA:552,0
DA:554,0
DA:556,0
DA:560,0
DA:561,0
DA:567,0
DA:571,0
DA:573,0
DA:574,0
DA:575,0
DA:576,0
DA:577,0
DA:578,0
DA:579,0
DA:580,0
DA:581,0
DA:582,0
DA:583,0
DA:585,0
DA:586,0
DA:587,0
DA:588,0
DA:589,0
DA:590,0
DA:591,0
DA:592,0
DA:593,0
DA:594,0
DA:595,0
DA:596,0
DA:597,0
DA:598,0
DA:599,0
DA:600,0
DA:601,0
DA:602,0
DA:603,0
DA:604,0
DA:605,0
DA:606,0
DA:608,0
DA:609,0
DA:610,0
DA:611,0
DA:614,0
DA:615,0
DA:618,0
DA:619,0
DA:620,0
DA:621,0
DA:623,0
DA:624,0
DA:626,0
DA:628,0
DA:629,0
DA:630,0
DA:632,0
DA:634,0
DA:636,0
DA:651,0
DA:652,0
DA:655,0
DA:656,0
DA:658,0
DA:660,0
DA:661,0
DA:671,0
DA:674,0
DA:675,0
DA:676,0
DA:677,0
DA:678,0
DA:679,0
DA:680,0
DA:681,0
DA:684,0
DA:685,0
DA:686,0
DA:687,0
DA:689,0
DA:690,0
DA:697,0
DA:698,0
DA:699,0
DA:704,0
DA:705,0
DA:706,0
DA:707,0
DA:708,0
DA:709,0
DA:710,0
DA:716,0
DA:717,0
DA:718,0
BRF:0
BRH:0
LF:424
LH:91
end_of_record
SF:/Users/smeya/git/darwin-metrics/src/network/mod.rs
FN:181,_RNvNtNtCs6JXvGULNGKJ_14darwin_metrics7network5tests21create_mock_interface
FN:211,_RNvNtNtCs6JXvGULNGKJ_14darwin_metrics7network5tests27create_test_network_manager
FN:266,_RNvNtNtCs6JXvGULNGKJ_14darwin_metrics7network5testss_20test_network_manager
FN:246,_RNvNtNtCs6JXvGULNGKJ_14darwin_metrics7network5testss_25test_interface_properties
FN:300,_RNvNtNtCs6JXvGULNGKJ_14darwin_metrics7network5testss_25test_real_network_manager
FN:226,_RNvNtNtCs6JXvGULNGKJ_14darwin_metrics7network5testss_26test_network_metrics_trait
FNDA:5,_RNvNtNtCs6JXvGULNGKJ_14darwin_metrics7network5tests21create_mock_interface
FNDA:1,_RNvNtNtCs6JXvGULNGKJ_14darwin_metrics7network5tests27create_test_network_manager
FNDA:1,_RNvNtNtCs6JXvGULNGKJ_14darwin_metrics7network5testss_20test_network_manager
FNDA:1,_RNvNtNtCs6JXvGULNGKJ_14darwin_metrics7network5testss_25test_interface_properties
FNDA:0,_RNvNtNtCs6JXvGULNGKJ_14darwin_metrics7network5testss_25test_real_network_manager
FNDA:1,_RNvNtNtCs6JXvGULNGKJ_14darwin_metrics7network5testss_26test_network_metrics_trait
FNF:6
FNH:5
DA:181,5
DA:182,5
DA:183,5
DA:184,5
DA:185,5
DA:186,5
DA:187,2
DA:188,2
DA:189,2
DA:191,3
DA:194,5
DA:195,5
DA:196,5
DA:197,5
DA:198,5
DA:199,5
DA:200,5
DA:201,5
DA:202,5
DA:203,5
DA:204,5
DA:205,5
DA:206,5
DA:207,5
DA:208,5
DA:211,1
DA:212,1
DA:213,1
DA:214,1
DA:215,1
DA:216,1
DA:217,1
DA:218,1
DA:219,1
DA:220,1
DA:221,1
DA:222,1
DA:223,1
DA:226,1
DA:227,1
DA:228,1
DA:229,1
DA:230,1
DA:231,1
DA:232,1
DA:233,1
DA:234,1
DA:235,1
DA:236,1
DA:237,1
DA:238,1
DA:241,1
DA:242,1
DA:243,1
DA:246,1
DA:247,1
DA:248,1
DA:249,1
DA:250,1
DA:251,1
DA:252,1
DA:253,1
DA:255,1
DA:256,1
DA:258,1
DA:259,1
DA:261,1
DA:262,1
DA:263,1
DA:266,1
DA:267,1
DA:268,1
DA:269,1
DA:270,1
DA:271,1
DA:274,1
DA:275,1
DA:276,1
DA:278,1
DA:279,1
DA:280,1
DA:283,1
DA:284,1
DA:287,1
DA:288,1
DA:290,0
DA:292,1
DA:293,1
DA:300,0
DA:301,0
DA:304,0
DA:305,0
DA:306,0
DA:307,0
BRF:0
BRH:0
LF:94
LH:87
end_of_record
SF:/Users/smeya/git/darwin-metrics/src/network/traffic.rs
FN:225,_RNvMs_NtNtCs6JXvGULNGKJ_14darwin_metrics7network7trafficNtB4_14TrafficTracker15send_error_rate
FN:200,_RNvMs_NtNtCs6JXvGULNGKJ_14darwin_metrics7network7trafficNtB4_14TrafficTracker16packet_send_rate
FN:216,_RNvMs_NtNtCs6JXvGULNGKJ_14darwin_metrics7network7trafficNtB4_14TrafficTracker18receive_error_rate
FN:184,_RNvMs_NtNtCs6JXvGULNGKJ_14darwin_metrics7network7trafficNtB4_14TrafficTracker19packet_receive_rate
FN:34,_RNvMNtNtCs6JXvGULNGKJ_14darwin_metrics7network7trafficNtB2_11TrafficData3new
FN:120,_RNvMs_NtNtCs6JXvGULNGKJ_14darwin_metrics7network7trafficNtB4_14TrafficTracker10bytes_sent
FN:145,_RNvMs_NtNtCs6JXvGULNGKJ_14darwin_metrics7network7trafficNtB4_14TrafficTracker10collisions
FN:140,_RNvMs_NtNtCs6JXvGULNGKJ_14darwin_metrics7network7trafficNtB4_14TrafficTracker11send_errors
FN:130,_RNvMs_NtNtCs6JXvGULNGKJ_14darwin_metrics7network7trafficNtB4_14TrafficTracker12packets_sent
FN:168,_RNvMs_NtNtCs6JXvGULNGKJ_14darwin_metrics7network7trafficNtB4_14TrafficTracker12upload_speed
FN:115,_RNvMs_NtNtCs6JXvGULNGKJ_14darwin_metrics7network7trafficNtB4_14TrafficTracker14bytes_received
FN:151,_RNvMs_NtNtCs6JXvGULNGKJ_14darwin_metrics7network7trafficNtB4_14TrafficTracker14download_speed
FN:135,_RNvMs_NtNtCs6JXvGULNGKJ_14darwin_metrics7network7trafficNtB4_14TrafficTracker14receive_errors
FN:125,_RNvMs_NtNtCs6JXvGULNGKJ_14darwin_metrics7network7trafficNtB4_14TrafficTracker16packets_received
FN:68,_RNvMs_NtNtCs6JXvGULNGKJ_14darwin_metrics7network7trafficNtB4_14TrafficTracker3new
FN:92,_RNvMs_NtNtCs6JXvGULNGKJ_14darwin_metrics7network7trafficNtB4_14TrafficTracker6update
FN:34,_RNvMNtNtCsaakIWYUxKbY_14darwin_metrics7network7trafficNtB2_11TrafficData3new
FN:120,_RNvMs_NtNtCsaakIWYUxKbY_14darwin_metrics7network7trafficNtB4_14TrafficTracker10bytes_sent
FN:145,_RNvMs_NtNtCsaakIWYUxKbY_14darwin_metrics7network7trafficNtB4_14TrafficTracker10collisions
FN:140,_RNvMs_NtNtCsaakIWYUxKbY_14darwin_metrics7network7trafficNtB4_14TrafficTracker11send_errors
FN:130,_RNvMs_NtNtCsaakIWYUxKbY_14darwin_metrics7network7trafficNtB4_14TrafficTracker12packets_sent
FN:168,_RNvMs_NtNtCsaakIWYUxKbY_14darwin_metrics7network7trafficNtB4_14TrafficTracker12upload_speed
FN:115,_RNvMs_NtNtCsaakIWYUxKbY_14darwin_metrics7network7trafficNtB4_14TrafficTracker14bytes_received
FN:151,_RNvMs_NtNtCsaakIWYUxKbY_14darwin_metrics7network7trafficNtB4_14TrafficTracker14download_speed
FN:135,_RNvMs_NtNtCsaakIWYUxKbY_14darwin_metrics7network7trafficNtB4_14TrafficTracker14receive_errors
FN:225,_RNvMs_NtNtCsaakIWYUxKbY_14darwin_metrics7network7trafficNtB4_14TrafficTracker15send_error_rate
FN:200,_RNvMs_NtNtCsaakIWYUxKbY_14darwin_metrics7network7trafficNtB4_14TrafficTracker16packet_send_rate
FN:125,_RNvMs_NtNtCsaakIWYUxKbY_14darwin_metrics7network7trafficNtB4_14TrafficTracker16packets_received
FN:216,_RNvMs_NtNtCsaakIWYUxKbY_14darwin_metrics7network7trafficNtB4_14TrafficTracker18receive_error_rate
FN:184,_RNvMs_NtNtCsaakIWYUxKbY_14darwin_metrics7network7trafficNtB4_14TrafficTracker19packet_receive_rate
FN:68,_RNvMs_NtNtCsaakIWYUxKbY_14darwin_metrics7network7trafficNtB4_14TrafficTracker3new
FN:92,_RNvMs_NtNtCsaakIWYUxKbY_14darwin_metrics7network7trafficNtB4_14TrafficTracker6update
FNDA:0,_RNvMs_NtNtCs6JXvGULNGKJ_14darwin_metrics7network7trafficNtB4_14TrafficTracker15send_error_rate
FNDA:0,_RNvMs_NtNtCs6JXvGULNGKJ_14darwin_metrics7network7trafficNtB4_14TrafficTracker16packet_send_rate
FNDA:0,_RNvMs_NtNtCs6JXvGULNGKJ_14darwin_metrics7network7trafficNtB4_14TrafficTracker18receive_error_rate
FNDA:0,_RNvMs_NtNtCs6JXvGULNGKJ_14darwin_metrics7network7trafficNtB4_14TrafficTracker19packet_receive_rate
FNDA:5,_RNvMNtNtCs6JXvGULNGKJ_14darwin_metrics7network7trafficNtB2_11TrafficData3new
FNDA:1,_RNvMs_NtNtCs6JXvGULNGKJ_14darwin_metrics7network7trafficNtB4_14TrafficTracker10bytes_sent
FNDA:1,_RNvMs_NtNtCs6JXvGULNGKJ_14darwin_metrics7network7trafficNtB4_14TrafficTracker10collisions
FNDA:1,_RNvMs_NtNtCs6JXvGULNGKJ_14darwin_metrics7network7trafficNtB4_14TrafficTracker11send_errors
FNDA:1,_RNvMs_NtNtCs6JXvGULNGKJ_14darwin_metrics7network7trafficNtB4_14TrafficTracker12packets_sent
FNDA:3,_RNvMs_NtNtCs6JXvGULNGKJ_14darwin_metrics7network7trafficNtB4_14TrafficTracker12upload_speed
FNDA:1,_RNvMs_NtNtCs6JXvGULNGKJ_14darwin_metrics7network7trafficNtB4_14TrafficTracker14bytes_received
FNDA:3,_RNvMs_NtNtCs6JXvGULNGKJ_14darwin_metrics7network7trafficNtB4_14TrafficTracker14download_speed
FNDA:1,_RNvMs_NtNtCs6JXvGULNGKJ_14darwin_metrics7network7trafficNtB4_14TrafficTracker14receive_errors
FNDA:1,_RNvMs_NtNtCs6JXvGULNGKJ_14darwin_metrics7network7trafficNtB4_14TrafficTracker16packets_received
FNDA:5,_RNvMs_NtNtCs6JXvGULNGKJ_14darwin_metrics7network7trafficNtB4_14TrafficTracker3new
FNDA:0,_RNvMs_NtNtCs6JXvGULNGKJ_14darwin_metrics7network7trafficNtB4_14TrafficTracker6update
FNDA:0,_RNvMNtNtCsaakIWYUxKbY_14darwin_metrics7network7trafficNtB2_11TrafficData3new
FNDA:0,_RNvMs_NtNtCsaakIWYUxKbY_14darwin_metrics7network7trafficNtB4_14TrafficTracker10bytes_sent
FNDA:0,_RNvMs_NtNtCsaakIWYUxKbY_14darwin_metrics7network7trafficNtB4_14TrafficTracker10collisions
FNDA:0,_RNvMs_NtNtCsaakIWYUxKbY_14darwin_metrics7network7trafficNtB4_14TrafficTracker11send_errors
FNDA:0,_RNvMs_NtNtCsaakIWYUxKbY_14darwin_metrics7network7trafficNtB4_14TrafficTracker12packets_sent
FNDA:0,_RNvMs_NtNtCsaakIWYUxKbY_14darwin_metrics7network7trafficNtB4_14TrafficTracker12upload_speed
FNDA:0,_RNvMs_NtNtCsaakIWYUxKbY_14darwin_metrics7network7trafficNtB4_14TrafficTracker14bytes_received
FNDA:0,_RNvMs_NtNtCsaakIWYUxKbY_14darwin_metrics7network7trafficNtB4_14TrafficTracker14download_speed
FNDA:0,_RNvMs_NtNtCsaakIWYUxKbY_14darwin_metrics7network7trafficNtB4_14TrafficTracker14receive_errors
FNDA:0,_RNvMs_NtNtCsaakIWYUxKbY_14darwin_metrics7network7trafficNtB4_14TrafficTracker15send_error_rate
FNDA:0,_RNvMs_NtNtCsaakIWYUxKbY_14darwin_metrics7network7trafficNtB4_14TrafficTracker16packet_send_rate
FNDA:0,_RNvMs_NtNtCsaakIWYUxKbY_14darwin_metrics7network7trafficNtB4_14TrafficTracker16packets_received
FNDA:0,_RNvMs_NtNtCsaakIWYUxKbY_14darwin_metrics7network7trafficNtB4_14TrafficTracker18receive_error_rate
FNDA:0,_RNvMs_NtNtCsaakIWYUxKbY_14darwin_metrics7network7trafficNtB4_14TrafficTracker19packet_receive_rate
FNDA:0,_RNvMs_NtNtCsaakIWYUxKbY_14darwin_metrics7network7trafficNtB4_14TrafficTracker3new
FNDA:0,_RNvMs_NtNtCsaakIWYUxKbY_14darwin_metrics7network7trafficNtB4_14TrafficTracker6update
FNF:16
FNH:11
DA:34,5
DA:35,5
DA:36,5
DA:37,5
DA:38,5
DA:39,5
DA:40,5
DA:41,5
DA:42,5
DA:43,5
DA:44,5
DA:45,5
DA:46,5
DA:47,5
DA:48,5
DA:49,5
DA:50,5
DA:51,5
DA:52,5
DA:53,5
DA:68,5
DA:69,5
DA:70,5
DA:71,5
DA:72,5
DA:73,5
DA:74,5
DA:75,5
DA:76,5
DA:77,5
DA:78,5
DA:79,5
DA:80,5
DA:81,5
DA:82,5
DA:83,5
DA:84,5
DA:85,5
DA:86,5
DA:87,5
DA:88,5
DA:92,0
DA:93,0
DA:94,0
DA:95,0
DA:96,0
DA:97,0
DA:98,0
DA:99,0
DA:100,0
DA:101,0
DA:102,0
DA:103,0
DA:104,0
DA:105,0
DA:106,0
DA:107,0
DA:108,0
DA:109,0
DA:110,0
DA:111,0
DA:112,0
DA:115,1
DA:116,1
DA:117,1
DA:120,1
DA:121,1
DA:122,1
DA:125,1
DA:126,1
DA:127,1
DA:130,1
DA:131,1
DA:132,1
DA:135,1
DA:136,1
DA:137,1
DA:140,1
DA:141,1
DA:142,1
DA:145,1
DA:146,1
DA:147,1
DA:151,3
DA:152,3
DA:153,0
DA:154,0
DA:155,0
DA:156,0
DA:157,0
DA:159,0
DA:162,3
DA:164,3
DA:168,3
DA:169,3
DA:170,0
DA:171,0
DA:172,0
DA:173,0
DA:174,0
DA:176,0
DA:179,3
DA:181,3
DA:184,0
DA:185,0
DA:186,0
DA:187,0
DA:188,0
DA:189,0
DA:190,0
DA:192,0
DA:195,0
DA:197,0
DA:200,0
DA:201,0
DA:202,0
DA:203,0
DA:204,0
DA:205,0
DA:206,0
DA:208,0
DA:211,0
DA:213,0
DA:216,0
DA:217,0
DA:218,0
DA:220,0
DA:222,0
DA:225,0
DA:226,0
DA:227,0
DA:229,0
DA:231,0
BRF:0
BRH:0
LF:133
LH:70
end_of_record
SF:/Users/smeya/git/darwin-metrics/src/power/mod.rs
FN:174,_RNCNCNvMs0_NtCs6JXvGULNGKJ_14darwin_metrics5powerNtB9_5Power25is_power_throttling_async00Bb_
FN:154,_RNCNCNvMs0_NtCs6JXvGULNGKJ_14darwin_metrics5powerNtB9_5Power27get_power_consumption_async00Bb_
FN:182,_RNvMs0_NtCs6JXvGULNGKJ_14darwin_metrics5powerNtB5_5Power18read_smc_power_key
FN:160,_RNvMs0_NtCs6JXvGULNGKJ_14darwin_metrics5powerNtB5_5Power19is_power_throttling
FN:94,_RNvMs0_NtCs6JXvGULNGKJ_14darwin_metrics5powerNtB5_5Power21get_power_consumption
FN:169,_RNvMs0_NtCs6JXvGULNGKJ_14darwin_metrics5powerNtB5_5Power25is_power_throttling_async
FN:149,_RNvMs0_NtCs6JXvGULNGKJ_14darwin_metrics5powerNtB5_5Power27get_power_consumption_async
FN:89,_RNvMs0_NtCs6JXvGULNGKJ_14darwin_metrics5powerNtB5_5Power3new
FN:212,_RNvNtCs6JXvGULNGKJ_14darwin_metrics5power21get_power_consumption
FN:218,_RNvNtCs6JXvGULNGKJ_14darwin_metrics5power27get_power_consumption_async
FN:23,_RNvXNtCs6JXvGULNGKJ_14darwin_metrics5powerNtB2_10PowerErrorINtNtCs4P3ALgZxGbJ_4core7convert4FromNtNtB4_5error5ErrorE4from
FN:206,_RNvXs1_NtCs6JXvGULNGKJ_14darwin_metrics5powerNtB5_5PowerNtNtCs4P3ALgZxGbJ_4core5clone5Clone5clone
FN:82,_RNvXs_NtCs6JXvGULNGKJ_14darwin_metrics5powerNtB4_5PowerNtNtCs4P3ALgZxGbJ_4core7default7Default7default
FN:176,_RNCNCNvMs0_NtCs6JXvGULNGKJ_14darwin_metrics5powerNtB9_5Power25is_power_throttling_async0s_0Bb_
FN:156,_RNCNCNvMs0_NtCs6JXvGULNGKJ_14darwin_metrics5powerNtB9_5Power27get_power_consumption_async0s_0Bb_
FN:169,_RNCNvMs0_NtCs6JXvGULNGKJ_14darwin_metrics5powerNtB7_5Power25is_power_throttling_async0B9_
FN:149,_RNCNvMs0_NtCs6JXvGULNGKJ_14darwin_metrics5powerNtB7_5Power27get_power_consumption_async0B9_
FN:218,_RNCNvNtCs6JXvGULNGKJ_14darwin_metrics5power27get_power_consumption_async0B5_
FN:293,_RNCNvNtNtCs6JXvGULNGKJ_14darwin_metrics5power5testss_27test_power_throttling_async0B7_
FN:281,_RNCNvNtNtCs6JXvGULNGKJ_14darwin_metrics5power5testss_28test_power_consumption_async0B7_
FN:313,_RNCNvNtNtCs6JXvGULNGKJ_14darwin_metrics5power5testss_32test_convenience_functions_async0B7_
FN:228,_RNvNtNtCs6JXvGULNGKJ_14darwin_metrics5power5testss_14test_power_new
FN:322,_RNvNtNtCs6JXvGULNGKJ_14darwin_metrics5power5testss_21test_power_state_enum
FN:250,_RNvNtNtCs6JXvGULNGKJ_14darwin_metrics5power5testss_21test_power_throttling
FN:235,_RNvNtNtCs6JXvGULNGKJ_14darwin_metrics5power5testss_22test_power_consumption
FN:261,_RNvNtNtCs6JXvGULNGKJ_14darwin_metrics5power5testss_23test_read_smc_power_key
FN:304,_RNvNtNtCs6JXvGULNGKJ_14darwin_metrics5power5testss_26test_convenience_functions
FN:354,_RNvNtNtCs6JXvGULNGKJ_14darwin_metrics5power5testss_27test_power_error_conversion
FN:293,_RNvNtNtCs6JXvGULNGKJ_14darwin_metrics5power5testss_27test_power_throttling_async
FN:281,_RNvNtNtCs6JXvGULNGKJ_14darwin_metrics5power5testss_28test_power_consumption_async
FN:331,_RNvNtNtCs6JXvGULNGKJ_14darwin_metrics5power5testss_29test_power_consumption_struct
FN:313,_RNvNtNtCs6JXvGULNGKJ_14darwin_metrics5power5testss_32test_convenience_functions_async
FN:182,_RNvMs0_NtCsaakIWYUxKbY_14darwin_metrics5powerNtB5_5Power18read_smc_power_key
FN:160,_RNvMs0_NtCsaakIWYUxKbY_14darwin_metrics5powerNtB5_5Power19is_power_throttling
FN:94,_RNvMs0_NtCsaakIWYUxKbY_14darwin_metrics5powerNtB5_5Power21get_power_consumption
FN:169,_RNvMs0_NtCsaakIWYUxKbY_14darwin_metrics5powerNtB5_5Power25is_power_throttling_async
FN:149,_RNvMs0_NtCsaakIWYUxKbY_14darwin_metrics5powerNtB5_5Power27get_power_consumption_async
FN:89,_RNvMs0_NtCsaakIWYUxKbY_14darwin_metrics5powerNtB5_5Power3new
FN:212,_RNvNtCsaakIWYUxKbY_14darwin_metrics5power21get_power_consumption
FN:218,_RNvNtCsaakIWYUxKbY_14darwin_metrics5power27get_power_consumption_async
FN:23,_RNvXNtCsaakIWYUxKbY_14darwin_metrics5powerNtB2_10PowerErrorINtNtCs4P3ALgZxGbJ_4core7convert4FromNtNtB4_5error5ErrorE4from
FN:206,_RNvXs1_NtCsaakIWYUxKbY_14darwin_metrics5powerNtB5_5PowerNtNtCs4P3ALgZxGbJ_4core5clone5Clone5clone
FN:82,_RNvXs_NtCsaakIWYUxKbY_14darwin_metrics5powerNtB4_5PowerNtNtCs4P3ALgZxGbJ_4core7default7Default7default
FN:174,_RNCNCNvMs0_NtCsaakIWYUxKbY_14darwin_metrics5powerNtB9_5Power25is_power_throttling_async00Bb_
FN:176,_RNCNCNvMs0_NtCsaakIWYUxKbY_14darwin_metrics5powerNtB9_5Power25is_power_throttling_async0s_0Bb_
FN:154,_RNCNCNvMs0_NtCsaakIWYUxKbY_14darwin_metrics5powerNtB9_5Power27get_power_consumption_async00Bb_
FN:156,_RNCNCNvMs0_NtCsaakIWYUxKbY_14darwin_metrics5powerNtB9_5Power27get_power_consumption_async0s_0Bb_
FN:169,_RNCNvMs0_NtCsaakIWYUxKbY_14darwin_metrics5powerNtB7_5Power25is_power_throttling_async0B9_
FN:149,_RNCNvMs0_NtCsaakIWYUxKbY_14darwin_metrics5powerNtB7_5Power27get_power_consumption_async0B9_
FN:218,_RNCNvNtCsaakIWYUxKbY_14darwin_metrics5power27get_power_consumption_async0B5_
FNDA:1,_RNCNCNvMs0_NtCs6JXvGULNGKJ_14darwin_metrics5powerNtB9_5Power25is_power_throttling_async00Bb_
FNDA:2,_RNCNCNvMs0_NtCs6JXvGULNGKJ_14darwin_metrics5powerNtB9_5Power27get_power_consumption_async00Bb_
FNDA:25,_RNvMs0_NtCs6JXvGULNGKJ_14darwin_metrics5powerNtB5_5Power18read_smc_power_key
FNDA:2,_RNvMs0_NtCs6JXvGULNGKJ_14darwin_metrics5powerNtB5_5Power19is_power_throttling
FNDA:4,_RNvMs0_NtCs6JXvGULNGKJ_14darwin_metrics5powerNtB5_5Power21get_power_consumption
FNDA:1,_RNvMs0_NtCs6JXvGULNGKJ_14darwin_metrics5powerNtB5_5Power25is_power_throttling_async
FNDA:2,_RNvMs0_NtCs6JXvGULNGKJ_14darwin_metrics5powerNtB5_5Power27get_power_consumption_async
FNDA:8,_RNvMs0_NtCs6JXvGULNGKJ_14darwin_metrics5powerNtB5_5Power3new
FNDA:1,_RNvNtCs6JXvGULNGKJ_14darwin_metrics5power21get_power_consumption
FNDA:1,_RNvNtCs6JXvGULNGKJ_14darwin_metrics5power27get_power_consumption_async
FNDA:3,_RNvXNtCs6JXvGULNGKJ_14darwin_metrics5powerNtB2_10PowerErrorINtNtCs4P3ALgZxGbJ_4core7convert4FromNtNtB4_5error5ErrorE4from
FNDA:3,_RNvXs1_NtCs6JXvGULNGKJ_14darwin_metrics5powerNtB5_5PowerNtNtCs4P3ALgZxGbJ_4core5clone5Clone5clone
FNDA:8,_RNvXs_NtCs6JXvGULNGKJ_14darwin_metrics5powerNtB4_5PowerNtNtCs4P3ALgZxGbJ_4core7default7Default7default
FNDA:0,_RNCNCNvMs0_NtCs6JXvGULNGKJ_14darwin_metrics5powerNtB9_5Power25is_power_throttling_async0s_0Bb_
FNDA:0,_RNCNCNvMs0_NtCs6JXvGULNGKJ_14darwin_metrics5powerNtB9_5Power27get_power_consumption_async0s_0Bb_
FNDA:1,_RNCNvMs0_NtCs6JXvGULNGKJ_14darwin_metrics5powerNtB7_5Power25is_power_throttling_async0B9_
FNDA:2,_RNCNvMs0_NtCs6JXvGULNGKJ_14darwin_metrics5powerNtB7_5Power27get_power_consumption_async0B9_
FNDA:1,_RNCNvNtCs6JXvGULNGKJ_14darwin_metrics5power27get_power_consumption_async0B5_
FNDA:1,_RNCNvNtNtCs6JXvGULNGKJ_14darwin_metrics5power5testss_27test_power_throttling_async0B7_
FNDA:1,_RNCNvNtNtCs6JXvGULNGKJ_14darwin_metrics5power5testss_28test_power_consumption_async0B7_
FNDA:1,_RNCNvNtNtCs6JXvGULNGKJ_14darwin_metrics5power5testss_32test_convenience_functions_async0B7_
FNDA:1,_RNvNtNtCs6JXvGULNGKJ_14darwin_metrics5power5testss_14test_power_new
FNDA:1,_RNvNtNtCs6JXvGULNGKJ_14darwin_metrics5power5testss_21test_power_state_enum
FNDA:1,_RNvNtNtCs6JXvGULNGKJ_14darwin_metrics5power5testss_21test_power_throttling
FNDA:1,_RNvNtNtCs6JXvGULNGKJ_14darwin_metrics5power5testss_22test_power_consumption
FNDA:1,_RNvNtNtCs6JXvGULNGKJ_14darwin_metrics5power5testss_23test_read_smc_power_key
FNDA:1,_RNvNtNtCs6JXvGULNGKJ_14darwin_metrics5power5testss_26test_convenience_functions
FNDA:1,_RNvNtNtCs6JXvGULNGKJ_14darwin_metrics5power5testss_27test_power_error_conversion
FNDA:1,_RNvNtNtCs6JXvGULNGKJ_14darwin_metrics5power5testss_27test_power_throttling_async
FNDA:1,_RNvNtNtCs6JXvGULNGKJ_14darwin_metrics5power5testss_28test_power_consumption_async
FNDA:1,_RNvNtNtCs6JXvGULNGKJ_14darwin_metrics5power5testss_29test_power_consumption_struct
FNDA:1,_RNvNtNtCs6JXvGULNGKJ_14darwin_metrics5power5testss_32test_convenience_functions_async
FNDA:0,_RNvMs0_NtCsaakIWYUxKbY_14darwin_metrics5powerNtB5_5Power18read_smc_power_key
FNDA:0,_RNvMs0_NtCsaakIWYUxKbY_14darwin_metrics5powerNtB5_5Power19is_power_throttling
FNDA:0,_RNvMs0_NtCsaakIWYUxKbY_14darwin_metrics5powerNtB5_5Power21get_power_consumption
FNDA:0,_RNvMs0_NtCsaakIWYUxKbY_14darwin_metrics5powerNtB5_5Power25is_power_throttling_async
FNDA:0,_RNvMs0_NtCsaakIWYUxKbY_14darwin_metrics5powerNtB5_5Power27get_power_consumption_async
FNDA:0,_RNvMs0_NtCsaakIWYUxKbY_14darwin_metrics5powerNtB5_5Power3new
FNDA:0,_RNvNtCsaakIWYUxKbY_14darwin_metrics5power21get_power_consumption
FNDA:0,_RNvNtCsaakIWYUxKbY_14darwin_metrics5power27get_power_consumption_async
FNDA:0,_RNvXNtCsaakIWYUxKbY_14darwin_metrics5powerNtB2_10PowerErrorINtNtCs4P3ALgZxGbJ_4core7convert4FromNtNtB4_5error5ErrorE4from
FNDA:0,_RNvXs1_NtCsaakIWYUxKbY_14darwin_metrics5powerNtB5_5PowerNtNtCs4P3ALgZxGbJ_4core5clone5Clone5clone
FNDA:0,_RNvXs_NtCsaakIWYUxKbY_14darwin_metrics5powerNtB4_5PowerNtNtCs4P3ALgZxGbJ_4core7default7Default7default
FNDA:0,_RNCNCNvMs0_NtCsaakIWYUxKbY_14darwin_metrics5powerNtB9_5Power25is_power_throttling_async00Bb_
FNDA:0,_RNCNCNvMs0_NtCsaakIWYUxKbY_14darwin_metrics5powerNtB9_5Power25is_power_throttling_async0s_0Bb_
FNDA:0,_RNCNCNvMs0_NtCsaakIWYUxKbY_14darwin_metrics5powerNtB9_5Power27get_power_consumption_async00Bb_
FNDA:0,_RNCNCNvMs0_NtCsaakIWYUxKbY_14darwin_metrics5powerNtB9_5Power27get_power_consumption_async0s_0Bb_
FNDA:0,_RNCNvMs0_NtCsaakIWYUxKbY_14darwin_metrics5powerNtB7_5Power25is_power_throttling_async0B9_
FNDA:0,_RNCNvMs0_NtCsaakIWYUxKbY_14darwin_metrics5powerNtB7_5Power27get_power_consumption_async0B9_
FNDA:0,_RNCNvNtCsaakIWYUxKbY_14darwin_metrics5power27get_power_consumption_async0B5_
FNF:32
FNH:30
DA:23,3
DA:24,3
DA:25,1
DA:26,1
DA:27,1
DA:28,0
DA:30,3
DA:82,8
DA:83,8
DA:84,8
DA:89,8
DA:90,8
DA:91,8
DA:94,4
DA:95,4
DA:96,4
DA:97,4
DA:98,4
DA:99,4
DA:100,4
DA:101,4
DA:102,4
DA:105,4
DA:106,4
DA:107,0
DA:111,4
DA:112,4
DA:113,0
DA:117,4
DA:118,4
DA:119,0
DA:124,4
DA:125,4
DA:128,4
DA:129,4
DA:130,4
DA:131,4
DA:133,0
DA:136,4
DA:137,4
DA:138,4
DA:139,4
DA:140,4
DA:141,4
DA:142,4
DA:143,4
DA:144,4
DA:145,4
DA:146,4
DA:149,2
DA:153,2
DA:154,2
DA:155,2
DA:156,2
DA:157,2
DA:160,2
DA:161,2
DA:162,2
DA:163,2
DA:164,2
DA:165,2
DA:166,2
DA:169,1
DA:173,1
DA:174,1
DA:175,1
DA:176,1
DA:177,1
DA:182,25
DA:183,25
DA:184,25
DA:185,25
DA:186,25
DA:187,25
DA:188,25
DA:191,25
DA:192,25
DA:193,20
DA:194,16
DA:195,11
DA:196,7
DA:197,3
DA:198,1
DA:201,25
DA:202,25
DA:206,3
DA:207,3
DA:208,3
DA:212,1
DA:213,1
DA:214,1
DA:215,1
DA:218,1
DA:219,1
DA:220,1
DA:221,1
DA:228,1
DA:229,1
DA:230,1
DA:231,1
DA:232,1
DA:235,1
DA:236,1
DA:237,1
DA:238,1
DA:240,1
DA:241,1
DA:242,1
DA:243,1
DA:244,1
DA:245,1
DA:246,1
DA:247,1
DA:250,1
DA:251,1
DA:252,1
DA:253,1
DA:256,1
DA:257,1
DA:258,1
DA:261,1
DA:262,1
DA:263,1
DA:264,1
DA:265,1
DA:266,1
DA:267,1
DA:269,1
DA:270,1
DA:271,1
DA:274,1
DA:275,1
DA:276,1
DA:277,1
DA:278,1
DA:281,1
DA:282,1
DA:283,1
DA:284,1
DA:285,1
DA:286,1
DA:287,1
DA:288,1
DA:289,1
DA:290,1
DA:293,1
DA:294,1
DA:295,1
DA:296,1
DA:297,1
DA:298,1
DA:299,1
DA:300,1
DA:301,1
DA:304,1
DA:305,1
DA:306,1
DA:308,1
DA:309,1
DA:310,1
DA:313,1
DA:314,1
DA:315,1
DA:316,1
DA:317,1
DA:318,1
DA:319,1
DA:322,1
DA:323,1
DA:324,1
DA:325,1
DA:326,1
DA:327,1
DA:328,1
DA:331,1
DA:332,1
DA:333,1
DA:334,1
DA:335,1
DA:336,1
DA:337,1
DA:338,1
DA:339,1
DA:340,1
DA:341,1
DA:342,1
DA:343,1
DA:344,1
DA:345,1
DA:346,1
DA:347,1
DA:348,1
DA:349,1
DA:350,1
DA:351,1
DA:354,1
DA:355,1
DA:356,1
DA:357,1
DA:359,1
DA:360,1
DA:361,1
DA:363,1
DA:364,1
DA:365,1
DA:366,1
BRF:0
BRH:0
LF:232
LH:225
end_of_record
SF:/Users/smeya/git/darwin-metrics/src/process/mod.rs
FN:81,_RINvMs0_NtCs6JXvGULNGKJ_14darwin_metrics7processNtB6_7Process3newpEB8_
FN:342,_RNCNCNvMs0_NtCs6JXvGULNGKJ_14darwin_metrics7processNtB9_7Process22get_process_start_time00Bb_
FN:405,_RNCNvMs0_NtCs6JXvGULNGKJ_14darwin_metrics7processNtB7_7Process19get_child_processes0B9_
FN:340,_RNCNvMs0_NtCs6JXvGULNGKJ_14darwin_metrics7processNtB7_7Process22get_process_start_time0B9_
FN:506,_RNCNvXs1_NtCs6JXvGULNGKJ_14darwin_metrics7processNtB7_7ProcessNtNtCs4P3ALgZxGbJ_4core3fmt5Debug3fmt0B9_
FN:544,_RNCNvXs4_NtCs6JXvGULNGKJ_14darwin_metrics7processNtB7_20ProcessMetricsStreamNtNtCs4P3ALgZxGbJ_4core3fmt5Debug3fmt0B9_
FN:578,_RNCNvXs6_NtCs6JXvGULNGKJ_14darwin_metrics7processNtB7_20ProcessMetricsStreamNtNtCshh1KxnQJceN_12futures_core6stream6Stream9poll_next0B9_
FN:375,_RNvMs0_NtCs6JXvGULNGKJ_14darwin_metrics7processNtB5_7Process15monitor_metrics
FN:422,_RNvMs0_NtCs6JXvGULNGKJ_14darwin_metrics7processNtB5_7Process17is_system_process
FN:405,_RNvMs0_NtCs6JXvGULNGKJ_14darwin_metrics7processNtB5_7Process19get_child_processes
FN:340,_RNvMs0_NtCs6JXvGULNGKJ_14darwin_metrics7processNtB5_7Process22get_process_start_time
FN:534,_RNvMs3_NtCs6JXvGULNGKJ_14darwin_metrics7processNtB5_20ProcessMetricsStream3new
FN:33,_RNvXNtCs6JXvGULNGKJ_14darwin_metrics7processNtB2_14ProcessIOStatsNtNtCs4P3ALgZxGbJ_4core3fmt5Debug3fmt
FN:496,_RNvXs1_NtCs6JXvGULNGKJ_14darwin_metrics7processNtB5_7ProcessNtNtCs4P3ALgZxGbJ_4core3fmt5Debug3fmt
FN:540,_RNvXs4_NtCs6JXvGULNGKJ_14darwin_metrics7processNtB5_20ProcessMetricsStreamNtNtCs4P3ALgZxGbJ_4core3fmt5Debug3fmt
FN:550,_RNvXs5_NtCs6JXvGULNGKJ_14darwin_metrics7processNtB5_20ProcessMetricsStreamNtNtCs4P3ALgZxGbJ_4core5clone5Clone5clone
FN:562,_RNvXs6_NtCs6JXvGULNGKJ_14darwin_metrics7processNtB5_20ProcessMetricsStreamNtNtCshh1KxnQJceN_12futures_core6stream6Stream9poll_next
FN:60,_RNCNvNtCs6JXvGULNGKJ_14darwin_metrics7process11CPU_HISTORY0B5_
FN:205,_RNvMs0_NtCs6JXvGULNGKJ_14darwin_metrics7processNtB5_7Process10get_by_pid
FN:383,_RNvMs0_NtCs6JXvGULNGKJ_14darwin_metrics7processNtB5_7Process14get_parent_pid
FN:427,_RNvMs0_NtCs6JXvGULNGKJ_14darwin_metrics7processNtB5_7Process16get_process_tree
FN:109,_RNvMs0_NtCs6JXvGULNGKJ_14darwin_metrics7processNtB5_7Process18get_all_via_sysctl
FN:276,_RNvMs0_NtCs6JXvGULNGKJ_14darwin_metrics7processNtB5_7Process19calculate_cpu_usage
FN:183,_RNvMs0_NtCs6JXvGULNGKJ_14darwin_metrics7processNtB5_7Process19get_all_via_libproc
FN:323,_RNvMs0_NtCs6JXvGULNGKJ_14darwin_metrics7processNtB5_7Process20get_process_io_stats
FN:97,_RNvMs0_NtCs6JXvGULNGKJ_14darwin_metrics7processNtB5_7Process7get_all
FN:64,_RNvNtCs6JXvGULNGKJ_14darwin_metrics7process15get_cpu_history
FN:512,_RNvXs2_NtCs6JXvGULNGKJ_14darwin_metrics7processNtB5_7ProcessNtNtCs4P3ALgZxGbJ_4core5clone5Clone5clone
FN:44,_RNvXs_NtCs6JXvGULNGKJ_14darwin_metrics7processNtB4_14ProcessIOStatsNtNtCs4P3ALgZxGbJ_4core5clone5Clone5clone
FN:206,_RNCNCNvMs0_NtCs6JXvGULNGKJ_14darwin_metrics7processNtB9_7Process10get_by_pid00Bb_
FN:211,_RNCNCNvMs0_NtCs6JXvGULNGKJ_14darwin_metrics7processNtB9_7Process10get_by_pid0s_0Bb_
FN:390,_RNCNCNvMs0_NtCs6JXvGULNGKJ_14darwin_metrics7processNtB9_7Process14get_parent_pid00Bb_
FN:186,_RNCNCNvMs0_NtCs6JXvGULNGKJ_14darwin_metrics7processNtB9_7Process19get_all_via_libproc00Bb_
FN:326,_RNCNCNvMs0_NtCs6JXvGULNGKJ_14darwin_metrics7processNtB9_7Process20get_process_io_stats00Bb_
FN:706,_RNCNCNvNtNtCs6JXvGULNGKJ_14darwin_metrics7process5testss_17test_process_tree00B9_
FN:635,_RNCNCNvNtNtCs6JXvGULNGKJ_14darwin_metrics7process5testss_22test_get_all_processes00B9_
FN:205,_RNCNvMs0_NtCs6JXvGULNGKJ_14darwin_metrics7processNtB7_7Process10get_by_pid0B9_
FN:383,_RNCNvMs0_NtCs6JXvGULNGKJ_14darwin_metrics7processNtB7_7Process14get_parent_pid0B9_
FN:427,_RNCNvMs0_NtCs6JXvGULNGKJ_14darwin_metrics7processNtB7_7Process16get_process_tree0B9_
FN:109,_RNCNvMs0_NtCs6JXvGULNGKJ_14darwin_metrics7processNtB7_7Process18get_all_via_sysctl0B9_
FN:183,_RNCNvMs0_NtCs6JXvGULNGKJ_14darwin_metrics7processNtB7_7Process19get_all_via_libproc0B9_
FN:323,_RNCNvMs0_NtCs6JXvGULNGKJ_14darwin_metrics7processNtB7_7Process20get_process_io_stats0B9_
FN:97,_RNCNvMs0_NtCs6JXvGULNGKJ_14darwin_metrics7processNtB7_7Process7get_all0B9_
FN:678,_RNCNvNtNtCs6JXvGULNGKJ_14darwin_metrics7process5testss_17test_process_tree0B7_
FN:619,_RNCNvNtNtCs6JXvGULNGKJ_14darwin_metrics7process5testss_22test_get_all_processes0B7_
FN:604,_RNCNvNtNtCs6JXvGULNGKJ_14darwin_metrics7process5testss_24test_get_current_process0B7_
FN:649,_RNCNvNtNtCs6JXvGULNGKJ_14darwin_metrics7process5testss_30test_parent_child_relationship0B7_
FN:678,_RNvNtNtCs6JXvGULNGKJ_14darwin_metrics7process5testss_17test_process_tree
FN:619,_RNvNtNtCs6JXvGULNGKJ_14darwin_metrics7process5testss_22test_get_all_processes
FN:604,_RNvNtNtCs6JXvGULNGKJ_14darwin_metrics7process5testss_24test_get_current_process
FN:649,_RNvNtNtCs6JXvGULNGKJ_14darwin_metrics7process5testss_30test_parent_child_relationship
FN:81,_RINvMs0_NtCsaakIWYUxKbY_14darwin_metrics7processNtB6_7Process3newpEB8_
FN:390,_RNCNCNvMs0_NtCsaakIWYUxKbY_14darwin_metrics7processNtB9_7Process14get_parent_pid00Bb_
FN:186,_RNCNCNvMs0_NtCsaakIWYUxKbY_14darwin_metrics7processNtB9_7Process19get_all_via_libproc00Bb_
FN:342,_RNCNCNvMs0_NtCsaakIWYUxKbY_14darwin_metrics7processNtB9_7Process22get_process_start_time00Bb_
FN:383,_RNCNvMs0_NtCsaakIWYUxKbY_14darwin_metrics7processNtB7_7Process14get_parent_pid0B9_
FN:427,_RNCNvMs0_NtCsaakIWYUxKbY_14darwin_metrics7processNtB7_7Process16get_process_tree0B9_
FN:109,_RNCNvMs0_NtCsaakIWYUxKbY_14darwin_metrics7processNtB7_7Process18get_all_via_sysctl0B9_
FN:183,_RNCNvMs0_NtCsaakIWYUxKbY_14darwin_metrics7processNtB7_7Process19get_all_via_libproc0B9_
FN:405,_RNCNvMs0_NtCsaakIWYUxKbY_14darwin_metrics7processNtB7_7Process19get_child_processes0B9_
FN:340,_RNCNvMs0_NtCsaakIWYUxKbY_14darwin_metrics7processNtB7_7Process22get_process_start_time0B9_
FN:97,_RNCNvMs0_NtCsaakIWYUxKbY_14darwin_metrics7processNtB7_7Process7get_all0B9_
FN:206,_RNCNCNvMs0_NtCsaakIWYUxKbY_14darwin_metrics7processNtB9_7Process10get_by_pid00Bb_
FN:211,_RNCNCNvMs0_NtCsaakIWYUxKbY_14darwin_metrics7processNtB9_7Process10get_by_pid0s_0Bb_
FN:326,_RNCNCNvMs0_NtCsaakIWYUxKbY_14darwin_metrics7processNtB9_7Process20get_process_io_stats00Bb_
FN:205,_RNCNvMs0_NtCsaakIWYUxKbY_14darwin_metrics7processNtB7_7Process10get_by_pid0B9_
FN:323,_RNCNvMs0_NtCsaakIWYUxKbY_14darwin_metrics7processNtB7_7Process20get_process_io_stats0B9_
FN:60,_RNCNvNtCsaakIWYUxKbY_14darwin_metrics7process11CPU_HISTORY0B5_
FN:506,_RNCNvXs1_NtCsaakIWYUxKbY_14darwin_metrics7processNtB7_7ProcessNtNtCs4P3ALgZxGbJ_4core3fmt5Debug3fmt0B9_
FN:544,_RNCNvXs4_NtCsaakIWYUxKbY_14darwin_metrics7processNtB7_20ProcessMetricsStreamNtNtCs4P3ALgZxGbJ_4core3fmt5Debug3fmt0B9_
FN:578,_RNCNvXs6_NtCsaakIWYUxKbY_14darwin_metrics7processNtB7_20ProcessMetricsStreamNtNtCshh1KxnQJceN_12futures_core6stream6Stream9poll_next0B9_
FN:205,_RNvMs0_NtCsaakIWYUxKbY_14darwin_metrics7processNtB5_7Process10get_by_pid
FN:383,_RNvMs0_NtCsaakIWYUxKbY_14darwin_metrics7processNtB5_7Process14get_parent_pid
FN:375,_RNvMs0_NtCsaakIWYUxKbY_14darwin_metrics7processNtB5_7Process15monitor_metrics
FN:427,_RNvMs0_NtCsaakIWYUxKbY_14darwin_metrics7processNtB5_7Process16get_process_tree
FN:422,_RNvMs0_NtCsaakIWYUxKbY_14darwin_metrics7processNtB5_7Process17is_system_process
FN:109,_RNvMs0_NtCsaakIWYUxKbY_14darwin_metrics7processNtB5_7Process18get_all_via_sysctl
FN:276,_RNvMs0_NtCsaakIWYUxKbY_14darwin_metrics7processNtB5_7Process19calculate_cpu_usage
FN:183,_RNvMs0_NtCsaakIWYUxKbY_14darwin_metrics7processNtB5_7Process19get_all_via_libproc
FN:405,_RNvMs0_NtCsaakIWYUxKbY_14darwin_metrics7processNtB5_7Process19get_child_processes
FN:323,_RNvMs0_NtCsaakIWYUxKbY_14darwin_metrics7processNtB5_7Process20get_process_io_stats
FN:340,_RNvMs0_NtCsaakIWYUxKbY_14darwin_metrics7processNtB5_7Process22get_process_start_time
FN:97,_RNvMs0_NtCsaakIWYUxKbY_14darwin_metrics7processNtB5_7Process7get_all
FN:534,_RNvMs3_NtCsaakIWYUxKbY_14darwin_metrics7processNtB5_20ProcessMetricsStream3new
FN:64,_RNvNtCsaakIWYUxKbY_14darwin_metrics7process15get_cpu_history
FN:33,_RNvXNtCsaakIWYUxKbY_14darwin_metrics7processNtB2_14ProcessIOStatsNtNtCs4P3ALgZxGbJ_4core3fmt5Debug3fmt
FN:496,_RNvXs1_NtCsaakIWYUxKbY_14darwin_metrics7processNtB5_7ProcessNtNtCs4P3ALgZxGbJ_4core3fmt5Debug3fmt
FN:512,_RNvXs2_NtCsaakIWYUxKbY_14darwin_metrics7processNtB5_7ProcessNtNtCs4P3ALgZxGbJ_4core5clone5Clone5clone
FN:540,_RNvXs4_NtCsaakIWYUxKbY_14darwin_metrics7processNtB5_20ProcessMetricsStreamNtNtCs4P3ALgZxGbJ_4core3fmt5Debug3fmt
FN:550,_RNvXs5_NtCsaakIWYUxKbY_14darwin_metrics7processNtB5_20ProcessMetricsStreamNtNtCs4P3ALgZxGbJ_4core5clone5Clone5clone
FN:562,_RNvXs6_NtCsaakIWYUxKbY_14darwin_metrics7processNtB5_20ProcessMetricsStreamNtNtCshh1KxnQJceN_12futures_core6stream6Stream9poll_next
FN:44,_RNvXs_NtCsaakIWYUxKbY_14darwin_metrics7processNtB4_14ProcessIOStatsNtNtCs4P3ALgZxGbJ_4core5clone5Clone5clone
FNDA:0,_RINvMs0_NtCs6JXvGULNGKJ_14darwin_metrics7processNtB6_7Process3newpEB8_
FNDA:0,_RNCNCNvMs0_NtCs6JXvGULNGKJ_14darwin_metrics7processNtB9_7Process22get_process_start_time00Bb_
FNDA:0,_RNCNvMs0_NtCs6JXvGULNGKJ_14darwin_metrics7processNtB7_7Process19get_child_processes0B9_
FNDA:0,_RNCNvMs0_NtCs6JXvGULNGKJ_14darwin_metrics7processNtB7_7Process22get_process_start_time0B9_
FNDA:0,_RNCNvXs1_NtCs6JXvGULNGKJ_14darwin_metrics7processNtB7_7ProcessNtNtCs4P3ALgZxGbJ_4core3fmt5Debug3fmt0B9_
FNDA:0,_RNCNvXs4_NtCs6JXvGULNGKJ_14darwin_metrics7processNtB7_20ProcessMetricsStreamNtNtCs4P3ALgZxGbJ_4core3fmt5Debug3fmt0B9_
FNDA:0,_RNCNvXs6_NtCs6JXvGULNGKJ_14darwin_metrics7processNtB7_20ProcessMetricsStreamNtNtCshh1KxnQJceN_12futures_core6stream6Stream9poll_next0B9_
FNDA:0,_RNvMs0_NtCs6JXvGULNGKJ_14darwin_metrics7processNtB5_7Process15monitor_metrics
FNDA:0,_RNvMs0_NtCs6JXvGULNGKJ_14darwin_metrics7processNtB5_7Process17is_system_process
FNDA:0,_RNvMs0_NtCs6JXvGULNGKJ_14darwin_metrics7processNtB5_7Process19get_child_processes
FNDA:0,_RNvMs0_NtCs6JXvGULNGKJ_14darwin_metrics7processNtB5_7Process22get_process_start_time
FNDA:0,_RNvMs3_NtCs6JXvGULNGKJ_14darwin_metrics7processNtB5_20ProcessMetricsStream3new
FNDA:0,_RNvXNtCs6JXvGULNGKJ_14darwin_metrics7processNtB2_14ProcessIOStatsNtNtCs4P3ALgZxGbJ_4core3fmt5Debug3fmt
FNDA:0,_RNvXs1_NtCs6JXvGULNGKJ_14darwin_metrics7processNtB5_7ProcessNtNtCs4P3ALgZxGbJ_4core3fmt5Debug3fmt
FNDA:0,_RNvXs4_NtCs6JXvGULNGKJ_14darwin_metrics7processNtB5_20ProcessMetricsStreamNtNtCs4P3ALgZxGbJ_4core3fmt5Debug3fmt
FNDA:0,_RNvXs5_NtCs6JXvGULNGKJ_14darwin_metrics7processNtB5_20ProcessMetricsStreamNtNtCs4P3ALgZxGbJ_4core5clone5Clone5clone
FNDA:0,_RNvXs6_NtCs6JXvGULNGKJ_14darwin_metrics7processNtB5_20ProcessMetricsStreamNtNtCshh1KxnQJceN_12futures_core6stream6Stream9poll_next
FNDA:1,_RNCNvNtCs6JXvGULNGKJ_14darwin_metrics7process11CPU_HISTORY0B5_
FNDA:1431,_RNvMs0_NtCs6JXvGULNGKJ_14darwin_metrics7processNtB5_7Process10get_by_pid
FNDA:769,_RNvMs0_NtCs6JXvGULNGKJ_14darwin_metrics7processNtB5_7Process14get_parent_pid
FNDA:1,_RNvMs0_NtCs6JXvGULNGKJ_14darwin_metrics7processNtB5_7Process16get_process_tree
FNDA:1,_RNvMs0_NtCs6JXvGULNGKJ_14darwin_metrics7processNtB5_7Process18get_all_via_sysctl
FNDA:387,_RNvMs0_NtCs6JXvGULNGKJ_14darwin_metrics7processNtB5_7Process19calculate_cpu_usage
FNDA:1,_RNvMs0_NtCs6JXvGULNGKJ_14darwin_metrics7processNtB5_7Process19get_all_via_libproc
FNDA:387,_RNvMs0_NtCs6JXvGULNGKJ_14darwin_metrics7processNtB5_7Process20get_process_io_stats
FNDA:1,_RNvMs0_NtCs6JXvGULNGKJ_14darwin_metrics7processNtB5_7Process7get_all
FNDA:388,_RNvNtCs6JXvGULNGKJ_14darwin_metrics7process15get_cpu_history
FNDA:768,_RNvXs2_NtCs6JXvGULNGKJ_14darwin_metrics7processNtB5_7ProcessNtNtCs4P3ALgZxGbJ_4core5clone5Clone5clone
FNDA:768,_RNvXs_NtCs6JXvGULNGKJ_14darwin_metrics7processNtB4_14ProcessIOStatsNtNtCs4P3ALgZxGbJ_4core5clone5Clone5clone
FNDA:1044,_RNCNCNvMs0_NtCs6JXvGULNGKJ_14darwin_metrics7processNtB9_7Process10get_by_pid00Bb_
FNDA:0,_RNCNCNvMs0_NtCs6JXvGULNGKJ_14darwin_metrics7processNtB9_7Process10get_by_pid0s_0Bb_
FNDA:0,_RNCNCNvMs0_NtCs6JXvGULNGKJ_14darwin_metrics7processNtB9_7Process14get_parent_pid00Bb_
FNDA:0,_RNCNCNvMs0_NtCs6JXvGULNGKJ_14darwin_metrics7processNtB9_7Process19get_all_via_libproc00Bb_
FNDA:0,_RNCNCNvMs0_NtCs6JXvGULNGKJ_14darwin_metrics7processNtB9_7Process20get_process_io_stats00Bb_
FNDA:187,_RNCNCNvNtNtCs6JXvGULNGKJ_14darwin_metrics7process5testss_17test_process_tree00B9_
FNDA:871,_RNCNCNvNtNtCs6JXvGULNGKJ_14darwin_metrics7process5testss_22test_get_all_processes00B9_
FNDA:1431,_RNCNvMs0_NtCs6JXvGULNGKJ_14darwin_metrics7processNtB7_7Process10get_by_pid0B9_
FNDA:769,_RNCNvMs0_NtCs6JXvGULNGKJ_14darwin_metrics7processNtB7_7Process14get_parent_pid0B9_
FNDA:1,_RNCNvMs0_NtCs6JXvGULNGKJ_14darwin_metrics7processNtB7_7Process16get_process_tree0B9_
FNDA:1,_RNCNvMs0_NtCs6JXvGULNGKJ_14darwin_metrics7processNtB7_7Process18get_all_via_sysctl0B9_
FNDA:1,_RNCNvMs0_NtCs6JXvGULNGKJ_14darwin_metrics7processNtB7_7Process19get_all_via_libproc0B9_
FNDA:387,_RNCNvMs0_NtCs6JXvGULNGKJ_14darwin_metrics7processNtB7_7Process20get_process_io_stats0B9_
FNDA:1,_RNCNvMs0_NtCs6JXvGULNGKJ_14darwin_metrics7processNtB7_7Process7get_all0B9_
FNDA:1,_RNCNvNtNtCs6JXvGULNGKJ_14darwin_metrics7process5testss_17test_process_tree0B7_
FNDA:1,_RNCNvNtNtCs6JXvGULNGKJ_14darwin_metrics7process5testss_22test_get_all_processes0B7_
FNDA:1,_RNCNvNtNtCs6JXvGULNGKJ_14darwin_metrics7process5testss_24test_get_current_process0B7_
FNDA:1,_RNCNvNtNtCs6JXvGULNGKJ_14darwin_metrics7process5testss_30test_parent_child_relationship0B7_
FNDA:1,_RNvNtNtCs6JXvGULNGKJ_14darwin_metrics7process5testss_17test_process_tree
FNDA:1,_RNvNtNtCs6JXvGULNGKJ_14darwin_metrics7process5testss_22test_get_all_processes
FNDA:1,_RNvNtNtCs6JXvGULNGKJ_14darwin_metrics7process5testss_24test_get_current_process
FNDA:1,_RNvNtNtCs6JXvGULNGKJ_14darwin_metrics7process5testss_30test_parent_child_relationship
FNDA:0,_RINvMs0_NtCsaakIWYUxKbY_14darwin_metrics7processNtB6_7Process3newpEB8_
FNDA:0,_RNCNCNvMs0_NtCsaakIWYUxKbY_14darwin_metrics7processNtB9_7Process14get_parent_pid00Bb_
FNDA:0,_RNCNCNvMs0_NtCsaakIWYUxKbY_14darwin_metrics7processNtB9_7Process19get_all_via_libproc00Bb_
FNDA:0,_RNCNCNvMs0_NtCsaakIWYUxKbY_14darwin_metrics7processNtB9_7Process22get_process_start_time00Bb_
FNDA:0,_RNCNvMs0_NtCsaakIWYUxKbY_14darwin_metrics7processNtB7_7Process14get_parent_pid0B9_
FNDA:0,_RNCNvMs0_NtCsaakIWYUxKbY_14darwin_metrics7processNtB7_7Process16get_process_tree0B9_
FNDA:0,_RNCNvMs0_NtCsaakIWYUxKbY_14darwin_metrics7processNtB7_7Process18get_all_via_sysctl0B9_
FNDA:0,_RNCNvMs0_NtCsaakIWYUxKbY_14darwin_metrics7processNtB7_7Process19get_all_via_libproc0B9_
FNDA:0,_RNCNvMs0_NtCsaakIWYUxKbY_14darwin_metrics7processNtB7_7Process19get_child_processes0B9_
FNDA:0,_RNCNvMs0_NtCsaakIWYUxKbY_14darwin_metrics7processNtB7_7Process22get_process_start_time0B9_
FNDA:0,_RNCNvMs0_NtCsaakIWYUxKbY_14darwin_metrics7processNtB7_7Process7get_all0B9_
FNDA:0,_RNCNCNvMs0_NtCsaakIWYUxKbY_14darwin_metrics7processNtB9_7Process10get_by_pid00Bb_
FNDA:0,_RNCNCNvMs0_NtCsaakIWYUxKbY_14darwin_metrics7processNtB9_7Process10get_by_pid0s_0Bb_
FNDA:0,_RNCNCNvMs0_NtCsaakIWYUxKbY_14darwin_metrics7processNtB9_7Process20get_process_io_stats00Bb_
FNDA:0,_RNCNvMs0_NtCsaakIWYUxKbY_14darwin_metrics7processNtB7_7Process10get_by_pid0B9_
FNDA:0,_RNCNvMs0_NtCsaakIWYUxKbY_14darwin_metrics7processNtB7_7Process20get_process_io_stats0B9_
FNDA:0,_RNCNvNtCsaakIWYUxKbY_14darwin_metrics7process11CPU_HISTORY0B5_
FNDA:0,_RNCNvXs1_NtCsaakIWYUxKbY_14darwin_metrics7processNtB7_7ProcessNtNtCs4P3ALgZxGbJ_4core3fmt5Debug3fmt0B9_
FNDA:0,_RNCNvXs4_NtCsaakIWYUxKbY_14darwin_metrics7processNtB7_20ProcessMetricsStreamNtNtCs4P3ALgZxGbJ_4core3fmt5Debug3fmt0B9_
FNDA:0,_RNCNvXs6_NtCsaakIWYUxKbY_14darwin_metrics7processNtB7_20ProcessMetricsStreamNtNtCshh1KxnQJceN_12futures_core6stream6Stream9poll_next0B9_
FNDA:0,_RNvMs0_NtCsaakIWYUxKbY_14darwin_metrics7processNtB5_7Process10get_by_pid
FNDA:0,_RNvMs0_NtCsaakIWYUxKbY_14darwin_metrics7processNtB5_7Process14get_parent_pid
FNDA:0,_RNvMs0_NtCsaakIWYUxKbY_14darwin_metrics7processNtB5_7Process15monitor_metrics
FNDA:0,_RNvMs0_NtCsaakIWYUxKbY_14darwin_metrics7processNtB5_7Process16get_process_tree
FNDA:0,_RNvMs0_NtCsaakIWYUxKbY_14darwin_metrics7processNtB5_7Process17is_system_process
FNDA:0,_RNvMs0_NtCsaakIWYUxKbY_14darwin_metrics7processNtB5_7Process18get_all_via_sysctl
FNDA:0,_RNvMs0_NtCsaakIWYUxKbY_14darwin_metrics7processNtB5_7Process19calculate_cpu_usage
FNDA:0,_RNvMs0_NtCsaakIWYUxKbY_14darwin_metrics7processNtB5_7Process19get_all_via_libproc
FNDA:0,_RNvMs0_NtCsaakIWYUxKbY_14darwin_metrics7processNtB5_7Process19get_child_processes
FNDA:0,_RNvMs0_NtCsaakIWYUxKbY_14darwin_metrics7processNtB5_7Process20get_process_io_stats
FNDA:0,_RNvMs0_NtCsaakIWYUxKbY_14darwin_metrics7processNtB5_7Process22get_process_start_time
FNDA:0,_RNvMs0_NtCsaakIWYUxKbY_14darwin_metrics7processNtB5_7Process7get_all
FNDA:0,_RNvMs3_NtCsaakIWYUxKbY_14darwin_metrics7processNtB5_20ProcessMetricsStream3new
FNDA:0,_RNvNtCsaakIWYUxKbY_14darwin_metrics7process15get_cpu_history
FNDA:0,_RNvXNtCsaakIWYUxKbY_14darwin_metrics7processNtB2_14ProcessIOStatsNtNtCs4P3ALgZxGbJ_4core3fmt5Debug3fmt
FNDA:0,_RNvXs1_NtCsaakIWYUxKbY_14darwin_metrics7processNtB5_7ProcessNtNtCs4P3ALgZxGbJ_4core3fmt5Debug3fmt
FNDA:0,_RNvXs2_NtCsaakIWYUxKbY_14darwin_metrics7processNtB5_7ProcessNtNtCs4P3ALgZxGbJ_4core5clone5Clone5clone
FNDA:0,_RNvXs4_NtCsaakIWYUxKbY_14darwin_metrics7processNtB5_20ProcessMetricsStreamNtNtCs4P3ALgZxGbJ_4core3fmt5Debug3fmt
FNDA:0,_RNvXs5_NtCsaakIWYUxKbY_14darwin_metrics7processNtB5_20ProcessMetricsStreamNtNtCs4P3ALgZxGbJ_4core5clone5Clone5clone
FNDA:0,_RNvXs6_NtCsaakIWYUxKbY_14darwin_metrics7processNtB5_20ProcessMetricsStreamNtNtCshh1KxnQJceN_12futures_core6stream6Stream9poll_next
FNDA:0,_RNvXs_NtCsaakIWYUxKbY_14darwin_metrics7processNtB4_14ProcessIOStatsNtNtCs4P3ALgZxGbJ_4core5clone5Clone5clone
FNF:51
FNH:30
DA:33,0
DA:34,0
DA:35,0
DA:36,0
DA:37,0
DA:38,0
DA:39,0
DA:40,0
DA:44,768
DA:45,768
DA:46,768
DA:47,768
DA:48,768
DA:49,768
DA:50,768
DA:51,768
DA:60,1
DA:64,388
DA:65,388
DA:66,388
DA:81,0
DA:82,0
DA:83,0
DA:84,0
DA:85,0
DA:86,0
DA:87,0
DA:88,0
DA:89,0
DA:90,0
DA:91,0
DA:92,0
DA:93,0
DA:97,1
DA:98,1
DA:99,1
DA:100,1
DA:103,0
DA:106,1
DA:109,1
DA:114,1
DA:115,1
DA:116,1
DA:117,1
DA:118,0
DA:119,1
DA:120,1
DA:121,1
DA:122,1
DA:123,1
DA:124,1
DA:125,1
DA:126,1
DA:127,1
DA:128,1
DA:129,1
DA:130,0
DA:131,1
DA:132,1
DA:133,1
DA:134,1
DA:135,1
DA:136,1
DA:137,1
DA:138,1
DA:140,7534
DA:141,7533
DA:142,7533
DA:143,6662
DA:144,871
DA:145,871
DA:146,871
DA:147,871
DA:148,871
DA:149,871
DA:150,871
DA:151,871
DA:152,871
DA:153,871
DA:154,871
DA:155,871
DA:156,871
DA:157,871
DA:158,871
DA:159,871
DA:160,871
DA:161,871
DA:162,871
DA:166,872
DA:168,871
DA:169,0
DA:170,0
DA:171,0
DA:172,0
DA:173,0
DA:174,0
DA:175,871
DA:178,1
DA:180,1
DA:183,1
DA:186,1
DA:187,0
DA:188,1
DA:190,1
DA:191,559
DA:192,558
DA:193,1
DA:194,557
DA:195,557
DA:196,557
DA:197,384
DA:198,173
DA:202,1
DA:203,1
DA:205,1431
DA:206,1431
DA:207,1044
DA:208,1431
DA:210,387
DA:211,387
DA:212,0
DA:213,387
DA:216,387
DA:217,387
DA:219,0
DA:222,387
DA:223,387
DA:225,0
DA:226,0
DA:227,0
DA:229,387
DA:230,387
DA:231,0
DA:232,0
DA:233,0
DA:235,387
DA:237,0
DA:238,0
DA:239,0
DA:245,387
DA:246,387
DA:247,387
DA:248,387
DA:249,387
DA:250,387
DA:251,387
DA:252,387
DA:253,387
DA:254,387
DA:255,387
DA:256,387
DA:259,387
DA:260,387
DA:261,387
DA:262,387
DA:263,387
DA:264,387
DA:265,387
DA:266,387
DA:267,387
DA:268,387
DA:269,387
DA:270,387
DA:271,387
DA:272,1431
DA:276,387
DA:277,387
DA:278,387
DA:281,387
DA:282,3
DA:283,3
DA:284,3
DA:285,3
DA:287,0
DA:288,0
DA:289,0
DA:290,0
DA:291,0
DA:292,0
DA:295,3
DA:299,384
DA:303,387
DA:304,387
DA:305,387
DA:306,387
DA:307,387
DA:308,387
DA:310,0
DA:313,0
DA:314,0
DA:315,0
DA:316,0
DA:318,387
DA:320,387
DA:321,387
DA:323,387
DA:326,387
DA:327,0
DA:328,387
DA:330,387
DA:331,387
DA:332,387
DA:333,387
DA:334,387
DA:335,387
DA:336,387
DA:337,387
DA:338,387
DA:340,0
DA:341,0
DA:342,0
DA:344,0
DA:345,0
DA:347,0
DA:350,0
DA:351,0
DA:353,0
DA:354,0
DA:355,0
DA:357,0
DA:358,0
DA:359,0
DA:360,0
DA:361,0
DA:363,0
DA:365,0
DA:366,0
DA:367,0
DA:372,0
DA:373,0
DA:375,0
DA:376,0
DA:377,0
DA:378,0
DA:379,0
DA:380,0
DA:383,769
DA:384,769
DA:385,769
DA:386,0
DA:387,769
DA:389,769
DA:390,769
DA:391,0
DA:392,769
DA:394,769
DA:395,769
DA:396,769
DA:397,769
DA:398,0
DA:399,769
DA:400,769
DA:401,769
DA:402,769
DA:405,0
DA:406,0
DA:408,0
DA:409,0
DA:410,0
DA:411,0
DA:412,0
DA:413,0
DA:414,0
DA:417,0
DA:418,0
DA:422,0
DA:423,0
DA:424,0
DA:425,0
DA:427,1
DA:429,1
DA:432,1
DA:434,1
DA:435,385
DA:436,384
DA:437,384
DA:440,1
DA:441,384
DA:442,384
DA:443,384
DA:444,384
DA:448,1
DA:449,384
DA:450,384
DA:451,384
DA:452,384
DA:453,333
DA:454,333
DA:455,0
DA:456,0
DA:457,0
DA:458,0
DA:459,0
DA:463,1
DA:464,1
DA:467,334
DA:468,333
DA:469,333
DA:470,333
DA:474,385
DA:475,384
DA:478,384
DA:480,51
DA:481,51
DA:482,51
DA:483,51
DA:485,362
DA:488,1
DA:489,1
DA:490,1
DA:491,1
DA:492,1
DA:496,0
DA:497,0
DA:498,0
DA:499,0
DA:500,0
DA:501,0
DA:502,0
DA:503,0
DA:504,0
DA:505,0
DA:506,0
DA:507,0
DA:508,0
DA:512,768
DA:513,768
DA:514,768
DA:515,768
DA:516,768
DA:517,768
DA:518,768
DA:519,768
DA:520,768
DA:521,768
DA:522,768
DA:523,768
DA:524,768
DA:534,0
DA:535,0
DA:536,0
DA:540,0
DA:541,0
DA:542,0
DA:543,0
DA:544,0
DA:545,0
DA:546,0
DA:550,0
DA:551,0
DA:552,0
DA:553,0
DA:554,0
DA:555,0
DA:556,0
DA:562,0
DA:563,0
DA:565,0
DA:566,0
DA:567,0
DA:568,0
DA:569,0
DA:571,0
DA:573,0
DA:574,0
DA:575,0
DA:577,0
DA:578,0
DA:580,0
DA:581,0
DA:582,0
DA:583,0
DA:584,0
DA:586,0
DA:589,0
DA:592,0
DA:594,0
DA:604,1
DA:605,1
DA:606,1
DA:607,1
DA:608,1
DA:609,1
DA:610,1
DA:611,1
DA:612,1
DA:613,1
DA:614,1
DA:615,1
DA:616,1
DA:619,1
DA:620,1
DA:621,1
DA:622,1
DA:623,1
DA:624,1
DA:625,1
DA:626,0
DA:627,0
DA:628,1
DA:629,1
DA:630,1
DA:631,1
DA:632,1
DA:633,1
DA:634,1
DA:635,871
DA:636,1
DA:637,1
DA:638,1
DA:639,1
DA:640,1
DA:641,1
DA:642,1
DA:643,1
DA:644,1
DA:645,1
DA:646,1
DA:649,1
DA:650,1
DA:651,1
DA:652,1
DA:653,1
DA:654,1
DA:655,1
DA:656,1
DA:657,1
DA:658,1
DA:659,1
DA:660,1
DA:661,1
DA:662,1
DA:663,1
DA:664,1
DA:665,1
DA:666,1
DA:667,1
DA:668,1
DA:669,1
DA:670,1
DA:671,1
DA:672,1
DA:673,1
DA:674,1
DA:675,1
DA:678,1
DA:679,1
DA:680,1
DA:681,1
DA:682,1
DA:683,1
DA:684,0
DA:685,0
DA:686,0
DA:687,0
DA:688,0
DA:689,1
DA:690,1
DA:691,1
DA:692,1
DA:693,1
DA:694,1
DA:695,0
DA:696,0
DA:697,0
DA:698,1
DA:699,1
DA:700,1
DA:701,1
DA:702,1
DA:703,1
DA:704,1
DA:705,1
DA:706,187
DA:707,0
DA:708,0
DA:709,0
DA:710,1
DA:711,1
DA:712,1
DA:713,1
DA:714,1
DA:715,1
DA:716,1
DA:717,1
DA:718,1
DA:719,1
DA:720,1
BRF:0
BRH:0
LF:587
LH:398
end_of_record
SF:/Users/smeya/git/darwin-metrics/src/system/mod.rs
FN:22,_RNvXNtCs6JXvGULNGKJ_14darwin_metrics6systemNtNtB4_5error5ErrorINtNtCs4P3ALgZxGbJ_4core7convert4FromNtB2_17ArchitectureErrorE4from
FN:57,_RNCNvNtCs6JXvGULNGKJ_14darwin_metrics6system19detect_architecture0B5_
FN:58,_RNCNvNtCs6JXvGULNGKJ_14darwin_metrics6system19detect_architectures_0B5_
FN:72,_RNvNtCs6JXvGULNGKJ_14darwin_metrics6system18get_system_metrics
FN:34,_RNvNtCs6JXvGULNGKJ_14darwin_metrics6system19detect_architecture
FN:94,_RNvNtNtCs6JXvGULNGKJ_14darwin_metrics6system5testss_22test_architecture_enum
FN:129,_RNvNtNtCs6JXvGULNGKJ_14darwin_metrics6system5testss_23test_get_system_metrics
FN:107,_RNvNtNtCs6JXvGULNGKJ_14darwin_metrics6system5testss_24test_detect_architecture
FN:142,_RNvNtNtCs6JXvGULNGKJ_14darwin_metrics6system5testss_26test_system_metrics_struct
FN:82,_RNvNtNtCs6JXvGULNGKJ_14darwin_metrics6system5testss_28test_architecture_error_from
FN:22,_RNvXNtCsaakIWYUxKbY_14darwin_metrics6systemNtNtB4_5error5ErrorINtNtCs4P3ALgZxGbJ_4core7convert4FromNtB2_17ArchitectureErrorE4from
FN:57,_RNCNvNtCsaakIWYUxKbY_14darwin_metrics6system19detect_architecture0B5_
FN:58,_RNCNvNtCsaakIWYUxKbY_14darwin_metrics6system19detect_architectures_0B5_
FN:72,_RNvNtCsaakIWYUxKbY_14darwin_metrics6system18get_system_metrics
FN:34,_RNvNtCsaakIWYUxKbY_14darwin_metrics6system19detect_architecture
FNDA:2,_RNvXNtCs6JXvGULNGKJ_14darwin_metrics6systemNtNtB4_5error5ErrorINtNtCs4P3ALgZxGbJ_4core7convert4FromNtB2_17ArchitectureErrorE4from
FNDA:0,_RNCNvNtCs6JXvGULNGKJ_14darwin_metrics6system19detect_architecture0B5_
FNDA:0,_RNCNvNtCs6JXvGULNGKJ_14darwin_metrics6system19detect_architectures_0B5_
FNDA:1,_RNvNtCs6JXvGULNGKJ_14darwin_metrics6system18get_system_metrics
FNDA:2,_RNvNtCs6JXvGULNGKJ_14darwin_metrics6system19detect_architecture
FNDA:1,_RNvNtNtCs6JXvGULNGKJ_14darwin_metrics6system5testss_22test_architecture_enum
FNDA:1,_RNvNtNtCs6JXvGULNGKJ_14darwin_metrics6system5testss_23test_get_system_metrics
FNDA:1,_RNvNtNtCs6JXvGULNGKJ_14darwin_metrics6system5testss_24test_detect_architecture
FNDA:1,_RNvNtNtCs6JXvGULNGKJ_14darwin_metrics6system5testss_26test_system_metrics_struct
FNDA:1,_RNvNtNtCs6JXvGULNGKJ_14darwin_metrics6system5testss_28test_architecture_error_from
FNDA:0,_RNvXNtCsaakIWYUxKbY_14darwin_metrics6systemNtNtB4_5error5ErrorINtNtCs4P3ALgZxGbJ_4core7convert4FromNtB2_17ArchitectureErrorE4from
FNDA:0,_RNCNvNtCsaakIWYUxKbY_14darwin_metrics6system19detect_architecture0B5_
FNDA:0,_RNCNvNtCsaakIWYUxKbY_14darwin_metrics6system19detect_architectures_0B5_
FNDA:0,_RNvNtCsaakIWYUxKbY_14darwin_metrics6system18get_system_metrics
FNDA:0,_RNvNtCsaakIWYUxKbY_14darwin_metrics6system19detect_architecture
FNF:10
FNH:8
DA:22,2
DA:23,2
DA:24,2
DA:34,2
DA:35,2
DA:36,2
DA:37,2
DA:38,2
DA:39,2
DA:40,0
DA:41,2
DA:42,2
DA:43,2
DA:44,2
DA:45,2
DA:46,2
DA:47,2
DA:48,2
DA:49,2
DA:50,2
DA:51,2
DA:53,0
DA:54,2
DA:56,2
DA:57,2
DA:58,2
DA:60,2
DA:61,2
DA:62,0
DA:63,0
DA:66,2
DA:72,1
DA:73,1
DA:74,1
DA:75,1
DA:82,1
DA:83,1
DA:84,1
DA:85,1
DA:86,1
DA:88,1
DA:89,1
DA:90,1
DA:91,1
DA:94,1
DA:95,1
DA:96,1
DA:97,1
DA:98,1
DA:101,1
DA:102,1
DA:103,1
DA:104,1
DA:107,1
DA:108,1
DA:109,1
DA:110,1
DA:112,1
DA:113,1
DA:114,1
DA:115,1
DA:116,0
DA:122,1
DA:126,1
DA:129,1
DA:130,1
DA:131,1
DA:133,1
DA:134,1
DA:135,1
DA:136,1
DA:137,0
DA:139,1
DA:142,1
DA:143,1
DA:144,1
DA:145,1
DA:146,1
DA:147,1
DA:149,1
DA:150,1
DA:151,1
DA:152,1
DA:153,1
BRF:0
BRH:0
LF:86
LH:78
end_of_record
SF:/Users/smeya/git/darwin-metrics/src/utils/bindings.rs
FN:601,_RNvNtNtCs6JXvGULNGKJ_14darwin_metrics5utils8bindings17is_system_process
FN:295,_RNvXNtNtCs6JXvGULNGKJ_14darwin_metrics5utils8bindingsNtB2_17SMCKeyData_t_dataNtNtCs4P3ALgZxGbJ_4core5clone5Clone5clone
FN:319,_RNvXs0_NtNtCs6JXvGULNGKJ_14darwin_metrics5utils8bindingsNtB5_12SMCKeyData_tNtNtCs4P3ALgZxGbJ_4core5clone5Clone5clone
FN:327,_RNvXs2_NtNtCs6JXvGULNGKJ_14darwin_metrics5utils8bindingsNtB5_12SMCKeyData_tNtNtCs4P3ALgZxGbJ_4core7default7Default7default
FN:595,_RNCNvNtNtCs6JXvGULNGKJ_14darwin_metrics5utils8bindings17extract_proc_name0B7_
FN:593,_RNvNtNtCs6JXvGULNGKJ_14darwin_metrics5utils8bindings17extract_proc_name
FN:616,_RNvNtNtCs6JXvGULNGKJ_14darwin_metrics5utils8bindings18smc_key_from_chars
FN:595,_RNCNvNtNtCsaakIWYUxKbY_14darwin_metrics5utils8bindings17extract_proc_name0B7_
FN:593,_RNvNtNtCsaakIWYUxKbY_14darwin_metrics5utils8bindings17extract_proc_name
FN:601,_RNvNtNtCsaakIWYUxKbY_14darwin_metrics5utils8bindings17is_system_process
FN:616,_RNvNtNtCsaakIWYUxKbY_14darwin_metrics5utils8bindings18smc_key_from_chars
FN:295,_RNvXNtNtCsaakIWYUxKbY_14darwin_metrics5utils8bindingsNtB2_17SMCKeyData_t_dataNtNtCs4P3ALgZxGbJ_4core5clone5Clone5clone
FN:319,_RNvXs0_NtNtCsaakIWYUxKbY_14darwin_metrics5utils8bindingsNtB5_12SMCKeyData_tNtNtCs4P3ALgZxGbJ_4core5clone5Clone5clone
FN:327,_RNvXs2_NtNtCsaakIWYUxKbY_14darwin_metrics5utils8bindingsNtB5_12SMCKeyData_tNtNtCs4P3ALgZxGbJ_4core7default7Default7default
FNDA:0,_RNvNtNtCs6JXvGULNGKJ_14darwin_metrics5utils8bindings17is_system_process
FNDA:0,_RNvXNtNtCs6JXvGULNGKJ_14darwin_metrics5utils8bindingsNtB2_17SMCKeyData_t_dataNtNtCs4P3ALgZxGbJ_4core5clone5Clone5clone
FNDA:0,_RNvXs0_NtNtCs6JXvGULNGKJ_14darwin_metrics5utils8bindingsNtB5_12SMCKeyData_tNtNtCs4P3ALgZxGbJ_4core5clone5Clone5clone
FNDA:0,_RNvXs2_NtNtCs6JXvGULNGKJ_14darwin_metrics5utils8bindingsNtB5_12SMCKeyData_tNtNtCs4P3ALgZxGbJ_4core7default7Default7default
FNDA:1067,_RNCNvNtNtCs6JXvGULNGKJ_14darwin_metrics5utils8bindings17extract_proc_name0B7_
FNDA:871,_RNvNtNtCs6JXvGULNGKJ_14darwin_metrics5utils8bindings17extract_proc_name
FNDA:1,_RNvNtNtCs6JXvGULNGKJ_14darwin_metrics5utils8bindings18smc_key_from_chars
FNDA:0,_RNCNvNtNtCsaakIWYUxKbY_14darwin_metrics5utils8bindings17extract_proc_name0B7_
FNDA:0,_RNvNtNtCsaakIWYUxKbY_14darwin_metrics5utils8bindings17extract_proc_name
FNDA:0,_RNvNtNtCsaakIWYUxKbY_14darwin_metrics5utils8bindings17is_system_process
FNDA:0,_RNvNtNtCsaakIWYUxKbY_14darwin_metrics5utils8bindings18smc_key_from_chars
FNDA:0,_RNvXNtNtCsaakIWYUxKbY_14darwin_metrics5utils8bindingsNtB2_17SMCKeyData_t_dataNtNtCs4P3ALgZxGbJ_4core5clone5Clone5clone
FNDA:0,_RNvXs0_NtNtCsaakIWYUxKbY_14darwin_metrics5utils8bindingsNtB5_12SMCKeyData_tNtNtCs4P3ALgZxGbJ_4core5clone5Clone5clone
FNDA:0,_RNvXs2_NtNtCsaakIWYUxKbY_14darwin_metrics5utils8bindingsNtB5_12SMCKeyData_tNtNtCs4P3ALgZxGbJ_4core7default7Default7default
FNF:7
FNH:3
DA:295,0
DA:296,0
DA:297,0
DA:319,0
DA:320,0
DA:321,0
DA:327,0
DA:328,0
DA:329,0
DA:330,0
DA:331,0
DA:332,0
DA:333,0
DA:334,0
DA:335,0
DA:336,0
DA:337,0
DA:338,0
DA:339,0
DA:340,0
DA:341,0
DA:342,0
DA:343,0
DA:593,871
DA:594,871
DA:595,1067
DA:596,871
DA:597,871
DA:598,871
DA:601,0
DA:602,0
DA:603,0
DA:604,0
DA:605,0
DA:606,0
DA:607,0
DA:608,0
DA:609,0
DA:610,0
DA:611,0
DA:612,0
DA:613,0
DA:616,1
DA:617,1
DA:618,5
DA:619,4
DA:620,4
DA:621,1
DA:622,1
BRF:0
BRH:0
LF:50
LH:14
end_of_record
SF:/Users/smeya/git/darwin-metrics/src/utils/mod.rs
FN:51,_RNCNvYpNtNtCs6JXvGULNGKJ_14darwin_metrics5utils13PropertyUtils17get_bool_property0B9_
FN:52,_RNCNvYpNtNtCs6JXvGULNGKJ_14darwin_metrics5utils13PropertyUtils17get_bool_propertys_0B9_
FN:44,_RNCNvYpNtNtCs6JXvGULNGKJ_14darwin_metrics5utils13PropertyUtils19get_number_property0B9_
FN:45,_RNCNvYpNtNtCs6JXvGULNGKJ_14darwin_metrics5utils13PropertyUtils19get_number_propertys_0B9_
FN:37,_RNCNvYpNtNtCs6JXvGULNGKJ_14darwin_metrics5utils13PropertyUtils19get_string_property0B9_
FN:38,_RNCNvYpNtNtCs6JXvGULNGKJ_14darwin_metrics5utils13PropertyUtils19get_string_propertys_0B9_
FN:48,_RNvYpNtNtCs6JXvGULNGKJ_14darwin_metrics5utils13PropertyUtils17get_bool_propertyB7_
FN:41,_RNvYpNtNtCs6JXvGULNGKJ_14darwin_metrics5utils13PropertyUtils19get_number_propertyB7_
FN:34,_RNvYpNtNtCs6JXvGULNGKJ_14darwin_metrics5utils13PropertyUtils19get_string_propertyB7_
FN:69,_RINvNtCs6JXvGULNGKJ_14darwin_metrics5utils14objc_safe_execNtNtCsaxtFaqkp5wQ_5alloc6string6StringNCNCNvB2_8get_name00EB4_
FN:69,_RINvNtCs6JXvGULNGKJ_14darwin_metrics5utils14objc_safe_execlNCNvNtB2_5testss_19test_objc_safe_exec0EB4_
FN:69,_RINvNtCs6JXvGULNGKJ_14darwin_metrics5utils14objc_safe_execlNCNvNtB2_5testss_19test_objc_safe_execs_0EB4_
FN:61,_RINvNtCs6JXvGULNGKJ_14darwin_metrics5utils16autorelease_poolINtNtCs4P3ALgZxGbJ_4core6result6ResultNtNtCsaxtFaqkp5wQ_5alloc6string6StringNtNtB4_5error5ErrorENCNvB2_8get_name0EB4_
FN:61,_RINvNtCs6JXvGULNGKJ_14darwin_metrics5utils16autorelease_poolNtNtCsaxtFaqkp5wQ_5alloc6string6StringNCNvNtB2_5testss_21test_autorelease_pools_0EB4_
FN:61,_RINvNtCs6JXvGULNGKJ_14darwin_metrics5utils16autorelease_poollNCNvNtB2_5testss_21test_autorelease_pool0EB4_
FN:65,_RNCINvNtCs6JXvGULNGKJ_14darwin_metrics5utils16autorelease_poolINtNtCs4P3ALgZxGbJ_4core6result6ResultNtNtCsaxtFaqkp5wQ_5alloc6string6StringNtNtB6_5error5ErrorENCNvB4_8get_name0E0B6_
FN:65,_RNCINvNtCs6JXvGULNGKJ_14darwin_metrics5utils16autorelease_poolNtNtCsaxtFaqkp5wQ_5alloc6string6StringNCNvNtB4_5testss_21test_autorelease_pools_0E0B6_
FN:65,_RNCINvNtCs6JXvGULNGKJ_14darwin_metrics5utils16autorelease_poollNCNvNtB4_5testss_21test_autorelease_pool0E0B6_
FN:143,_RNCNvNtCs6JXvGULNGKJ_14darwin_metrics5utils8get_name0B5_
FN:231,_RNCNvNtNtCs6JXvGULNGKJ_14darwin_metrics5utils5testss_21test_autorelease_pool0B7_
FN:235,_RNCNvNtNtCs6JXvGULNGKJ_14darwin_metrics5utils5testss_21test_autorelease_pools_0B7_
FN:240,_RNvNtNtCs6JXvGULNGKJ_14darwin_metrics5utils5testss_19test_objc_safe_exec
FN:169,_RNvNtNtCs6JXvGULNGKJ_14darwin_metrics5utils5testss_20test_c_str_to_string
FN:229,_RNvNtNtCs6JXvGULNGKJ_14darwin_metrics5utils5testss_21test_autorelease_pool
FN:268,_RNvNtNtCs6JXvGULNGKJ_14darwin_metrics5utils5testss_22test_property_accessor
FN:186,_RNvNtNtCs6JXvGULNGKJ_14darwin_metrics5utils5testss_22test_raw_str_to_string
FN:258,_RNvNtNtCs6JXvGULNGKJ_14darwin_metrics5utils5testss_25test_get_name_null_device
FN:208,_RNvNtNtCs6JXvGULNGKJ_14darwin_metrics5utils5testss_25test_raw_f64_slice_to_vec
FN:91,_RNvNtCs6JXvGULNGKJ_14darwin_metrics5utils15c_str_to_string
FN:110,_RNvNtCs6JXvGULNGKJ_14darwin_metrics5utils17raw_str_to_string
FN:130,_RNvNtCs6JXvGULNGKJ_14darwin_metrics5utils20raw_f64_slice_to_vec
FN:138,_RNvNtCs6JXvGULNGKJ_14darwin_metrics5utils8get_name
FN:144,_RNCNCNvNtCs6JXvGULNGKJ_14darwin_metrics5utils8get_name00B7_
FN:242,_RNCNvNtNtCs6JXvGULNGKJ_14darwin_metrics5utils5testss_19test_objc_safe_exec0B7_
FN:247,_RNCNvNtNtCs6JXvGULNGKJ_14darwin_metrics5utils5testss_19test_objc_safe_execs_0B7_
FN:51,_RNCNvYpNtNtCsaakIWYUxKbY_14darwin_metrics5utils13PropertyUtils17get_bool_property0B9_
FN:52,_RNCNvYpNtNtCsaakIWYUxKbY_14darwin_metrics5utils13PropertyUtils17get_bool_propertys_0B9_
FN:44,_RNCNvYpNtNtCsaakIWYUxKbY_14darwin_metrics5utils13PropertyUtils19get_number_property0B9_
FN:45,_RNCNvYpNtNtCsaakIWYUxKbY_14darwin_metrics5utils13PropertyUtils19get_number_propertys_0B9_
FN:37,_RNCNvYpNtNtCsaakIWYUxKbY_14darwin_metrics5utils13PropertyUtils19get_string_property0B9_
FN:38,_RNCNvYpNtNtCsaakIWYUxKbY_14darwin_metrics5utils13PropertyUtils19get_string_propertys_0B9_
FN:48,_RNvYpNtNtCsaakIWYUxKbY_14darwin_metrics5utils13PropertyUtils17get_bool_propertyB7_
FN:41,_RNvYpNtNtCsaakIWYUxKbY_14darwin_metrics5utils13PropertyUtils19get_number_propertyB7_
FN:34,_RNvYpNtNtCsaakIWYUxKbY_14darwin_metrics5utils13PropertyUtils19get_string_propertyB7_
FN:91,_RNvNtCsaakIWYUxKbY_14darwin_metrics5utils15c_str_to_string
FN:110,_RNvNtCsaakIWYUxKbY_14darwin_metrics5utils17raw_str_to_string
FN:130,_RNvNtCsaakIWYUxKbY_14darwin_metrics5utils20raw_f64_slice_to_vec
FN:138,_RNvNtCsaakIWYUxKbY_14darwin_metrics5utils8get_name
FN:144,_RNCNCNvNtCsaakIWYUxKbY_14darwin_metrics5utils8get_name00B7_
FN:69,_RINvNtCsaakIWYUxKbY_14darwin_metrics5utils14objc_safe_execNtNtCsaxtFaqkp5wQ_5alloc6string6StringNCNCNvB2_8get_name00EB4_
FN:61,_RINvNtCsaakIWYUxKbY_14darwin_metrics5utils16autorelease_poolINtNtCs4P3ALgZxGbJ_4core6result6ResultNtNtCsaxtFaqkp5wQ_5alloc6string6StringNtNtB4_5error5ErrorENCNvB2_8get_name0EB4_
FN:65,_RNCINvNtCsaakIWYUxKbY_14darwin_metrics5utils16autorelease_poolINtNtCs4P3ALgZxGbJ_4core6result6ResultNtNtCsaxtFaqkp5wQ_5alloc6string6StringNtNtB6_5error5ErrorENCNvB4_8get_name0E0B6_
FN:143,_RNCNvNtCsaakIWYUxKbY_14darwin_metrics5utils8get_name0B5_
FNDA:0,_RNCNvYpNtNtCs6JXvGULNGKJ_14darwin_metrics5utils13PropertyUtils17get_bool_property0B9_
FNDA:0,_RNCNvYpNtNtCs6JXvGULNGKJ_14darwin_metrics5utils13PropertyUtils17get_bool_propertys_0B9_
FNDA:0,_RNCNvYpNtNtCs6JXvGULNGKJ_14darwin_metrics5utils13PropertyUtils19get_number_property0B9_
FNDA:0,_RNCNvYpNtNtCs6JXvGULNGKJ_14darwin_metrics5utils13PropertyUtils19get_number_propertys_0B9_
FNDA:0,_RNCNvYpNtNtCs6JXvGULNGKJ_14darwin_metrics5utils13PropertyUtils19get_string_property0B9_
FNDA:0,_RNCNvYpNtNtCs6JXvGULNGKJ_14darwin_metrics5utils13PropertyUtils19get_string_propertys_0B9_
FNDA:0,_RNvYpNtNtCs6JXvGULNGKJ_14darwin_metrics5utils13PropertyUtils17get_bool_propertyB7_
FNDA:0,_RNvYpNtNtCs6JXvGULNGKJ_14darwin_metrics5utils13PropertyUtils19get_number_propertyB7_
FNDA:0,_RNvYpNtNtCs6JXvGULNGKJ_14darwin_metrics5utils13PropertyUtils19get_string_propertyB7_
FNDA:0,_RINvNtCs6JXvGULNGKJ_14darwin_metrics5utils14objc_safe_execNtNtCsaxtFaqkp5wQ_5alloc6string6StringNCNCNvB2_8get_name00EB4_
FNDA:1,_RINvNtCs6JXvGULNGKJ_14darwin_metrics5utils14objc_safe_execlNCNvNtB2_5testss_19test_objc_safe_exec0EB4_
FNDA:1,_RINvNtCs6JXvGULNGKJ_14darwin_metrics5utils14objc_safe_execlNCNvNtB2_5testss_19test_objc_safe_execs_0EB4_
FNDA:0,_RINvNtCs6JXvGULNGKJ_14darwin_metrics5utils16autorelease_poolINtNtCs4P3ALgZxGbJ_4core6result6ResultNtNtCsaxtFaqkp5wQ_5alloc6string6StringNtNtB4_5error5ErrorENCNvB2_8get_name0EB4_
FNDA:1,_RINvNtCs6JXvGULNGKJ_14darwin_metrics5utils16autorelease_poolNtNtCsaxtFaqkp5wQ_5alloc6string6StringNCNvNtB2_5testss_21test_autorelease_pools_0EB4_
FNDA:1,_RINvNtCs6JXvGULNGKJ_14darwin_metrics5utils16autorelease_poollNCNvNtB2_5testss_21test_autorelease_pool0EB4_
FNDA:0,_RNCINvNtCs6JXvGULNGKJ_14darwin_metrics5utils16autorelease_poolINtNtCs4P3ALgZxGbJ_4core6result6ResultNtNtCsaxtFaqkp5wQ_5alloc6string6StringNtNtB6_5error5ErrorENCNvB4_8get_name0E0B6_
FNDA:1,_RNCINvNtCs6JXvGULNGKJ_14darwin_metrics5utils16autorelease_poolNtNtCsaxtFaqkp5wQ_5alloc6string6StringNCNvNtB4_5testss_21test_autorelease_pools_0E0B6_
FNDA:1,_RNCINvNtCs6JXvGULNGKJ_14darwin_metrics5utils16autorelease_poollNCNvNtB4_5testss_21test_autorelease_pool0E0B6_
FNDA:0,_RNCNvNtCs6JXvGULNGKJ_14darwin_metrics5utils8get_name0B5_
FNDA:1,_RNCNvNtNtCs6JXvGULNGKJ_14darwin_metrics5utils5testss_21test_autorelease_pool0B7_
FNDA:1,_RNCNvNtNtCs6JXvGULNGKJ_14darwin_metrics5utils5testss_21test_autorelease_pools_0B7_
FNDA:1,_RNvNtNtCs6JXvGULNGKJ_14darwin_metrics5utils5testss_19test_objc_safe_exec
FNDA:1,_RNvNtNtCs6JXvGULNGKJ_14darwin_metrics5utils5testss_20test_c_str_to_string
FNDA:1,_RNvNtNtCs6JXvGULNGKJ_14darwin_metrics5utils5testss_21test_autorelease_pool
FNDA:1,_RNvNtNtCs6JXvGULNGKJ_14darwin_metrics5utils5testss_22test_property_accessor
FNDA:1,_RNvNtNtCs6JXvGULNGKJ_14darwin_metrics5utils5testss_22test_raw_str_to_string
FNDA:1,_RNvNtNtCs6JXvGULNGKJ_14darwin_metrics5utils5testss_25test_get_name_null_device
FNDA:1,_RNvNtNtCs6JXvGULNGKJ_14darwin_metrics5utils5testss_25test_raw_f64_slice_to_vec
FNDA:2,_RNvNtCs6JXvGULNGKJ_14darwin_metrics5utils15c_str_to_string
FNDA:3,_RNvNtCs6JXvGULNGKJ_14darwin_metrics5utils17raw_str_to_string
FNDA:3,_RNvNtCs6JXvGULNGKJ_14darwin_metrics5utils20raw_f64_slice_to_vec
FNDA:1,_RNvNtCs6JXvGULNGKJ_14darwin_metrics5utils8get_name
FNDA:0,_RNCNCNvNtCs6JXvGULNGKJ_14darwin_metrics5utils8get_name00B7_
FNDA:1,_RNCNvNtNtCs6JXvGULNGKJ_14darwin_metrics5utils5testss_19test_objc_safe_exec0B7_
FNDA:1,_RNCNvNtNtCs6JXvGULNGKJ_14darwin_metrics5utils5testss_19test_objc_safe_execs_0B7_
FNDA:0,_RNCNvYpNtNtCsaakIWYUxKbY_14darwin_metrics5utils13PropertyUtils17get_bool_property0B9_
FNDA:0,_RNCNvYpNtNtCsaakIWYUxKbY_14darwin_metrics5utils13PropertyUtils17get_bool_propertys_0B9_
FNDA:0,_RNCNvYpNtNtCsaakIWYUxKbY_14darwin_metrics5utils13PropertyUtils19get_number_property0B9_
FNDA:0,_RNCNvYpNtNtCsaakIWYUxKbY_14darwin_metrics5utils13PropertyUtils19get_number_propertys_0B9_
FNDA:0,_RNCNvYpNtNtCsaakIWYUxKbY_14darwin_metrics5utils13PropertyUtils19get_string_property0B9_
FNDA:0,_RNCNvYpNtNtCsaakIWYUxKbY_14darwin_metrics5utils13PropertyUtils19get_string_propertys_0B9_
FNDA:0,_RNvYpNtNtCsaakIWYUxKbY_14darwin_metrics5utils13PropertyUtils17get_bool_propertyB7_
FNDA:0,_RNvYpNtNtCsaakIWYUxKbY_14darwin_metrics5utils13PropertyUtils19get_number_propertyB7_
FNDA:0,_RNvYpNtNtCsaakIWYUxKbY_14darwin_metrics5utils13PropertyUtils19get_string_propertyB7_
FNDA:0,_RNvNtCsaakIWYUxKbY_14darwin_metrics5utils15c_str_to_string
FNDA:0,_RNvNtCsaakIWYUxKbY_14darwin_metrics5utils17raw_str_to_string
FNDA:0,_RNvNtCsaakIWYUxKbY_14darwin_metrics5utils20raw_f64_slice_to_vec
FNDA:0,_RNvNtCsaakIWYUxKbY_14darwin_metrics5utils8get_name
FNDA:0,_RNCNCNvNtCsaakIWYUxKbY_14darwin_metrics5utils8get_name00B7_
FNDA:0,_RINvNtCsaakIWYUxKbY_14darwin_metrics5utils14objc_safe_execNtNtCsaxtFaqkp5wQ_5alloc6string6StringNCNCNvB2_8get_name00EB4_
FNDA:0,_RINvNtCsaakIWYUxKbY_14darwin_metrics5utils16autorelease_poolINtNtCs4P3ALgZxGbJ_4core6result6ResultNtNtCsaxtFaqkp5wQ_5alloc6string6StringNtNtB4_5error5ErrorENCNvB2_8get_name0EB4_
FNDA:0,_RNCINvNtCsaakIWYUxKbY_14darwin_metrics5utils16autorelease_poolINtNtCs4P3ALgZxGbJ_4core6result6ResultNtNtCsaxtFaqkp5wQ_5alloc6string6StringNtNtB6_5error5ErrorENCNvB4_8get_name0E0B6_
FNDA:0,_RNCNvNtCsaakIWYUxKbY_14darwin_metrics5utils8get_name0B5_
FNF:29
FNH:18
DA:34,0
DA:35,0
DA:36,0
DA:37,0
DA:38,0
DA:39,0
DA:41,0
DA:42,0
DA:43,0
DA:44,0
DA:45,0
DA:46,0
DA:48,0
DA:49,0
DA:50,0
DA:51,0
DA:52,0
DA:53,0
DA:61,2
DA:62,2
DA:63,2
DA:64,2
DA:65,2
DA:66,2
DA:69,2
DA:70,2
DA:71,2
DA:72,2
DA:73,2
DA:74,2
DA:75,2
DA:76,0
DA:78,2
DA:91,2
DA:92,2
DA:93,1
DA:94,1
DA:95,1
DA:96,2
DA:110,3
DA:111,3
DA:112,2
DA:113,1
DA:114,1
DA:115,1
DA:116,3
DA:130,3
DA:131,3
DA:132,2
DA:133,1
DA:134,1
DA:135,3
DA:138,1
DA:139,1
DA:140,1
DA:141,0
DA:142,0
DA:143,0
DA:144,0
DA:145,0
DA:146,0
DA:147,0
DA:148,0
DA:149,0
DA:150,0
DA:151,0
DA:152,0
DA:153,0
DA:154,0
DA:155,0
DA:156,0
DA:157,0
DA:158,0
DA:159,0
DA:160,0
DA:161,1
DA:169,1
DA:170,1
DA:171,1
DA:172,1
DA:173,1
DA:174,1
DA:175,1
DA:176,1
DA:177,1
DA:180,1
DA:181,1
DA:183,1
DA:186,1
DA:187,1
DA:188,1
DA:189,1
DA:190,1
DA:191,1
DA:192,1
DA:193,1
DA:194,1
DA:195,1
DA:198,1
DA:199,1
DA:202,1
DA:203,1
DA:205,1
DA:208,1
DA:209,1
DA:210,1
DA:211,1
DA:212,1
DA:213,1
DA:214,1
DA:215,1
DA:216,1
DA:219,1
DA:220,1
DA:223,1
DA:224,1
DA:226,1
DA:229,1
DA:230,1
DA:231,1
DA:232,1
DA:235,1
DA:236,1
DA:237,1
DA:240,1
DA:241,1
DA:242,1
DA:243,1
DA:244,1
DA:247,1
DA:248,1
DA:249,1
DA:250,1
DA:251,0
DA:255,1
DA:258,1
DA:259,1
DA:260,1
DA:261,1
DA:262,1
DA:263,0
DA:265,1
DA:268,1
DA:269,1
DA:270,1
DA:271,1
DA:272,1
DA:273,1
BRF:0
BRH:0
LF:163
LH:112
end_of_record
SF:/Users/smeya/git/darwin-metrics/src/utils/property_utils.rs
FN:22,_RNCNvYNtNtNtCs6JXvGULNGKJ_14darwin_metrics5utils20property_utils_tests17MockPropertyUtilsNtNtB8_14property_utils13PropertyUtils17get_bool_property0Ba_
FN:23,_RNCNvYNtNtNtCs6JXvGULNGKJ_14darwin_metrics5utils20property_utils_tests17MockPropertyUtilsNtNtB8_14property_utils13PropertyUtils17get_bool_propertys_0Ba_
FN:15,_RNCNvYNtNtNtCs6JXvGULNGKJ_14darwin_metrics5utils20property_utils_tests17MockPropertyUtilsNtNtB8_14property_utils13PropertyUtils19get_number_property0Ba_
FN:16,_RNCNvYNtNtNtCs6JXvGULNGKJ_14darwin_metrics5utils20property_utils_tests17MockPropertyUtilsNtNtB8_14property_utils13PropertyUtils19get_number_propertys_0Ba_
FN:8,_RNCNvYNtNtNtCs6JXvGULNGKJ_14darwin_metrics5utils20property_utils_tests17MockPropertyUtilsNtNtB8_14property_utils13PropertyUtils19get_string_property0Ba_
FN:9,_RNCNvYNtNtNtCs6JXvGULNGKJ_14darwin_metrics5utils20property_utils_tests17MockPropertyUtilsNtNtB8_14property_utils13PropertyUtils19get_string_propertys_0Ba_
FN:19,_RNvYNtNtNtCs6JXvGULNGKJ_14darwin_metrics5utils20property_utils_tests17MockPropertyUtilsNtNtB6_14property_utils13PropertyUtils17get_bool_propertyB8_
FN:12,_RNvYNtNtNtCs6JXvGULNGKJ_14darwin_metrics5utils20property_utils_tests17MockPropertyUtilsNtNtB6_14property_utils13PropertyUtils19get_number_propertyB8_
FN:5,_RNvYNtNtNtCs6JXvGULNGKJ_14darwin_metrics5utils20property_utils_tests17MockPropertyUtilsNtNtB6_14property_utils13PropertyUtils19get_string_propertyB8_
FN:22,_RNCNvYpNtNtNtCsaakIWYUxKbY_14darwin_metrics5utils14property_utils13PropertyUtils17get_bool_property0Bb_
FN:23,_RNCNvYpNtNtNtCsaakIWYUxKbY_14darwin_metrics5utils14property_utils13PropertyUtils17get_bool_propertys_0Bb_
FN:15,_RNCNvYpNtNtNtCsaakIWYUxKbY_14darwin_metrics5utils14property_utils13PropertyUtils19get_number_property0Bb_
FN:16,_RNCNvYpNtNtNtCsaakIWYUxKbY_14darwin_metrics5utils14property_utils13PropertyUtils19get_number_propertys_0Bb_
FN:8,_RNCNvYpNtNtNtCsaakIWYUxKbY_14darwin_metrics5utils14property_utils13PropertyUtils19get_string_property0Bb_
FN:9,_RNCNvYpNtNtNtCsaakIWYUxKbY_14darwin_metrics5utils14property_utils13PropertyUtils19get_string_propertys_0Bb_
FN:19,_RNvYpNtNtNtCsaakIWYUxKbY_14darwin_metrics5utils14property_utils13PropertyUtils17get_bool_propertyB9_
FN:12,_RNvYpNtNtNtCsaakIWYUxKbY_14darwin_metrics5utils14property_utils13PropertyUtils19get_number_propertyB9_
FN:5,_RNvYpNtNtNtCsaakIWYUxKbY_14darwin_metrics5utils14property_utils13PropertyUtils19get_string_propertyB9_
FNDA:0,_RNCNvYNtNtNtCs6JXvGULNGKJ_14darwin_metrics5utils20property_utils_tests17MockPropertyUtilsNtNtB8_14property_utils13PropertyUtils17get_bool_property0Ba_
FNDA:0,_RNCNvYNtNtNtCs6JXvGULNGKJ_14darwin_metrics5utils20property_utils_tests17MockPropertyUtilsNtNtB8_14property_utils13PropertyUtils17get_bool_propertys_0Ba_
FNDA:0,_RNCNvYNtNtNtCs6JXvGULNGKJ_14darwin_metrics5utils20property_utils_tests17MockPropertyUtilsNtNtB8_14property_utils13PropertyUtils19get_number_property0Ba_
FNDA:0,_RNCNvYNtNtNtCs6JXvGULNGKJ_14darwin_metrics5utils20property_utils_tests17MockPropertyUtilsNtNtB8_14property_utils13PropertyUtils19get_number_propertys_0Ba_
FNDA:0,_RNCNvYNtNtNtCs6JXvGULNGKJ_14darwin_metrics5utils20property_utils_tests17MockPropertyUtilsNtNtB8_14property_utils13PropertyUtils19get_string_property0Ba_
FNDA:0,_RNCNvYNtNtNtCs6JXvGULNGKJ_14darwin_metrics5utils20property_utils_tests17MockPropertyUtilsNtNtB8_14property_utils13PropertyUtils19get_string_propertys_0Ba_
FNDA:1,_RNvYNtNtNtCs6JXvGULNGKJ_14darwin_metrics5utils20property_utils_tests17MockPropertyUtilsNtNtB6_14property_utils13PropertyUtils17get_bool_propertyB8_
FNDA:1,_RNvYNtNtNtCs6JXvGULNGKJ_14darwin_metrics5utils20property_utils_tests17MockPropertyUtilsNtNtB6_14property_utils13PropertyUtils19get_number_propertyB8_
FNDA:1,_RNvYNtNtNtCs6JXvGULNGKJ_14darwin_metrics5utils20property_utils_tests17MockPropertyUtilsNtNtB6_14property_utils13PropertyUtils19get_string_propertyB8_
FNDA:0,_RNCNvYpNtNtNtCsaakIWYUxKbY_14darwin_metrics5utils14property_utils13PropertyUtils17get_bool_property0Bb_
FNDA:0,_RNCNvYpNtNtNtCsaakIWYUxKbY_14darwin_metrics5utils14property_utils13PropertyUtils17get_bool_propertys_0Bb_
FNDA:0,_RNCNvYpNtNtNtCsaakIWYUxKbY_14darwin_metrics5utils14property_utils13PropertyUtils19get_number_property0Bb_
FNDA:0,_RNCNvYpNtNtNtCsaakIWYUxKbY_14darwin_metrics5utils14property_utils13PropertyUtils19get_number_propertys_0Bb_
FNDA:0,_RNCNvYpNtNtNtCsaakIWYUxKbY_14darwin_metrics5utils14property_utils13PropertyUtils19get_string_property0Bb_
FNDA:0,_RNCNvYpNtNtNtCsaakIWYUxKbY_14darwin_metrics5utils14property_utils13PropertyUtils19get_string_propertys_0Bb_
FNDA:0,_RNvYpNtNtNtCsaakIWYUxKbY_14darwin_metrics5utils14property_utils13PropertyUtils17get_bool_propertyB9_
FNDA:0,_RNvYpNtNtNtCsaakIWYUxKbY_14darwin_metrics5utils14property_utils13PropertyUtils19get_number_propertyB9_
FNDA:0,_RNvYpNtNtNtCsaakIWYUxKbY_14darwin_metrics5utils14property_utils13PropertyUtils19get_string_propertyB9_
FNF:9
FNH:3
DA:5,1
DA:6,1
DA:7,1
DA:8,1
DA:9,1
DA:10,1
DA:12,1
DA:13,1
DA:14,1
DA:15,1
DA:16,1
DA:17,1
DA:19,1
DA:20,1
DA:21,1
DA:22,1
DA:23,1
DA:24,1
BRF:0
BRH:0
LF:24
LH:18
end_of_record
SF:/Users/smeya/git/darwin-metrics/src/utils/property_utils_tests.rs
FN:14,_RNvNtNtCs6JXvGULNGKJ_14darwin_metrics5utils20property_utils_testss_25test_property_utils_trait
FN:34,_RNvNtNtCs6JXvGULNGKJ_14darwin_metrics5utils20property_utils_testss_39test_property_accessor_implements_trait
FNDA:1,_RNvNtNtCs6JXvGULNGKJ_14darwin_metrics5utils20property_utils_testss_25test_property_utils_trait
FNDA:1,_RNvNtNtCs6JXvGULNGKJ_14darwin_metrics5utils20property_utils_testss_39test_property_accessor_implements_trait
FNF:2
FNH:2
DA:14,1
DA:15,1
DA:16,1
DA:17,1
DA:18,1
DA:19,1
DA:20,1
DA:21,1
DA:22,1
DA:23,1
DA:24,1
DA:25,1
DA:26,1
DA:27,1
DA:28,1
DA:29,1
DA:30,1
DA:31,1
DA:34,1
DA:35,1
DA:36,1
DA:37,1
DA:38,1
DA:39,1
DA:40,1
DA:41,1
DA:42,1
DA:43,1
DA:44,1
DA:45,1
DA:46,1
DA:47,1
DA:48,1
BRF:0
BRH:0
LF:33
LH:33
end_of_record
SF:/Users/smeya/git/darwin-metrics/src/utils/test_utils.rs
FN:21,_RNCNCNvNtNtCs6JXvGULNGKJ_14darwin_metrics5utils10test_utils35create_test_dictionary_with_entries00B9_
FN:22,_RNCNCNvNtNtCs6JXvGULNGKJ_14darwin_metrics5utils10test_utils35create_test_dictionary_with_entries0s_0B9_
FN:38,_RNCNvNtNtCs6JXvGULNGKJ_14darwin_metrics5utils10test_utils18create_test_number0B7_
FN:19,_RNCNvNtNtCs6JXvGULNGKJ_14darwin_metrics5utils10test_utils35create_test_dictionary_with_entries0B7_
FN:37,_RNvNtNtCs6JXvGULNGKJ_14darwin_metrics5utils10test_utils18create_test_number
FN:32,_RNvNtNtCs6JXvGULNGKJ_14darwin_metrics5utils10test_utils18create_test_string
FN:18,_RNvNtNtCs6JXvGULNGKJ_14darwin_metrics5utils10test_utils35create_test_dictionary_with_entries
FN:47,_RNCNvNtNtCs6JXvGULNGKJ_14darwin_metrics5utils10test_utils18create_test_object0B7_
FN:10,_RNCNvNtNtCs6JXvGULNGKJ_14darwin_metrics5utils10test_utils22create_test_dictionary0B7_
FN:46,_RNvNtNtCs6JXvGULNGKJ_14darwin_metrics5utils10test_utils18create_test_object
FN:9,_RNvNtNtCs6JXvGULNGKJ_14darwin_metrics5utils10test_utils22create_test_dictionary
FN:21,_RNCNCNvNtNtCsaakIWYUxKbY_14darwin_metrics5utils10test_utils35create_test_dictionary_with_entries00B9_
FN:22,_RNCNCNvNtNtCsaakIWYUxKbY_14darwin_metrics5utils10test_utils35create_test_dictionary_with_entries0s_0B9_
FN:38,_RNCNvNtNtCsaakIWYUxKbY_14darwin_metrics5utils10test_utils18create_test_number0B7_
FN:47,_RNCNvNtNtCsaakIWYUxKbY_14darwin_metrics5utils10test_utils18create_test_object0B7_
FN:10,_RNCNvNtNtCsaakIWYUxKbY_14darwin_metrics5utils10test_utils22create_test_dictionary0B7_
FN:19,_RNCNvNtNtCsaakIWYUxKbY_14darwin_metrics5utils10test_utils35create_test_dictionary_with_entries0B7_
FN:37,_RNvNtNtCsaakIWYUxKbY_14darwin_metrics5utils10test_utils18create_test_number
FN:46,_RNvNtNtCsaakIWYUxKbY_14darwin_metrics5utils10test_utils18create_test_object
FN:32,_RNvNtNtCsaakIWYUxKbY_14darwin_metrics5utils10test_utils18create_test_string
FN:9,_RNvNtNtCsaakIWYUxKbY_14darwin_metrics5utils10test_utils22create_test_dictionary
FN:18,_RNvNtNtCsaakIWYUxKbY_14darwin_metrics5utils10test_utils35create_test_dictionary_with_entries
FNDA:0,_RNCNCNvNtNtCs6JXvGULNGKJ_14darwin_metrics5utils10test_utils35create_test_dictionary_with_entries00B9_
FNDA:0,_RNCNCNvNtNtCs6JXvGULNGKJ_14darwin_metrics5utils10test_utils35create_test_dictionary_with_entries0s_0B9_
FNDA:0,_RNCNvNtNtCs6JXvGULNGKJ_14darwin_metrics5utils10test_utils18create_test_number0B7_
FNDA:0,_RNCNvNtNtCs6JXvGULNGKJ_14darwin_metrics5utils10test_utils35create_test_dictionary_with_entries0B7_
FNDA:0,_RNvNtNtCs6JXvGULNGKJ_14darwin_metrics5utils10test_utils18create_test_number
FNDA:0,_RNvNtNtCs6JXvGULNGKJ_14darwin_metrics5utils10test_utils18create_test_string
FNDA:0,_RNvNtNtCs6JXvGULNGKJ_14darwin_metrics5utils10test_utils35create_test_dictionary_with_entries
FNDA:10,_RNCNvNtNtCs6JXvGULNGKJ_14darwin_metrics5utils10test_utils18create_test_object0B7_
FNDA:22,_RNCNvNtNtCs6JXvGULNGKJ_14darwin_metrics5utils10test_utils22create_test_dictionary0B7_
FNDA:10,_RNvNtNtCs6JXvGULNGKJ_14darwin_metrics5utils10test_utils18create_test_object
FNDA:22,_RNvNtNtCs6JXvGULNGKJ_14darwin_metrics5utils10test_utils22create_test_dictionary
FNDA:0,_RNCNCNvNtNtCsaakIWYUxKbY_14darwin_metrics5utils10test_utils35create_test_dictionary_with_entries00B9_
FNDA:0,_RNCNCNvNtNtCsaakIWYUxKbY_14darwin_metrics5utils10test_utils35create_test_dictionary_with_entries0s_0B9_
FNDA:0,_RNCNvNtNtCsaakIWYUxKbY_14darwin_metrics5utils10test_utils18create_test_number0B7_
FNDA:0,_RNCNvNtNtCsaakIWYUxKbY_14darwin_metrics5utils10test_utils18create_test_object0B7_
FNDA:0,_RNCNvNtNtCsaakIWYUxKbY_14darwin_metrics5utils10test_utils22create_test_dictionary0B7_
FNDA:0,_RNCNvNtNtCsaakIWYUxKbY_14darwin_metrics5utils10test_utils35create_test_dictionary_with_entries0B7_
FNDA:0,_RNvNtNtCsaakIWYUxKbY_14darwin_metrics5utils10test_utils18create_test_number
FNDA:0,_RNvNtNtCsaakIWYUxKbY_14darwin_metrics5utils10test_utils18create_test_object
FNDA:0,_RNvNtNtCsaakIWYUxKbY_14darwin_metrics5utils10test_utils18create_test_string
FNDA:0,_RNvNtNtCsaakIWYUxKbY_14darwin_metrics5utils10test_utils22create_test_dictionary
FNDA:0,_RNvNtNtCsaakIWYUxKbY_14darwin_metrics5utils10test_utils35create_test_dictionary_with_entries
FNF:11
FNH:4
DA:9,22
DA:10,22
DA:11,22
DA:12,22
DA:13,22
DA:14,22
DA:15,22
DA:18,0
DA:19,0
DA:20,0
DA:21,0
DA:22,0
DA:23,0
DA:24,0
DA:25,0
DA:26,0
DA:27,0
DA:28,0
DA:29,0
DA:32,0
DA:33,0
DA:34,0
DA:37,0
DA:38,0
DA:39,0
DA:40,0
DA:41,0
DA:42,0
DA:43,0
DA:46,10
DA:47,10
DA:48,10
DA:49,10
DA:50,10
DA:51,10
BRF:0
BRH:0
LF:45
LH:17
end_of_record