SF:/Users/smeya/git/darwin-metrics/src/battery/mod.rs
FN:55,_RNvMs_NtCslGh6CY2EcXh_14darwin_metrics7batteryNtB4_7Battery3new
FN:406,_RNvNtNtCslGh6CY2EcXh_14darwin_metrics7battery5tests19create_mock_battery
FN:583,_RNvNtNtCslGh6CY2EcXh_14darwin_metrics7battery5testss_15test_battery_eq
FN:423,_RNvNtNtCslGh6CY2EcXh_14darwin_metrics7battery5testss_16test_battery_new
FN:568,_RNvNtNtCslGh6CY2EcXh_14darwin_metrics7battery5testss_18test_battery_clone
FN:502,_RNvNtNtCslGh6CY2EcXh_14darwin_metrics7battery5testss_19test_battery_is_low
FN:465,_RNvNtNtCslGh6CY2EcXh_14darwin_metrics7battery5testss_21test_battery_get_info
FN:491,_RNvNtNtCslGh6CY2EcXh_14darwin_metrics7battery5testss_24test_battery_is_critical
FN:476,_RNvNtNtCslGh6CY2EcXh_14darwin_metrics7battery5testss_24test_battery_with_values
FN:529,_RNvNtNtCslGh6CY2EcXh_14darwin_metrics7battery5testss_27test_battery_is_health_poor
FN:432,_RNvNtNtCslGh6CY2EcXh_14darwin_metrics7battery5testss_27test_battery_update_present
FN:449,_RNvNtNtCslGh6CY2EcXh_14darwin_metrics7battery5testss_31test_battery_update_not_present
FN:538,_RNvNtNtCslGh6CY2EcXh_14darwin_metrics7battery5testss_33test_battery_has_high_cycle_count
FN:547,_RNvNtNtCslGh6CY2EcXh_14darwin_metrics7battery5testss_33test_battery_power_source_display
FN:511,_RNvNtNtCslGh6CY2EcXh_14darwin_metrics7battery5testss_35test_battery_time_remaining_display
FN:559,_RNvNtNtCslGh6CY2EcXh_14darwin_metrics7battery5testss_36test_battery_is_temperature_critical
FN:322,_RNvXNtNtCslGh6CY2EcXh_14darwin_metrics7battery5testsNtB2_9MockIOKitNtNtNtB6_8hardware5iokit5IOKit11get_service
FN:363,_RNvXNtNtCslGh6CY2EcXh_14darwin_metrics7battery5testsNtB2_9MockIOKitNtNtNtB6_8hardware5iokit5IOKit12get_all_fans
FN:359,_RNvXNtNtCslGh6CY2EcXh_14darwin_metrics7battery5testsNtB2_9MockIOKitNtNtNtB6_8hardware5iokit5IOKit12get_fan_info
FN:400,_RNvXNtNtCslGh6CY2EcXh_14darwin_metrics7battery5testsNtB2_9MockIOKitNtNtNtB6_8hardware5iokit5IOKit12read_smc_key
FN:380,_RNvXNtNtCslGh6CY2EcXh_14darwin_metrics7battery5testsNtB2_9MockIOKitNtNtNtB6_8hardware5iokit5IOKit13get_cpu_power
FN:355,_RNvXNtNtCslGh6CY2EcXh_14darwin_metrics7battery5testsNtB2_9MockIOKitNtNtNtB6_8hardware5iokit5IOKit13get_fan_count
FN:351,_RNvXNtNtCslGh6CY2EcXh_14darwin_metrics7battery5testsNtB2_9MockIOKitNtNtNtB6_8hardware5iokit5IOKit13get_fan_speed
FN:339,_RNvXNtNtCslGh6CY2EcXh_14darwin_metrics7battery5testsNtB2_9MockIOKitNtNtNtB6_8hardware5iokit5IOKit13get_gpu_stats
FN:388,_RNvXNtNtCslGh6CY2EcXh_14darwin_metrics7battery5testsNtB2_9MockIOKitNtNtNtB6_8hardware5iokit5IOKit16get_thermal_info
FN:301,_RNvXNtNtCslGh6CY2EcXh_14darwin_metrics7battery5testsNtB2_9MockIOKitNtNtNtB6_8hardware5iokit5IOKit17get_bool_property
FN:314,_RNvXNtNtCslGh6CY2EcXh_14darwin_metrics7battery5testsNtB2_9MockIOKitNtNtNtB6_8hardware5iokit5IOKit17get_dict_property
FN:275,_RNvXNtNtCslGh6CY2EcXh_14darwin_metrics7battery5testsNtB2_9MockIOKitNtNtNtB6_8hardware5iokit5IOKit17io_object_release
FN:331,_RNvXNtNtCslGh6CY2EcXh_14darwin_metrics7battery5testsNtB2_9MockIOKitNtNtNtB6_8hardware5iokit5IOKit19get_cpu_temperature
FN:335,_RNvXNtNtCslGh6CY2EcXh_14darwin_metrics7battery5testsNtB2_9MockIOKitNtNtNtB6_8hardware5iokit5IOKit19get_gpu_temperature
FN:285,_RNvXNtNtCslGh6CY2EcXh_14darwin_metrics7battery5testsNtB2_9MockIOKitNtNtNtB6_8hardware5iokit5IOKit19get_number_property
FN:277,_RNvXNtNtCslGh6CY2EcXh_14darwin_metrics7battery5testsNtB2_9MockIOKitNtNtNtB6_8hardware5iokit5IOKit19get_string_property
FN:254,_RNvXNtNtCslGh6CY2EcXh_14darwin_metrics7battery5testsNtB2_9MockIOKitNtNtNtB6_8hardware5iokit5IOKit19io_service_matching
FN:372,_RNvXNtNtCslGh6CY2EcXh_14darwin_metrics7battery5testsNtB2_9MockIOKitNtNtNtB6_8hardware5iokit5IOKit23get_ambient_temperature
FN:376,_RNvXNtNtCslGh6CY2EcXh_14darwin_metrics7battery5testsNtB2_9MockIOKitNtNtNtB6_8hardware5iokit5IOKit23get_battery_temperature
FN:384,_RNvXNtNtCslGh6CY2EcXh_14darwin_metrics7battery5testsNtB2_9MockIOKitNtNtNtB6_8hardware5iokit5IOKit24check_thermal_throttling
FN:368,_RNvXNtNtCslGh6CY2EcXh_14darwin_metrics7battery5testsNtB2_9MockIOKitNtNtNtB6_8hardware5iokit5IOKit24get_heatsink_temperature
FN:326,_RNvXNtNtCslGh6CY2EcXh_14darwin_metrics7battery5testsNtB2_9MockIOKitNtNtNtB6_8hardware5iokit5IOKit28io_registry_entry_get_parent
FN:261,_RNvXNtNtCslGh6CY2EcXh_14darwin_metrics7battery5testsNtB2_9MockIOKitNtNtNtB6_8hardware5iokit5IOKit31io_service_get_matching_service
FN:268,_RNvXNtNtCslGh6CY2EcXh_14darwin_metrics7battery5testsNtB2_9MockIOKitNtNtNtB6_8hardware5iokit5IOKit38io_registry_entry_create_cf_properties
FN:167,_RNvMs_NtCslGh6CY2EcXh_14darwin_metrics7batteryNtB4_7Battery11is_critical
FN:144,_RNvMs_NtCslGh6CY2EcXh_14darwin_metrics7batteryNtB4_7Battery11with_values
FN:186,_RNvMs_NtCslGh6CY2EcXh_14darwin_metrics7batteryNtB4_7Battery14is_health_poor
FN:190,_RNvMs_NtCslGh6CY2EcXh_14darwin_metrics7batteryNtB4_7Battery20has_high_cycle_count
FN:194,_RNvMs_NtCslGh6CY2EcXh_14darwin_metrics7batteryNtB4_7Battery20power_source_display
FN:175,_RNvMs_NtCslGh6CY2EcXh_14darwin_metrics7batteryNtB4_7Battery22time_remaining_display
FN:202,_RNvMs_NtCslGh6CY2EcXh_14darwin_metrics7batteryNtB4_7Battery23is_temperature_critical
FN:171,_RNvMs_NtCslGh6CY2EcXh_14darwin_metrics7batteryNtB4_7Battery6is_low
FN:66,_RNvMs_NtCslGh6CY2EcXh_14darwin_metrics7batteryNtB4_7Battery6update
FN:128,_RNvMs_NtCslGh6CY2EcXh_14darwin_metrics7batteryNtB4_7Battery8get_info
FN:44,_RNvXNtCslGh6CY2EcXh_14darwin_metrics7batteryNtB2_7BatteryNtNtCs4P3ALgZxGbJ_4core7default7Default7default
FN:208,_RNvXs0_NtCslGh6CY2EcXh_14darwin_metrics7batteryNtB5_7BatteryNtNtCs4P3ALgZxGbJ_4core5clone5Clone5clone
FN:224,_RNvXs1_NtCslGh6CY2EcXh_14darwin_metrics7batteryNtB5_7BatteryNtNtCs4P3ALgZxGbJ_4core3cmp9PartialEq2eq
FN:167,_RNvMs_NtCsGBPSOZydBW_14darwin_metrics7batteryNtB4_7Battery11is_critical
FN:144,_RNvMs_NtCsGBPSOZydBW_14darwin_metrics7batteryNtB4_7Battery11with_values
FN:186,_RNvMs_NtCsGBPSOZydBW_14darwin_metrics7batteryNtB4_7Battery14is_health_poor
FN:190,_RNvMs_NtCsGBPSOZydBW_14darwin_metrics7batteryNtB4_7Battery20has_high_cycle_count
FN:194,_RNvMs_NtCsGBPSOZydBW_14darwin_metrics7batteryNtB4_7Battery20power_source_display
FN:175,_RNvMs_NtCsGBPSOZydBW_14darwin_metrics7batteryNtB4_7Battery22time_remaining_display
FN:202,_RNvMs_NtCsGBPSOZydBW_14darwin_metrics7batteryNtB4_7Battery23is_temperature_critical
FN:55,_RNvMs_NtCsGBPSOZydBW_14darwin_metrics7batteryNtB4_7Battery3new
FN:171,_RNvMs_NtCsGBPSOZydBW_14darwin_metrics7batteryNtB4_7Battery6is_low
FN:66,_RNvMs_NtCsGBPSOZydBW_14darwin_metrics7batteryNtB4_7Battery6update
FN:128,_RNvMs_NtCsGBPSOZydBW_14darwin_metrics7batteryNtB4_7Battery8get_info
FN:44,_RNvXNtCsGBPSOZydBW_14darwin_metrics7batteryNtB2_7BatteryNtNtCs4P3ALgZxGbJ_4core7default7Default7default
FN:208,_RNvXs0_NtCsGBPSOZydBW_14darwin_metrics7batteryNtB5_7BatteryNtNtCs4P3ALgZxGbJ_4core5clone5Clone5clone
FN:224,_RNvXs1_NtCsGBPSOZydBW_14darwin_metrics7batteryNtB5_7BatteryNtNtCs4P3ALgZxGbJ_4core3cmp9PartialEq2eq
FNDA:0,_RNvMs_NtCslGh6CY2EcXh_14darwin_metrics7batteryNtB4_7Battery3new
FNDA:6,_RNvNtNtCslGh6CY2EcXh_14darwin_metrics7battery5tests19create_mock_battery
FNDA:1,_RNvNtNtCslGh6CY2EcXh_14darwin_metrics7battery5testss_15test_battery_eq
FNDA:1,_RNvNtNtCslGh6CY2EcXh_14darwin_metrics7battery5testss_16test_battery_new
FNDA:1,_RNvNtNtCslGh6CY2EcXh_14darwin_metrics7battery5testss_18test_battery_clone
FNDA:1,_RNvNtNtCslGh6CY2EcXh_14darwin_metrics7battery5testss_19test_battery_is_low
FNDA:1,_RNvNtNtCslGh6CY2EcXh_14darwin_metrics7battery5testss_21test_battery_get_info
FNDA:1,_RNvNtNtCslGh6CY2EcXh_14darwin_metrics7battery5testss_24test_battery_is_critical
FNDA:1,_RNvNtNtCslGh6CY2EcXh_14darwin_metrics7battery5testss_24test_battery_with_values
FNDA:1,_RNvNtNtCslGh6CY2EcXh_14darwin_metrics7battery5testss_27test_battery_is_health_poor
FNDA:1,_RNvNtNtCslGh6CY2EcXh_14darwin_metrics7battery5testss_27test_battery_update_present
FNDA:1,_RNvNtNtCslGh6CY2EcXh_14darwin_metrics7battery5testss_31test_battery_update_not_present
FNDA:1,_RNvNtNtCslGh6CY2EcXh_14darwin_metrics7battery5testss_33test_battery_has_high_cycle_count
FNDA:1,_RNvNtNtCslGh6CY2EcXh_14darwin_metrics7battery5testss_33test_battery_power_source_display
FNDA:1,_RNvNtNtCslGh6CY2EcXh_14darwin_metrics7battery5testss_35test_battery_time_remaining_display
FNDA:1,_RNvNtNtCslGh6CY2EcXh_14darwin_metrics7battery5testss_36test_battery_is_temperature_critical
FNDA:0,_RNvXNtNtCslGh6CY2EcXh_14darwin_metrics7battery5testsNtB2_9MockIOKitNtNtNtB6_8hardware5iokit5IOKit11get_service
FNDA:0,_RNvXNtNtCslGh6CY2EcXh_14darwin_metrics7battery5testsNtB2_9MockIOKitNtNtNtB6_8hardware5iokit5IOKit12get_all_fans
FNDA:0,_RNvXNtNtCslGh6CY2EcXh_14darwin_metrics7battery5testsNtB2_9MockIOKitNtNtNtB6_8hardware5iokit5IOKit12get_fan_info
FNDA:0,_RNvXNtNtCslGh6CY2EcXh_14darwin_metrics7battery5testsNtB2_9MockIOKitNtNtNtB6_8hardware5iokit5IOKit12read_smc_key
FNDA:0,_RNvXNtNtCslGh6CY2EcXh_14darwin_metrics7battery5testsNtB2_9MockIOKitNtNtNtB6_8hardware5iokit5IOKit13get_cpu_power
FNDA:0,_RNvXNtNtCslGh6CY2EcXh_14darwin_metrics7battery5testsNtB2_9MockIOKitNtNtNtB6_8hardware5iokit5IOKit13get_fan_count
FNDA:0,_RNvXNtNtCslGh6CY2EcXh_14darwin_metrics7battery5testsNtB2_9MockIOKitNtNtNtB6_8hardware5iokit5IOKit13get_fan_speed
FNDA:0,_RNvXNtNtCslGh6CY2EcXh_14darwin_metrics7battery5testsNtB2_9MockIOKitNtNtNtB6_8hardware5iokit5IOKit13get_gpu_stats
FNDA:0,_RNvXNtNtCslGh6CY2EcXh_14darwin_metrics7battery5testsNtB2_9MockIOKitNtNtNtB6_8hardware5iokit5IOKit16get_thermal_info
FNDA:16,_RNvXNtNtCslGh6CY2EcXh_14darwin_metrics7battery5testsNtB2_9MockIOKitNtNtNtB6_8hardware5iokit5IOKit17get_bool_property
FNDA:0,_RNvXNtNtCslGh6CY2EcXh_14darwin_metrics7battery5testsNtB2_9MockIOKitNtNtNtB6_8hardware5iokit5IOKit17get_dict_property
FNDA:0,_RNvXNtNtCslGh6CY2EcXh_14darwin_metrics7battery5testsNtB2_9MockIOKitNtNtNtB6_8hardware5iokit5IOKit17io_object_release
FNDA:0,_RNvXNtNtCslGh6CY2EcXh_14darwin_metrics7battery5testsNtB2_9MockIOKitNtNtNtB6_8hardware5iokit5IOKit19get_cpu_temperature
FNDA:0,_RNvXNtNtCslGh6CY2EcXh_14darwin_metrics7battery5testsNtB2_9MockIOKitNtNtNtB6_8hardware5iokit5IOKit19get_gpu_temperature
FNDA:30,_RNvXNtNtCslGh6CY2EcXh_14darwin_metrics7battery5testsNtB2_9MockIOKitNtNtNtB6_8hardware5iokit5IOKit19get_number_property
FNDA:0,_RNvXNtNtCslGh6CY2EcXh_14darwin_metrics7battery5testsNtB2_9MockIOKitNtNtNtB6_8hardware5iokit5IOKit19get_string_property
FNDA:7,_RNvXNtNtCslGh6CY2EcXh_14darwin_metrics7battery5testsNtB2_9MockIOKitNtNtNtB6_8hardware5iokit5IOKit19io_service_matching
FNDA:0,_RNvXNtNtCslGh6CY2EcXh_14darwin_metrics7battery5testsNtB2_9MockIOKitNtNtNtB6_8hardware5iokit5IOKit23get_ambient_temperature
FNDA:0,_RNvXNtNtCslGh6CY2EcXh_14darwin_metrics7battery5testsNtB2_9MockIOKitNtNtNtB6_8hardware5iokit5IOKit23get_battery_temperature
FNDA:0,_RNvXNtNtCslGh6CY2EcXh_14darwin_metrics7battery5testsNtB2_9MockIOKitNtNtNtB6_8hardware5iokit5IOKit24check_thermal_throttling
FNDA:0,_RNvXNtNtCslGh6CY2EcXh_14darwin_metrics7battery5testsNtB2_9MockIOKitNtNtNtB6_8hardware5iokit5IOKit24get_heatsink_temperature
FNDA:0,_RNvXNtNtCslGh6CY2EcXh_14darwin_metrics7battery5testsNtB2_9MockIOKitNtNtNtB6_8hardware5iokit5IOKit28io_registry_entry_get_parent
FNDA:7,_RNvXNtNtCslGh6CY2EcXh_14darwin_metrics7battery5testsNtB2_9MockIOKitNtNtNtB6_8hardware5iokit5IOKit31io_service_get_matching_service
FNDA:7,_RNvXNtNtCslGh6CY2EcXh_14darwin_metrics7battery5testsNtB2_9MockIOKitNtNtNtB6_8hardware5iokit5IOKit38io_registry_entry_create_cf_properties
FNDA:2,_RNvMs_NtCslGh6CY2EcXh_14darwin_metrics7batteryNtB4_7Battery11is_critical
FNDA:18,_RNvMs_NtCslGh6CY2EcXh_14darwin_metrics7batteryNtB4_7Battery11with_values
FNDA:2,_RNvMs_NtCslGh6CY2EcXh_14darwin_metrics7batteryNtB4_7Battery14is_health_poor
FNDA:2,_RNvMs_NtCslGh6CY2EcXh_14darwin_metrics7batteryNtB4_7Battery20has_high_cycle_count
FNDA:3,_RNvMs_NtCslGh6CY2EcXh_14darwin_metrics7batteryNtB4_7Battery20power_source_display
FNDA:3,_RNvMs_NtCslGh6CY2EcXh_14darwin_metrics7batteryNtB4_7Battery22time_remaining_display
FNDA:2,_RNvMs_NtCslGh6CY2EcXh_14darwin_metrics7batteryNtB4_7Battery23is_temperature_critical
FNDA:2,_RNvMs_NtCslGh6CY2EcXh_14darwin_metrics7batteryNtB4_7Battery6is_low
FNDA:6,_RNvMs_NtCslGh6CY2EcXh_14darwin_metrics7batteryNtB4_7Battery6update
FNDA:1,_RNvMs_NtCslGh6CY2EcXh_14darwin_metrics7batteryNtB4_7Battery8get_info
FNDA:17,_RNvXNtCslGh6CY2EcXh_14darwin_metrics7batteryNtB2_7BatteryNtNtCs4P3ALgZxGbJ_4core7default7Default7default
FNDA:2,_RNvXs0_NtCslGh6CY2EcXh_14darwin_metrics7batteryNtB5_7BatteryNtNtCs4P3ALgZxGbJ_4core5clone5Clone5clone
FNDA:2,_RNvXs1_NtCslGh6CY2EcXh_14darwin_metrics7batteryNtB5_7BatteryNtNtCs4P3ALgZxGbJ_4core3cmp9PartialEq2eq
FNDA:0,_RNvMs_NtCsGBPSOZydBW_14darwin_metrics7batteryNtB4_7Battery11is_critical
FNDA:0,_RNvMs_NtCsGBPSOZydBW_14darwin_metrics7batteryNtB4_7Battery11with_values
FNDA:0,_RNvMs_NtCsGBPSOZydBW_14darwin_metrics7batteryNtB4_7Battery14is_health_poor
FNDA:0,_RNvMs_NtCsGBPSOZydBW_14darwin_metrics7batteryNtB4_7Battery20has_high_cycle_count
FNDA:0,_RNvMs_NtCsGBPSOZydBW_14darwin_metrics7batteryNtB4_7Battery20power_source_display
FNDA:0,_RNvMs_NtCsGBPSOZydBW_14darwin_metrics7batteryNtB4_7Battery22time_remaining_display
FNDA:0,_RNvMs_NtCsGBPSOZydBW_14darwin_metrics7batteryNtB4_7Battery23is_temperature_critical
FNDA:0,_RNvMs_NtCsGBPSOZydBW_14darwin_metrics7batteryNtB4_7Battery3new
FNDA:0,_RNvMs_NtCsGBPSOZydBW_14darwin_metrics7batteryNtB4_7Battery6is_low
FNDA:0,_RNvMs_NtCsGBPSOZydBW_14darwin_metrics7batteryNtB4_7Battery6update
FNDA:0,_RNvMs_NtCsGBPSOZydBW_14darwin_metrics7batteryNtB4_7Battery8get_info
FNDA:0,_RNvXNtCsGBPSOZydBW_14darwin_metrics7batteryNtB2_7BatteryNtNtCs4P3ALgZxGbJ_4core7default7Default7default
FNDA:0,_RNvXs0_NtCsGBPSOZydBW_14darwin_metrics7batteryNtB5_7BatteryNtNtCs4P3ALgZxGbJ_4core5clone5Clone5clone
FNDA:0,_RNvXs1_NtCsGBPSOZydBW_14darwin_metrics7batteryNtB5_7BatteryNtNtCs4P3ALgZxGbJ_4core3cmp9PartialEq2eq
FNF:53
FNH:33
DA:44,17
DA:45,17
DA:46,17
DA:55,0
DA:56,0
DA:57,0
DA:58,0
DA:59,0
DA:66,6
DA:67,6
DA:68,6
DA:70,6
DA:71,0
DA:74,6
DA:76,6
DA:77,6
DA:78,6
DA:79,6
DA:80,1
DA:81,1
DA:82,1
DA:83,1
DA:84,1
DA:85,1
DA:86,1
DA:87,1
DA:88,5
DA:89,5
DA:90,5
DA:91,5
DA:92,5
DA:93,5
DA:94,5
DA:96,5
DA:97,5
DA:98,5
DA:99,5
DA:100,5
DA:101,5
DA:103,5
DA:104,5
DA:105,5
DA:106,5
DA:107,5
DA:108,5
DA:110,5
DA:111,5
DA:112,5
DA:113,5
DA:114,5
DA:115,5
DA:116,5
DA:117,5
DA:118,5
DA:119,5
DA:120,5
DA:121,6
DA:128,1
DA:129,1
DA:130,1
DA:132,1
DA:133,0
DA:136,1
DA:137,1
DA:138,0
DA:140,1
DA:144,18
DA:145,18
DA:146,18
DA:147,18
DA:148,18
DA:149,18
DA:150,18
DA:151,18
DA:152,18
DA:153,18
DA:154,18
DA:155,18
DA:156,18
DA:157,18
DA:158,18
DA:159,18
DA:160,18
DA:161,18
DA:162,18
DA:163,18
DA:164,18
DA:165,18
DA:167,2
DA:168,2
DA:169,2
DA:171,2
DA:172,2
DA:173,2
DA:175,3
DA:176,3
DA:177,3
DA:178,2
DA:180,1
DA:181,1
DA:182,1
DA:184,3
DA:186,2
DA:187,2
DA:188,2
DA:190,2
DA:191,2
DA:192,2
DA:194,3
DA:195,3
DA:196,1
DA:197,1
DA:198,1
DA:200,3
DA:202,2
DA:203,2
DA:204,2
DA:208,2
DA:209,2
DA:210,2
DA:211,2
DA:212,2
DA:213,2
DA:214,2
DA:215,2
DA:216,2
DA:217,2
DA:218,2
DA:219,2
DA:220,2
DA:224,2
DA:225,2
DA:226,2
DA:227,2
DA:228,1
DA:229,1
DA:230,1
DA:231,1
DA:232,1
DA:233,2
DA:254,7
DA:255,7
DA:256,7
DA:257,7
DA:258,7
DA:259,7
DA:261,7
DA:262,7
DA:263,7
DA:264,7
DA:265,7
DA:266,7
DA:268,7
DA:269,7
DA:270,7
DA:271,7
DA:272,7
DA:273,7
DA:275,0
DA:277,0
DA:278,0
DA:279,0
DA:280,0
DA:281,0
DA:282,0
DA:283,0
DA:285,30
DA:286,30
DA:287,30
DA:288,30
DA:289,30
DA:290,30
DA:291,30
DA:292,25
DA:293,20
DA:294,15
DA:295,10
DA:296,5
DA:297,0
DA:299,30
DA:301,16
DA:302,16
DA:303,16
DA:304,16
DA:305,16
DA:306,16
DA:307,16
DA:308,10
DA:309,5
DA:310,0
DA:312,16
DA:314,0
DA:315,0
DA:316,0
DA:317,0
DA:318,0
DA:319,0
DA:320,0
DA:322,0
DA:323,0
DA:324,0
DA:326,0
DA:327,0
DA:328,0
DA:331,0
DA:332,0
DA:333,0
DA:335,0
DA:336,0
DA:337,0
DA:339,0
DA:340,0
DA:341,0
DA:342,0
DA:343,0
DA:344,0
DA:345,0
DA:346,0
DA:347,0
DA:348,0
DA:351,0
DA:352,0
DA:353,0
DA:355,0
DA:356,0
DA:357,0
DA:359,0
DA:360,0
DA:361,0
DA:363,0
DA:364,0
DA:365,0
DA:368,0
DA:369,0
DA:370,0
DA:372,0
DA:373,0
DA:374,0
DA:376,0
DA:377,0
DA:378,0
DA:380,0
DA:381,0
DA:382,0
DA:384,0
DA:385,0
DA:386,0
DA:388,0
DA:389,0
DA:390,0
DA:391,0
DA:392,0
DA:393,0
DA:394,0
DA:395,0
DA:396,0
DA:397,0
DA:398,0
DA:400,0
DA:401,0
DA:402,0
DA:406,6
DA:407,6
DA:408,6
DA:409,6
DA:410,6
DA:411,6
DA:412,6
DA:413,6
DA:414,6
DA:415,6
DA:416,6
DA:417,6
DA:418,6
DA:419,6
DA:420,6
DA:423,1
DA:424,1
DA:425,1
DA:426,1
DA:427,1
DA:428,1
DA:429,1
DA:432,1
DA:433,1
DA:434,1
DA:435,1
DA:436,1
DA:437,1
DA:438,1
DA:439,1
DA:440,1
DA:441,1
DA:442,1
DA:444,1
DA:445,1
DA:446,1
DA:449,1
DA:450,1
DA:451,1
DA:452,1
DA:453,1
DA:454,1
DA:455,1
DA:456,1
DA:457,1
DA:458,1
DA:459,1
DA:460,1
DA:461,1
DA:462,1
DA:465,1
DA:466,1
DA:467,1
DA:468,1
DA:469,1
DA:470,1
DA:471,1
DA:472,1
DA:473,1
DA:476,1
DA:477,1
DA:478,1
DA:479,1
DA:480,1
DA:481,1
DA:482,1
DA:483,1
DA:484,1
DA:485,1
DA:486,1
DA:487,1
DA:488,1
DA:491,1
DA:492,1
DA:493,1
DA:494,1
DA:496,1
DA:497,1
DA:498,1
DA:499,1
DA:502,1
DA:503,1
DA:504,1
DA:506,1
DA:507,1
DA:508,1
DA:511,1
DA:512,1
DA:513,1
DA:514,1
DA:515,1
DA:516,1
DA:519,1
DA:520,1
DA:521,1
DA:524,1
DA:525,1
DA:526,1
DA:529,1
DA:530,1
DA:531,1
DA:533,1
DA:534,1
DA:535,1
DA:538,1
DA:539,1
DA:540,1
DA:542,1
DA:543,1
DA:544,1
DA:547,1
DA:548,1
DA:549,1
DA:551,1
DA:552,1
DA:554,1
DA:555,1
DA:556,1
DA:559,1
DA:560,1
DA:561,1
DA:563,1
DA:564,1
DA:565,1
DA:568,1
DA:569,1
DA:570,1
DA:571,1
DA:572,1
DA:573,1
DA:574,1
DA:575,1
DA:576,1
DA:577,1
DA:578,1
DA:579,1
DA:580,1
DA:583,1
DA:584,1
DA:585,1
DA:586,1
DA:587,1
DA:588,1
DA:589,1
DA:590,1
DA:593,1
DA:594,1
DA:595,1
BRF:0
BRH:0
LF:409
LH:321
end_of_record
SF:/Users/smeya/git/darwin-metrics/src/disk/mod.rs
FN:911,_RNCNvNtNtCslGh6CY2EcXh_14darwin_metrics4disk5testss_20test_get_all_volumes0B7_
FN:876,_RNvNtNtCslGh6CY2EcXh_14darwin_metrics4disk5testss_17test_format_bytes
FN:852,_RNvNtNtCslGh6CY2EcXh_14darwin_metrics4disk5testss_19test_is_nearly_full
FN:902,_RNvNtNtCslGh6CY2EcXh_14darwin_metrics4disk5testss_20test_get_all_volumes
FN:921,_RNvNtNtCslGh6CY2EcXh_14darwin_metrics4disk5testss_21test_disk_performance
FN:886,_RNvNtNtCslGh6CY2EcXh_14darwin_metrics4disk5testss_23test_get_root_disk_info
FN:838,_RNvNtNtCslGh6CY2EcXh_14darwin_metrics4disk5testss_26test_disk_usage_percentage
FN:441,_RNvMs0_NtCslGh6CY2EcXh_14darwin_metrics4diskNtB5_4Disk12format_bytes
FN:422,_RNvMs0_NtCslGh6CY2EcXh_14darwin_metrics4diskNtB5_4Disk12used_display
FN:157,_RNvMs0_NtCslGh6CY2EcXh_14darwin_metrics4diskNtB5_4Disk12with_details
FN:417,_RNvMs0_NtCslGh6CY2EcXh_14darwin_metrics4diskNtB5_4Disk13total_display
FN:407,_RNvMs0_NtCslGh6CY2EcXh_14darwin_metrics4diskNtB5_4Disk14is_nearly_full
FN:399,_RNvMs0_NtCslGh6CY2EcXh_14darwin_metrics4diskNtB5_4Disk16usage_percentage
FN:134,_RNvMs0_NtCslGh6CY2EcXh_14darwin_metrics4diskNtB5_4Disk3new
FN:228,_RNvMs0_NtCslGh6CY2EcXh_14darwin_metrics4diskNtB5_4Disk7get_all
FN:427,_RNvMs0_NtCslGh6CY2EcXh_14darwin_metrics4diskNtB5_4Disk7summary
FN:180,_RNvMs0_NtCslGh6CY2EcXh_14darwin_metrics4diskNtB5_4Disk8get_info
FN:613,_RNvMs1_NtCslGh6CY2EcXh_14darwin_metrics4diskNtB5_11DiskMonitor15get_performance
FN:463,_RNvMs1_NtCslGh6CY2EcXh_14darwin_metrics4diskNtB5_11DiskMonitor3new
FN:756,_RNvMs1_NtCslGh6CY2EcXh_14darwin_metrics4diskNtB5_11DiskMonitor6update
FN:328,_RINvMs0_NtCslGh6CY2EcXh_14darwin_metrics4diskNtB6_4Disk12get_for_pathpEB8_
FN:554,_RINvMs1_NtCslGh6CY2EcXh_14darwin_metrics4diskNtB6_11DiskMonitor19get_volume_for_pathpEB8_
FN:340,_RNCINvMs0_NtCslGh6CY2EcXh_14darwin_metrics4diskNtB8_4Disk12get_for_pathpE0Ba_
FN:565,_RNCINvMs1_NtCslGh6CY2EcXh_14darwin_metrics4diskNtB8_11DiskMonitor19get_volume_for_pathpE0Ba_
FN:412,_RNvMs0_NtCslGh6CY2EcXh_14darwin_metrics4diskNtB5_4Disk17available_display
FN:468,_RNvMs1_NtCslGh6CY2EcXh_14darwin_metrics4diskNtB5_11DiskMonitor11get_volumes
FN:793,_RNvMs1_NtCslGh6CY2EcXh_14darwin_metrics4diskNtB5_11DiskMonitor16detect_disk_type
FN:28,_RNvXNtCslGh6CY2EcXh_14darwin_metrics4diskNtB2_8DiskTypeNtNtCs4P3ALgZxGbJ_4core7default7Default7default
FN:828,_RNvXs2_NtCslGh6CY2EcXh_14darwin_metrics4diskNtB5_11DiskMonitorNtNtCs4P3ALgZxGbJ_4core7default7Default7default
FN:110,_RNvXs_NtCslGh6CY2EcXh_14darwin_metrics4diskNtB4_9DiskStatsNtNtCs4P3ALgZxGbJ_4core7default7Default7default
FN:328,_RINvMs0_NtCsGBPSOZydBW_14darwin_metrics4diskNtB6_4Disk12get_for_pathpEB8_
FN:554,_RINvMs1_NtCsGBPSOZydBW_14darwin_metrics4diskNtB6_11DiskMonitor19get_volume_for_pathpEB8_
FN:340,_RNCINvMs0_NtCsGBPSOZydBW_14darwin_metrics4diskNtB8_4Disk12get_for_pathpE0Ba_
FN:565,_RNCINvMs1_NtCsGBPSOZydBW_14darwin_metrics4diskNtB8_11DiskMonitor19get_volume_for_pathpE0Ba_
FN:441,_RNvMs0_NtCsGBPSOZydBW_14darwin_metrics4diskNtB5_4Disk12format_bytes
FN:422,_RNvMs0_NtCsGBPSOZydBW_14darwin_metrics4diskNtB5_4Disk12used_display
FN:157,_RNvMs0_NtCsGBPSOZydBW_14darwin_metrics4diskNtB5_4Disk12with_details
FN:417,_RNvMs0_NtCsGBPSOZydBW_14darwin_metrics4diskNtB5_4Disk13total_display
FN:407,_RNvMs0_NtCsGBPSOZydBW_14darwin_metrics4diskNtB5_4Disk14is_nearly_full
FN:399,_RNvMs0_NtCsGBPSOZydBW_14darwin_metrics4diskNtB5_4Disk16usage_percentage
FN:412,_RNvMs0_NtCsGBPSOZydBW_14darwin_metrics4diskNtB5_4Disk17available_display
FN:134,_RNvMs0_NtCsGBPSOZydBW_14darwin_metrics4diskNtB5_4Disk3new
FN:228,_RNvMs0_NtCsGBPSOZydBW_14darwin_metrics4diskNtB5_4Disk7get_all
FN:427,_RNvMs0_NtCsGBPSOZydBW_14darwin_metrics4diskNtB5_4Disk7summary
FN:180,_RNvMs0_NtCsGBPSOZydBW_14darwin_metrics4diskNtB5_4Disk8get_info
FN:468,_RNvMs1_NtCsGBPSOZydBW_14darwin_metrics4diskNtB5_11DiskMonitor11get_volumes
FN:613,_RNvMs1_NtCsGBPSOZydBW_14darwin_metrics4diskNtB5_11DiskMonitor15get_performance
FN:793,_RNvMs1_NtCsGBPSOZydBW_14darwin_metrics4diskNtB5_11DiskMonitor16detect_disk_type
FN:463,_RNvMs1_NtCsGBPSOZydBW_14darwin_metrics4diskNtB5_11DiskMonitor3new
FN:756,_RNvMs1_NtCsGBPSOZydBW_14darwin_metrics4diskNtB5_11DiskMonitor6update
FN:28,_RNvXNtCsGBPSOZydBW_14darwin_metrics4diskNtB2_8DiskTypeNtNtCs4P3ALgZxGbJ_4core7default7Default7default
FN:828,_RNvXs2_NtCsGBPSOZydBW_14darwin_metrics4diskNtB5_11DiskMonitorNtNtCs4P3ALgZxGbJ_4core7default7Default7default
FN:110,_RNvXs_NtCsGBPSOZydBW_14darwin_metrics4diskNtB4_9DiskStatsNtNtCs4P3ALgZxGbJ_4core7default7Default7default
FNDA:1,_RNCNvNtNtCslGh6CY2EcXh_14darwin_metrics4disk5testss_20test_get_all_volumes0B7_
FNDA:1,_RNvNtNtCslGh6CY2EcXh_14darwin_metrics4disk5testss_17test_format_bytes
FNDA:1,_RNvNtNtCslGh6CY2EcXh_14darwin_metrics4disk5testss_19test_is_nearly_full
FNDA:1,_RNvNtNtCslGh6CY2EcXh_14darwin_metrics4disk5testss_20test_get_all_volumes
FNDA:1,_RNvNtNtCslGh6CY2EcXh_14darwin_metrics4disk5testss_21test_disk_performance
FNDA:1,_RNvNtNtCslGh6CY2EcXh_14darwin_metrics4disk5testss_23test_get_root_disk_info
FNDA:1,_RNvNtNtCslGh6CY2EcXh_14darwin_metrics4disk5testss_26test_disk_usage_percentage
FNDA:26,_RNvMs0_NtCslGh6CY2EcXh_14darwin_metrics4diskNtB5_4Disk12format_bytes
FNDA:9,_RNvMs0_NtCslGh6CY2EcXh_14darwin_metrics4diskNtB5_4Disk12used_display
FNDA:9,_RNvMs0_NtCslGh6CY2EcXh_14darwin_metrics4diskNtB5_4Disk12with_details
FNDA:9,_RNvMs0_NtCslGh6CY2EcXh_14darwin_metrics4diskNtB5_4Disk13total_display
FNDA:2,_RNvMs0_NtCslGh6CY2EcXh_14darwin_metrics4diskNtB5_4Disk14is_nearly_full
FNDA:12,_RNvMs0_NtCslGh6CY2EcXh_14darwin_metrics4diskNtB5_4Disk16usage_percentage
FNDA:3,_RNvMs0_NtCslGh6CY2EcXh_14darwin_metrics4diskNtB5_4Disk3new
FNDA:1,_RNvMs0_NtCslGh6CY2EcXh_14darwin_metrics4diskNtB5_4Disk7get_all
FNDA:9,_RNvMs0_NtCslGh6CY2EcXh_14darwin_metrics4diskNtB5_4Disk7summary
FNDA:1,_RNvMs0_NtCslGh6CY2EcXh_14darwin_metrics4diskNtB5_4Disk8get_info
FNDA:1,_RNvMs1_NtCslGh6CY2EcXh_14darwin_metrics4diskNtB5_11DiskMonitor15get_performance
FNDA:1,_RNvMs1_NtCslGh6CY2EcXh_14darwin_metrics4diskNtB5_11DiskMonitor3new
FNDA:1,_RNvMs1_NtCslGh6CY2EcXh_14darwin_metrics4diskNtB5_11DiskMonitor6update
FNDA:0,_RINvMs0_NtCslGh6CY2EcXh_14darwin_metrics4diskNtB6_4Disk12get_for_pathpEB8_
FNDA:0,_RINvMs1_NtCslGh6CY2EcXh_14darwin_metrics4diskNtB6_11DiskMonitor19get_volume_for_pathpEB8_
FNDA:0,_RNCINvMs0_NtCslGh6CY2EcXh_14darwin_metrics4diskNtB8_4Disk12get_for_pathpE0Ba_
FNDA:0,_RNCINvMs1_NtCslGh6CY2EcXh_14darwin_metrics4diskNtB8_11DiskMonitor19get_volume_for_pathpE0Ba_
FNDA:0,_RNvMs0_NtCslGh6CY2EcXh_14darwin_metrics4diskNtB5_4Disk17available_display
FNDA:0,_RNvMs1_NtCslGh6CY2EcXh_14darwin_metrics4diskNtB5_11DiskMonitor11get_volumes
FNDA:0,_RNvMs1_NtCslGh6CY2EcXh_14darwin_metrics4diskNtB5_11DiskMonitor16detect_disk_type
FNDA:0,_RNvXNtCslGh6CY2EcXh_14darwin_metrics4diskNtB2_8DiskTypeNtNtCs4P3ALgZxGbJ_4core7default7Default7default
FNDA:0,_RNvXs2_NtCslGh6CY2EcXh_14darwin_metrics4diskNtB5_11DiskMonitorNtNtCs4P3ALgZxGbJ_4core7default7Default7default
FNDA:0,_RNvXs_NtCslGh6CY2EcXh_14darwin_metrics4diskNtB4_9DiskStatsNtNtCs4P3ALgZxGbJ_4core7default7Default7default
FNDA:0,_RINvMs0_NtCsGBPSOZydBW_14darwin_metrics4diskNtB6_4Disk12get_for_pathpEB8_
FNDA:0,_RINvMs1_NtCsGBPSOZydBW_14darwin_metrics4diskNtB6_11DiskMonitor19get_volume_for_pathpEB8_
FNDA:0,_RNCINvMs0_NtCsGBPSOZydBW_14darwin_metrics4diskNtB8_4Disk12get_for_pathpE0Ba_
FNDA:0,_RNCINvMs1_NtCsGBPSOZydBW_14darwin_metrics4diskNtB8_11DiskMonitor19get_volume_for_pathpE0Ba_
FNDA:0,_RNvMs0_NtCsGBPSOZydBW_14darwin_metrics4diskNtB5_4Disk12format_bytes
FNDA:0,_RNvMs0_NtCsGBPSOZydBW_14darwin_metrics4diskNtB5_4Disk12used_display
FNDA:0,_RNvMs0_NtCsGBPSOZydBW_14darwin_metrics4diskNtB5_4Disk12with_details
FNDA:0,_RNvMs0_NtCsGBPSOZydBW_14darwin_metrics4diskNtB5_4Disk13total_display
FNDA:0,_RNvMs0_NtCsGBPSOZydBW_14darwin_metrics4diskNtB5_4Disk14is_nearly_full
FNDA:0,_RNvMs0_NtCsGBPSOZydBW_14darwin_metrics4diskNtB5_4Disk16usage_percentage
FNDA:0,_RNvMs0_NtCsGBPSOZydBW_14darwin_metrics4diskNtB5_4Disk17available_display
FNDA:0,_RNvMs0_NtCsGBPSOZydBW_14darwin_metrics4diskNtB5_4Disk3new
FNDA:0,_RNvMs0_NtCsGBPSOZydBW_14darwin_metrics4diskNtB5_4Disk7get_all
FNDA:0,_RNvMs0_NtCsGBPSOZydBW_14darwin_metrics4diskNtB5_4Disk7summary
FNDA:0,_RNvMs0_NtCsGBPSOZydBW_14darwin_metrics4diskNtB5_4Disk8get_info
FNDA:0,_RNvMs1_NtCsGBPSOZydBW_14darwin_metrics4diskNtB5_11DiskMonitor11get_volumes
FNDA:0,_RNvMs1_NtCsGBPSOZydBW_14darwin_metrics4diskNtB5_11DiskMonitor15get_performance
FNDA:0,_RNvMs1_NtCsGBPSOZydBW_14darwin_metrics4diskNtB5_11DiskMonitor16detect_disk_type
FNDA:0,_RNvMs1_NtCsGBPSOZydBW_14darwin_metrics4diskNtB5_11DiskMonitor3new
FNDA:0,_RNvMs1_NtCsGBPSOZydBW_14darwin_metrics4diskNtB5_11DiskMonitor6update
FNDA:0,_RNvXNtCsGBPSOZydBW_14darwin_metrics4diskNtB2_8DiskTypeNtNtCs4P3ALgZxGbJ_4core7default7Default7default
FNDA:0,_RNvXs2_NtCsGBPSOZydBW_14darwin_metrics4diskNtB5_11DiskMonitorNtNtCs4P3ALgZxGbJ_4core7default7Default7default
FNDA:0,_RNvXs_NtCsGBPSOZydBW_14darwin_metrics4diskNtB4_9DiskStatsNtNtCs4P3ALgZxGbJ_4core7default7Default7default
FNF:30
FNH:20
DA:28,0
DA:29,0
DA:30,0
DA:110,0
DA:111,0
DA:112,0
DA:113,0
DA:114,0
DA:115,0
DA:116,0
DA:117,0
DA:118,0
DA:119,0
DA:120,0
DA:134,3
DA:135,3
DA:136,3
DA:137,3
DA:138,3
DA:139,3
DA:140,3
DA:141,3
DA:142,3
DA:143,3
DA:144,3
DA:145,3
DA:146,3
DA:147,3
DA:148,3
DA:149,3
DA:150,3
DA:151,3
DA:152,3
DA:153,3
DA:157,9
DA:158,9
DA:159,9
DA:160,9
DA:161,9
DA:162,9
DA:163,9
DA:164,9
DA:165,9
DA:166,9
DA:167,9
DA:168,9
DA:169,9
DA:170,9
DA:171,9
DA:172,9
DA:173,9
DA:174,9
DA:175,9
DA:176,9
DA:177,9
DA:180,1
DA:187,1
DA:188,1
DA:189,1
DA:190,1
DA:191,1
DA:192,1
DA:193,0
DA:194,1
DA:195,1
DA:196,1
DA:197,1
DA:198,1
DA:199,1
DA:200,1
DA:201,1
DA:202,1
DA:203,1
DA:204,1
DA:205,1
DA:206,1
DA:207,1
DA:208,1
DA:209,1
DA:210,1
DA:211,1
DA:212,1
DA:213,1
DA:214,1
DA:215,1
DA:216,1
DA:217,1
DA:218,1
DA:219,1
DA:220,1
DA:221,1
DA:222,1
DA:223,1
DA:224,1
DA:225,1
DA:228,1
DA:239,1
DA:240,1
DA:241,1
DA:242,0
DA:243,1
DA:244,1
DA:245,1
DA:246,1
DA:247,1
DA:248,1
DA:249,1
DA:250,1
DA:251,1
DA:252,1
DA:253,1
DA:254,0
DA:255,1
DA:256,1
DA:257,1
DA:258,1
DA:260,10
DA:261,10
DA:262,10
DA:263,10
DA:264,10
DA:265,10
DA:266,10
DA:267,10
DA:268,10
DA:269,10
DA:270,2
DA:271,8
DA:272,8
DA:273,8
DA:274,8
DA:275,8
DA:276,8
DA:277,8
DA:278,8
DA:279,8
DA:280,8
DA:281,8
DA:282,8
DA:283,8
DA:284,8
DA:285,8
DA:286,8
DA:287,8
DA:288,8
DA:289,8
DA:290,8
DA:291,8
DA:292,8
DA:293,8
DA:296,8
DA:297,8
DA:298,8
DA:299,8
DA:301,0
DA:302,8
DA:306,8
DA:308,0
DA:311,8
DA:312,8
DA:313,8
DA:314,8
DA:315,8
DA:316,8
DA:317,8
DA:318,8
DA:319,8
DA:320,8
DA:321,8
DA:324,1
DA:325,1
DA:328,0
DA:339,0
DA:340,0
DA:342,0
DA:343,0
DA:344,0
DA:345,0
DA:346,0
DA:347,0
DA:348,0
DA:349,0
DA:350,0
DA:351,0
DA:352,0
DA:353,0
DA:354,0
DA:355,0
DA:356,0
DA:357,0
DA:358,0
DA:359,0
DA:360,0
DA:361,0
DA:362,0
DA:363,0
DA:364,0
DA:365,0
DA:366,0
DA:367,0
DA:368,0
DA:369,0
DA:370,0
DA:371,0
DA:372,0
DA:373,0
DA:374,0
DA:375,0
DA:376,0
DA:377,0
DA:380,0
DA:381,0
DA:382,0
DA:383,0
DA:385,0
DA:386,0
DA:388,0
DA:390,0
DA:393,0
DA:394,0
DA:395,0
DA:396,0
DA:399,12
DA:400,12
DA:401,0
DA:402,12
DA:403,12
DA:404,12
DA:407,2
DA:408,2
DA:409,2
DA:412,0
DA:413,0
DA:414,0
DA:417,9
DA:418,9
DA:419,9
DA:422,9
DA:423,9
DA:424,9
DA:427,9
DA:428,9
DA:430,9
DA:431,9
DA:432,9
DA:433,9
DA:434,9
DA:435,9
DA:436,9
DA:437,9
DA:438,9
DA:441,26
DA:447,26
DA:448,1
DA:449,25
DA:450,13
DA:451,12
DA:452,7
DA:453,5
DA:454,2
DA:456,3
DA:458,26
DA:463,1
DA:464,1
DA:465,1
DA:468,0
DA:478,0
DA:479,0
DA:480,0
DA:481,0
DA:482,0
DA:483,0
DA:484,0
DA:485,0
DA:486,0
DA:487,0
DA:488,0
DA:489,0
DA:490,0
DA:491,0
DA:492,0
DA:493,0
DA:494,0
DA:495,0
DA:496,0
DA:497,0
DA:499,0
DA:500,0
DA:501,0
DA:502,0
DA:503,0
DA:504,0
DA:505,0
DA:506,0
DA:507,0
DA:508,0
DA:509,0
DA:510,0
DA:511,0
DA:512,0
DA:513,0
DA:514,0
DA:515,0
DA:516,0
DA:517,0
DA:518,0
DA:519,0
DA:520,0
DA:521,0
DA:522,0
DA:523,0
DA:524,0
DA:525,0
DA:526,0
DA:527,0
DA:528,0
DA:529,0
DA:530,0
DA:531,0
DA:532,0
DA:535,0
DA:536,0
DA:537,0
DA:538,0
DA:539,0
DA:540,0
DA:541,0
DA:542,0
DA:543,0
DA:544,0
DA:545,0
DA:546,0
DA:547,0
DA:550,0
DA:551,0
DA:554,0
DA:564,0
DA:565,0
DA:567,0
DA:568,0
DA:569,0
DA:570,0
DA:571,0
DA:572,0
DA:573,0
DA:574,0
DA:575,0
DA:576,0
DA:577,0
DA:578,0
DA:579,0
DA:580,0
DA:581,0
DA:582,0
DA:583,0
DA:584,0
DA:585,0
DA:586,0
DA:587,0
DA:588,0
DA:589,0
DA:590,0
DA:591,0
DA:592,0
DA:593,0
DA:594,0
DA:595,0
DA:596,0
DA:597,0
DA:598,0
DA:599,0
DA:600,0
DA:601,0
DA:602,0
DA:605,0
DA:606,0
DA:607,0
DA:608,0
DA:609,0
DA:610,0
DA:613,1
DA:614,1
DA:615,1
DA:616,1
DA:617,1
DA:618,1
DA:620,0
DA:621,0
DA:622,0
DA:623,0
DA:624,0
DA:625,0
DA:626,0
DA:627,0
DA:628,0
DA:629,0
DA:630,0
DA:631,0
DA:632,0
DA:633,0
DA:634,0
DA:635,0
DA:636,0
DA:637,0
DA:638,0
DA:639,0
DA:640,0
DA:641,0
DA:642,0
DA:643,0
DA:644,0
DA:645,0
DA:646,0
DA:647,0
DA:648,0
DA:649,0
DA:650,1
DA:651,1
DA:652,1
DA:653,1
DA:654,1
DA:655,1
DA:656,1
DA:657,1
DA:658,1
DA:659,1
DA:660,1
DA:661,1
DA:662,1
DA:663,1
DA:664,1
DA:665,1
DA:666,1
DA:667,1
DA:668,1
DA:669,1
DA:670,1
DA:671,1
DA:672,1
DA:673,1
DA:674,1
DA:675,1
DA:676,1
DA:677,1
DA:678,1
DA:679,1
DA:680,1
DA:683,1
DA:684,0
DA:686,1
DA:689,1
DA:690,0
DA:692,1
DA:696,1
DA:697,1
DA:699,1
DA:700,1
DA:702,0
DA:706,1
DA:707,1
DA:708,1
DA:709,1
DA:710,1
DA:711,1
DA:712,1
DA:713,1
DA:714,1
DA:715,1
DA:716,1
DA:717,1
DA:718,1
DA:719,0
DA:720,0
DA:723,1
DA:724,1
DA:725,1
DA:726,1
DA:727,1
DA:728,1
DA:729,1
DA:730,1
DA:731,1
DA:732,1
DA:733,1
DA:734,1
DA:735,1
DA:736,1
DA:737,0
DA:738,0
DA:739,0
DA:740,0
DA:741,0
DA:742,0
DA:743,0
DA:744,0
DA:745,0
DA:746,0
DA:747,0
DA:748,0
DA:749,0
DA:750,1
DA:752,1
DA:753,1
DA:756,1
DA:757,1
DA:758,1
DA:759,1
DA:760,1
DA:761,1
DA:762,1
DA:763,1
DA:764,1
DA:765,1
DA:766,1
DA:767,1
DA:768,1
DA:769,1
DA:770,1
DA:771,1
DA:772,1
DA:773,1
DA:774,1
DA:775,1
DA:776,1
DA:777,1
DA:778,1
DA:779,1
DA:780,1
DA:781,1
DA:782,1
DA:783,1
DA:784,1
DA:785,1
DA:786,1
DA:787,1
DA:788,1
DA:789,1
DA:790,1
DA:793,0
DA:794,0
DA:795,0
DA:796,0
DA:797,0
DA:798,0
DA:799,0
DA:800,0
DA:801,0
DA:803,0
DA:804,0
DA:805,0
DA:806,0
DA:807,0
DA:808,0
DA:809,0
DA:810,0
DA:811,0
DA:812,0
DA:813,0
DA:814,0
DA:815,0
DA:816,0
DA:817,0
DA:818,0
DA:819,0
DA:820,0
DA:821,0
DA:822,0
DA:823,0
DA:824,0
DA:828,0
DA:829,0
DA:830,0
DA:838,1
DA:839,1
DA:840,1
DA:841,1
DA:842,1
DA:843,1
DA:844,1
DA:845,1
DA:846,1
DA:847,1
DA:848,1
DA:849,1
DA:852,1
DA:853,1
DA:854,1
DA:855,1
DA:856,1
DA:857,1
DA:858,1
DA:859,1
DA:860,1
DA:861,1
DA:862,1
DA:863,1
DA:864,1
DA:865,1
DA:866,1
DA:867,1
DA:868,1
DA:869,1
DA:870,1
DA:871,1
DA:872,1
DA:873,1
DA:876,1
DA:877,1
DA:878,1
DA:879,1
DA:880,1
DA:881,1
DA:882,1
DA:883,1
DA:886,1
DA:887,1
DA:888,1
DA:889,1
DA:891,1
DA:892,1
DA:893,1
DA:894,1
DA:895,1
DA:896,1
DA:897,1
DA:898,0
DA:899,1
DA:902,1
DA:903,1
DA:904,1
DA:905,1
DA:907,1
DA:908,1
DA:911,1
DA:912,1
DA:914,9
DA:915,8
DA:916,8
DA:917,0
DA:918,1
DA:921,1
DA:922,1
DA:923,1
DA:924,1
DA:925,1
DA:926,1
DA:927,1
DA:928,1
DA:929,1
DA:930,1
DA:931,1
DA:932,1
DA:933,1
DA:935,1
DA:936,1
DA:938,2
DA:939,1
DA:940,1
DA:941,1
DA:942,1
DA:943,1
DA:944,1
DA:945,1
DA:946,1
DA:947,1
DA:948,1
DA:949,1
DA:950,1
DA:951,1
DA:952,1
DA:953,1
DA:954,1
DA:955,1
DA:956,0
DA:957,1
BRF:0
BRH:0
LF:678
LH:402
end_of_record
SF:/Users/smeya/git/darwin-metrics/src/error.rs
FN:86,_RINvMNtCslGh6CY2EcXh_14darwin_metrics5errorNtB3_5Error12invalid_dataNtNtCsaxtFaqkp5wQ_5alloc6string6StringEB5_
FN:86,_RINvMNtCslGh6CY2EcXh_14darwin_metrics5errorNtB3_5Error12invalid_dataReEB5_
FN:96,_RINvMNtCslGh6CY2EcXh_14darwin_metrics5errorNtB3_5Error13not_availableReEB5_
FN:111,_RINvMNtCslGh6CY2EcXh_14darwin_metrics5errorNtB3_5Error13process_errorNtNtCsaxtFaqkp5wQ_5alloc6string6StringEB5_
FN:111,_RINvMNtCslGh6CY2EcXh_14darwin_metrics5errorNtB3_5Error13process_errorReEB5_
FN:91,_RINvMNtCslGh6CY2EcXh_14darwin_metrics5errorNtB3_5Error15not_implementedReEB5_
FN:101,_RINvMNtCslGh6CY2EcXh_14darwin_metrics5errorNtB3_5Error17permission_deniedReEB5_
FN:106,_RINvMNtCslGh6CY2EcXh_14darwin_metrics5errorNtB3_5Error17service_not_foundNtNtCsaxtFaqkp5wQ_5alloc6string6StringEB5_
FN:106,_RINvMNtCslGh6CY2EcXh_14darwin_metrics5errorNtB3_5Error17service_not_foundReEB5_
FN:76,_RINvMNtCslGh6CY2EcXh_14darwin_metrics5errorNtB3_5Error6io_kitReEB5_
FN:81,_RINvMNtCslGh6CY2EcXh_14darwin_metrics5errorNtB3_5Error6systemNtNtCsaxtFaqkp5wQ_5alloc6string6StringEB5_
FN:81,_RINvMNtCslGh6CY2EcXh_14darwin_metrics5errorNtB3_5Error6systemReEB5_
FN:141,_RNvMNtCslGh6CY2EcXh_14darwin_metrics5errorNtB2_5Error16is_not_available
FN:135,_RNvMNtCslGh6CY2EcXh_14darwin_metrics5errorNtB2_5Error19is_permission_error
FN:116,_RNvMNtCslGh6CY2EcXh_14darwin_metrics5errorNtB2_5Error7details
FN:151,_RNvXs_NtCslGh6CY2EcXh_14darwin_metrics5errorNtB4_5ErrorINtNtCs4P3ALgZxGbJ_4core7convert4FromNtNtNtCsfXerQ7jTsRl_3std2io5error5ErrorE4from
FN:254,_RNvNtNtCslGh6CY2EcXh_14darwin_metrics5error5testss_18test_from_io_error
FN:190,_RNvNtNtCslGh6CY2EcXh_14darwin_metrics5error5testss_21test_error_details_io
FN:207,_RNvNtNtCslGh6CY2EcXh_14darwin_metrics5error5testss_24test_error_details_iokit
FN:221,_RNvNtNtCslGh6CY2EcXh_14darwin_metrics5error5testss_24test_error_details_other
FN:162,_RNvNtNtCslGh6CY2EcXh_14darwin_metrics5error5testss_27test_error_creation_methods
FN:244,_RNvNtNtCslGh6CY2EcXh_14darwin_metrics5error5testss_27test_error_is_not_available
FN:199,_RNvNtNtCslGh6CY2EcXh_14darwin_metrics5error5testss_29test_error_details_permission
FN:228,_RNvNtNtCslGh6CY2EcXh_14darwin_metrics5error5testss_30test_error_is_permission_error
FN:214,_RNvNtNtCslGh6CY2EcXh_14darwin_metrics5error5testss_32test_error_details_not_available
FN:86,_RINvMNtCsGBPSOZydBW_14darwin_metrics5errorNtB3_5Error12invalid_dataReEB5_
FN:111,_RINvMNtCsGBPSOZydBW_14darwin_metrics5errorNtB3_5Error13process_errorNtNtCsaxtFaqkp5wQ_5alloc6string6StringEB5_
FN:111,_RINvMNtCsGBPSOZydBW_14darwin_metrics5errorNtB3_5Error13process_errorReEB5_
FN:106,_RINvMNtCsGBPSOZydBW_14darwin_metrics5errorNtB3_5Error17service_not_foundNtNtCsaxtFaqkp5wQ_5alloc6string6StringEB5_
FN:81,_RINvMNtCsGBPSOZydBW_14darwin_metrics5errorNtB3_5Error6systemNtNtCsaxtFaqkp5wQ_5alloc6string6StringEB5_
FN:81,_RINvMNtCsGBPSOZydBW_14darwin_metrics5errorNtB3_5Error6systemReEB5_
FN:96,_RINvMNtCsGBPSOZydBW_14darwin_metrics5errorNtB3_5Error13not_availablepEB5_
FN:91,_RINvMNtCsGBPSOZydBW_14darwin_metrics5errorNtB3_5Error15not_implementedpEB5_
FN:101,_RINvMNtCsGBPSOZydBW_14darwin_metrics5errorNtB3_5Error17permission_deniedpEB5_
FN:76,_RINvMNtCsGBPSOZydBW_14darwin_metrics5errorNtB3_5Error6io_kitpEB5_
FN:141,_RNvMNtCsGBPSOZydBW_14darwin_metrics5errorNtB2_5Error16is_not_available
FN:135,_RNvMNtCsGBPSOZydBW_14darwin_metrics5errorNtB2_5Error19is_permission_error
FN:116,_RNvMNtCsGBPSOZydBW_14darwin_metrics5errorNtB2_5Error7details
FN:151,_RNvXs_NtCsGBPSOZydBW_14darwin_metrics5errorNtB4_5ErrorINtNtCs4P3ALgZxGbJ_4core7convert4FromNtNtNtCsfXerQ7jTsRl_3std2io5error5ErrorE4from
FNDA:1,_RINvMNtCslGh6CY2EcXh_14darwin_metrics5errorNtB3_5Error12invalid_dataNtNtCsaxtFaqkp5wQ_5alloc6string6StringEB5_
FNDA:5,_RINvMNtCslGh6CY2EcXh_14darwin_metrics5errorNtB3_5Error12invalid_dataReEB5_
FNDA:1,_RINvMNtCslGh6CY2EcXh_14darwin_metrics5errorNtB3_5Error13not_availableReEB5_
FNDA:982,_RINvMNtCslGh6CY2EcXh_14darwin_metrics5errorNtB3_5Error13process_errorNtNtCsaxtFaqkp5wQ_5alloc6string6StringEB5_
FNDA:1,_RINvMNtCslGh6CY2EcXh_14darwin_metrics5errorNtB3_5Error13process_errorReEB5_
FNDA:1,_RINvMNtCslGh6CY2EcXh_14darwin_metrics5errorNtB3_5Error15not_implementedReEB5_
FNDA:1,_RINvMNtCslGh6CY2EcXh_14darwin_metrics5errorNtB3_5Error17permission_deniedReEB5_
FNDA:1,_RINvMNtCslGh6CY2EcXh_14darwin_metrics5errorNtB3_5Error17service_not_foundNtNtCsaxtFaqkp5wQ_5alloc6string6StringEB5_
FNDA:2,_RINvMNtCslGh6CY2EcXh_14darwin_metrics5errorNtB3_5Error17service_not_foundReEB5_
FNDA:2,_RINvMNtCslGh6CY2EcXh_14darwin_metrics5errorNtB3_5Error6io_kitReEB5_
FNDA:7,_RINvMNtCslGh6CY2EcXh_14darwin_metrics5errorNtB3_5Error6systemNtNtCsaxtFaqkp5wQ_5alloc6string6StringEB5_
FNDA:3,_RINvMNtCslGh6CY2EcXh_14darwin_metrics5errorNtB3_5Error6systemReEB5_
FNDA:2,_RNvMNtCslGh6CY2EcXh_14darwin_metrics5errorNtB2_5Error16is_not_available
FNDA:4,_RNvMNtCslGh6CY2EcXh_14darwin_metrics5errorNtB2_5Error19is_permission_error
FNDA:6,_RNvMNtCslGh6CY2EcXh_14darwin_metrics5errorNtB2_5Error7details
FNDA:1,_RNvXs_NtCslGh6CY2EcXh_14darwin_metrics5errorNtB4_5ErrorINtNtCs4P3ALgZxGbJ_4core7convert4FromNtNtNtCsfXerQ7jTsRl_3std2io5error5ErrorE4from
FNDA:1,_RNvNtNtCslGh6CY2EcXh_14darwin_metrics5error5testss_18test_from_io_error
FNDA:1,_RNvNtNtCslGh6CY2EcXh_14darwin_metrics5error5testss_21test_error_details_io
FNDA:1,_RNvNtNtCslGh6CY2EcXh_14darwin_metrics5error5testss_24test_error_details_iokit
FNDA:1,_RNvNtNtCslGh6CY2EcXh_14darwin_metrics5error5testss_24test_error_details_other
FNDA:1,_RNvNtNtCslGh6CY2EcXh_14darwin_metrics5error5testss_27test_error_creation_methods
FNDA:1,_RNvNtNtCslGh6CY2EcXh_14darwin_metrics5error5testss_27test_error_is_not_available
FNDA:1,_RNvNtNtCslGh6CY2EcXh_14darwin_metrics5error5testss_29test_error_details_permission
FNDA:1,_RNvNtNtCslGh6CY2EcXh_14darwin_metrics5error5testss_30test_error_is_permission_error
FNDA:1,_RNvNtNtCslGh6CY2EcXh_14darwin_metrics5error5testss_32test_error_details_not_available
FNDA:0,_RINvMNtCsGBPSOZydBW_14darwin_metrics5errorNtB3_5Error12invalid_dataReEB5_
FNDA:0,_RINvMNtCsGBPSOZydBW_14darwin_metrics5errorNtB3_5Error13process_errorNtNtCsaxtFaqkp5wQ_5alloc6string6StringEB5_
FNDA:0,_RINvMNtCsGBPSOZydBW_14darwin_metrics5errorNtB3_5Error13process_errorReEB5_
FNDA:0,_RINvMNtCsGBPSOZydBW_14darwin_metrics5errorNtB3_5Error17service_not_foundNtNtCsaxtFaqkp5wQ_5alloc6string6StringEB5_
FNDA:0,_RINvMNtCsGBPSOZydBW_14darwin_metrics5errorNtB3_5Error6systemNtNtCsaxtFaqkp5wQ_5alloc6string6StringEB5_
FNDA:0,_RINvMNtCsGBPSOZydBW_14darwin_metrics5errorNtB3_5Error6systemReEB5_
FNDA:0,_RINvMNtCsGBPSOZydBW_14darwin_metrics5errorNtB3_5Error13not_availablepEB5_
FNDA:0,_RINvMNtCsGBPSOZydBW_14darwin_metrics5errorNtB3_5Error15not_implementedpEB5_
FNDA:0,_RINvMNtCsGBPSOZydBW_14darwin_metrics5errorNtB3_5Error17permission_deniedpEB5_
FNDA:0,_RINvMNtCsGBPSOZydBW_14darwin_metrics5errorNtB3_5Error6io_kitpEB5_
FNDA:0,_RNvMNtCsGBPSOZydBW_14darwin_metrics5errorNtB2_5Error16is_not_available
FNDA:0,_RNvMNtCsGBPSOZydBW_14darwin_metrics5errorNtB2_5Error19is_permission_error
FNDA:0,_RNvMNtCsGBPSOZydBW_14darwin_metrics5errorNtB2_5Error7details
FNDA:0,_RNvXs_NtCsGBPSOZydBW_14darwin_metrics5errorNtB4_5ErrorINtNtCs4P3ALgZxGbJ_4core7convert4FromNtNtNtCsfXerQ7jTsRl_3std2io5error5ErrorE4from
FNF:21
FNH:21
DA:76,2
DA:77,2
DA:78,2
DA:81,10
DA:82,10
DA:83,10
DA:86,6
DA:87,6
DA:88,6
DA:91,1
DA:92,1
DA:93,1
DA:96,1
DA:97,1
DA:98,1
DA:101,1
DA:102,1
DA:103,1
DA:106,3
DA:107,3
DA:108,3
DA:111,983
DA:112,983
DA:113,983
DA:116,6
DA:117,6
DA:118,1
DA:119,2
DA:120,2
DA:122,1
DA:123,1
DA:124,1
DA:125,1
DA:126,1
DA:127,1
DA:128,1
DA:129,1
DA:130,1
DA:132,6
DA:135,4
DA:136,4
DA:137,2
DA:138,4
DA:141,2
DA:142,2
DA:143,2
DA:151,1
DA:152,1
DA:153,1
DA:162,1
DA:163,1
DA:164,1
DA:165,1
DA:167,1
DA:168,1
DA:170,1
DA:171,1
DA:173,1
DA:174,1
DA:176,1
DA:177,1
DA:179,1
DA:180,1
DA:182,1
DA:183,1
DA:185,1
DA:186,1
DA:187,1
DA:190,1
DA:191,1
DA:192,1
DA:193,1
DA:194,1
DA:195,1
DA:196,1
DA:199,1
DA:200,1
DA:201,1
DA:202,1
DA:203,1
DA:204,1
DA:207,1
DA:208,1
DA:209,1
DA:210,1
DA:211,1
DA:214,1
DA:215,1
DA:216,1
DA:217,1
DA:218,1
DA:221,1
DA:222,1
DA:223,1
DA:224,1
DA:225,1
DA:228,1
DA:229,1
DA:230,1
DA:231,1
DA:233,1
DA:234,1
DA:236,1
DA:237,1
DA:239,1
DA:240,1
DA:241,1
DA:244,1
DA:245,1
DA:246,1
DA:247,1
DA:249,1
DA:250,1
DA:251,1
DA:254,1
DA:255,1
DA:256,1
DA:257,1
DA:259,1
DA:260,1
DA:261,1
DA:263,0
DA:265,1
BRF:0
BRH:0
LF:123
LH:122
end_of_record
SF:/Users/smeya/git/darwin-metrics/src/hardware/cpu/cpu_impl.rs
FN:399,_RNvNtNtNtNtCslGh6CY2EcXh_14darwin_metrics8hardware3cpu8cpu_impl5testss_14test_cpu_usage
FN:412,_RNvNtNtNtNtCslGh6CY2EcXh_14darwin_metrics8hardware3cpu8cpu_impl5testss_22test_cpu_metrics_trait
FN:424,_RNvNtNtNtNtCslGh6CY2EcXh_14darwin_metrics8hardware3cpu8cpu_impl5testss_22test_frequency_metrics
FN:387,_RNvNtNtNtNtCslGh6CY2EcXh_14darwin_metrics8hardware3cpu8cpu_impl5testss_23test_cpu_initialization
FN:295,_RNCNvMNtNtNtCslGh6CY2EcXh_14darwin_metrics8hardware3cpu8cpu_implNtB4_3CPU17max_frequency_mhz0Ba_
FN:286,_RNCNvMNtNtNtCslGh6CY2EcXh_14darwin_metrics8hardware3cpu8cpu_implNtB4_3CPU17min_frequency_mhz0Ba_
FN:305,_RNCNvMNtNtNtCslGh6CY2EcXh_14darwin_metrics8hardware3cpu8cpu_implNtB4_3CPU21available_frequencies0Ba_
FN:242,_RNvMNtNtNtCslGh6CY2EcXh_14darwin_metrics8hardware3cpu8cpu_implNtB2_3CPU10core_usage
FN:254,_RNvMNtNtNtCslGh6CY2EcXh_14darwin_metrics8hardware3cpu8cpu_implNtB2_3CPU10model_name
FN:263,_RNvMNtNtNtCslGh6CY2EcXh_14darwin_metrics8hardware3cpu8cpu_implNtB2_3CPU11temperature
FN:230,_RNvMNtNtNtCslGh6CY2EcXh_14darwin_metrics8hardware3cpu8cpu_implNtB2_3CPU13frequency_mhz
FN:218,_RNvMNtNtNtCslGh6CY2EcXh_14darwin_metrics8hardware3cpu8cpu_implNtB2_3CPU13logical_cores
FN:205,_RNvMNtNtNtCslGh6CY2EcXh_14darwin_metrics8hardware3cpu8cpu_implNtB2_3CPU14physical_cores
FN:276,_RNvMNtNtNtCslGh6CY2EcXh_14darwin_metrics8hardware3cpu8cpu_implNtB2_3CPU17frequency_metrics
FN:294,_RNvMNtNtNtCslGh6CY2EcXh_14darwin_metrics8hardware3cpu8cpu_implNtB2_3CPU17max_frequency_mhz
FN:285,_RNvMNtNtNtCslGh6CY2EcXh_14darwin_metrics8hardware3cpu8cpu_implNtB2_3CPU17min_frequency_mhz
FN:304,_RNvMNtNtNtCslGh6CY2EcXh_14darwin_metrics8hardware3cpu8cpu_implNtB2_3CPU21available_frequencies
FN:354,_RNvMNtNtNtNtCslGh6CY2EcXh_14darwin_metrics8hardware3cpu8cpu_impl5testsNtB4_3CPU13new_with_mock
FN:325,_RNvXs_NtNtNtCslGh6CY2EcXh_14darwin_metrics8hardware3cpu8cpu_implNtB4_3CPUNtB6_10CpuMetrics13get_cpu_usage
FN:343,_RNvXs_NtNtNtCslGh6CY2EcXh_14darwin_metrics8hardware3cpu8cpu_implNtB4_3CPUNtB6_10CpuMetrics17get_cpu_frequency
FN:334,_RNvXs_NtNtNtCslGh6CY2EcXh_14darwin_metrics8hardware3cpu8cpu_implNtB4_3CPUNtB6_10CpuMetrics19get_cpu_temperature
FN:360,_RNCNvMNtNtNtNtCslGh6CY2EcXh_14darwin_metrics8hardware3cpu8cpu_impl5testsNtB6_3CPU13new_with_mocks_0Bc_
FN:156,_RNvMNtNtNtCslGh6CY2EcXh_14darwin_metrics8hardware3cpu8cpu_implNtB2_3CPU16fetch_core_usage
FN:192,_RNvMNtNtNtCslGh6CY2EcXh_14darwin_metrics8hardware3cpu8cpu_implNtB2_3CPU21fetch_cpu_temperature
FN:73,_RNvMNtNtNtCslGh6CY2EcXh_14darwin_metrics8hardware3cpu8cpu_implNtB2_3CPU3new
FN:102,_RNvMNtNtNtCslGh6CY2EcXh_14darwin_metrics8hardware3cpu8cpu_implNtB2_3CPU6update
FN:358,_RNCNvMNtNtNtNtCslGh6CY2EcXh_14darwin_metrics8hardware3cpu8cpu_impl5testsNtB6_3CPU13new_with_mock0Bc_
FN:295,_RNCNvMNtNtNtCsGBPSOZydBW_14darwin_metrics8hardware3cpu8cpu_implNtB4_3CPU17max_frequency_mhz0Ba_
FN:286,_RNCNvMNtNtNtCsGBPSOZydBW_14darwin_metrics8hardware3cpu8cpu_implNtB4_3CPU17min_frequency_mhz0Ba_
FN:305,_RNCNvMNtNtNtCsGBPSOZydBW_14darwin_metrics8hardware3cpu8cpu_implNtB4_3CPU21available_frequencies0Ba_
FN:242,_RNvMNtNtNtCsGBPSOZydBW_14darwin_metrics8hardware3cpu8cpu_implNtB2_3CPU10core_usage
FN:254,_RNvMNtNtNtCsGBPSOZydBW_14darwin_metrics8hardware3cpu8cpu_implNtB2_3CPU10model_name
FN:263,_RNvMNtNtNtCsGBPSOZydBW_14darwin_metrics8hardware3cpu8cpu_implNtB2_3CPU11temperature
FN:230,_RNvMNtNtNtCsGBPSOZydBW_14darwin_metrics8hardware3cpu8cpu_implNtB2_3CPU13frequency_mhz
FN:218,_RNvMNtNtNtCsGBPSOZydBW_14darwin_metrics8hardware3cpu8cpu_implNtB2_3CPU13logical_cores
FN:205,_RNvMNtNtNtCsGBPSOZydBW_14darwin_metrics8hardware3cpu8cpu_implNtB2_3CPU14physical_cores
FN:156,_RNvMNtNtNtCsGBPSOZydBW_14darwin_metrics8hardware3cpu8cpu_implNtB2_3CPU16fetch_core_usage
FN:276,_RNvMNtNtNtCsGBPSOZydBW_14darwin_metrics8hardware3cpu8cpu_implNtB2_3CPU17frequency_metrics
FN:294,_RNvMNtNtNtCsGBPSOZydBW_14darwin_metrics8hardware3cpu8cpu_implNtB2_3CPU17max_frequency_mhz
FN:285,_RNvMNtNtNtCsGBPSOZydBW_14darwin_metrics8hardware3cpu8cpu_implNtB2_3CPU17min_frequency_mhz
FN:304,_RNvMNtNtNtCsGBPSOZydBW_14darwin_metrics8hardware3cpu8cpu_implNtB2_3CPU21available_frequencies
FN:192,_RNvMNtNtNtCsGBPSOZydBW_14darwin_metrics8hardware3cpu8cpu_implNtB2_3CPU21fetch_cpu_temperature
FN:73,_RNvMNtNtNtCsGBPSOZydBW_14darwin_metrics8hardware3cpu8cpu_implNtB2_3CPU3new
FN:102,_RNvMNtNtNtCsGBPSOZydBW_14darwin_metrics8hardware3cpu8cpu_implNtB2_3CPU6update
FN:325,_RNvXs_NtNtNtCsGBPSOZydBW_14darwin_metrics8hardware3cpu8cpu_implNtB4_3CPUNtB6_10CpuMetrics13get_cpu_usage
FN:343,_RNvXs_NtNtNtCsGBPSOZydBW_14darwin_metrics8hardware3cpu8cpu_implNtB4_3CPUNtB6_10CpuMetrics17get_cpu_frequency
FN:334,_RNvXs_NtNtNtCsGBPSOZydBW_14darwin_metrics8hardware3cpu8cpu_implNtB4_3CPUNtB6_10CpuMetrics19get_cpu_temperature
FNDA:1,_RNvNtNtNtNtCslGh6CY2EcXh_14darwin_metrics8hardware3cpu8cpu_impl5testss_14test_cpu_usage
FNDA:1,_RNvNtNtNtNtCslGh6CY2EcXh_14darwin_metrics8hardware3cpu8cpu_impl5testss_22test_cpu_metrics_trait
FNDA:1,_RNvNtNtNtNtCslGh6CY2EcXh_14darwin_metrics8hardware3cpu8cpu_impl5testss_22test_frequency_metrics
FNDA:1,_RNvNtNtNtNtCslGh6CY2EcXh_14darwin_metrics8hardware3cpu8cpu_impl5testss_23test_cpu_initialization
FNDA:1,_RNCNvMNtNtNtCslGh6CY2EcXh_14darwin_metrics8hardware3cpu8cpu_implNtB4_3CPU17max_frequency_mhz0Ba_
FNDA:1,_RNCNvMNtNtNtCslGh6CY2EcXh_14darwin_metrics8hardware3cpu8cpu_implNtB4_3CPU17min_frequency_mhz0Ba_
FNDA:1,_RNCNvMNtNtNtCslGh6CY2EcXh_14darwin_metrics8hardware3cpu8cpu_implNtB4_3CPU21available_frequencies0Ba_
FNDA:2,_RNvMNtNtNtCslGh6CY2EcXh_14darwin_metrics8hardware3cpu8cpu_implNtB2_3CPU10core_usage
FNDA:1,_RNvMNtNtNtCslGh6CY2EcXh_14darwin_metrics8hardware3cpu8cpu_implNtB2_3CPU10model_name
FNDA:1,_RNvMNtNtNtCslGh6CY2EcXh_14darwin_metrics8hardware3cpu8cpu_implNtB2_3CPU11temperature
FNDA:2,_RNvMNtNtNtCslGh6CY2EcXh_14darwin_metrics8hardware3cpu8cpu_implNtB2_3CPU13frequency_mhz
FNDA:1,_RNvMNtNtNtCslGh6CY2EcXh_14darwin_metrics8hardware3cpu8cpu_implNtB2_3CPU13logical_cores
FNDA:1,_RNvMNtNtNtCslGh6CY2EcXh_14darwin_metrics8hardware3cpu8cpu_implNtB2_3CPU14physical_cores
FNDA:1,_RNvMNtNtNtCslGh6CY2EcXh_14darwin_metrics8hardware3cpu8cpu_implNtB2_3CPU17frequency_metrics
FNDA:1,_RNvMNtNtNtCslGh6CY2EcXh_14darwin_metrics8hardware3cpu8cpu_implNtB2_3CPU17max_frequency_mhz
FNDA:1,_RNvMNtNtNtCslGh6CY2EcXh_14darwin_metrics8hardware3cpu8cpu_implNtB2_3CPU17min_frequency_mhz
FNDA:1,_RNvMNtNtNtCslGh6CY2EcXh_14darwin_metrics8hardware3cpu8cpu_implNtB2_3CPU21available_frequencies
FNDA:4,_RNvMNtNtNtNtCslGh6CY2EcXh_14darwin_metrics8hardware3cpu8cpu_impl5testsNtB4_3CPU13new_with_mock
FNDA:3,_RNvXs_NtNtNtCslGh6CY2EcXh_14darwin_metrics8hardware3cpu8cpu_implNtB4_3CPUNtB6_10CpuMetrics13get_cpu_usage
FNDA:1,_RNvXs_NtNtNtCslGh6CY2EcXh_14darwin_metrics8hardware3cpu8cpu_implNtB4_3CPUNtB6_10CpuMetrics17get_cpu_frequency
FNDA:1,_RNvXs_NtNtNtCslGh6CY2EcXh_14darwin_metrics8hardware3cpu8cpu_implNtB4_3CPUNtB6_10CpuMetrics19get_cpu_temperature
FNDA:0,_RNCNvMNtNtNtNtCslGh6CY2EcXh_14darwin_metrics8hardware3cpu8cpu_impl5testsNtB6_3CPU13new_with_mocks_0Bc_
FNDA:0,_RNvMNtNtNtCslGh6CY2EcXh_14darwin_metrics8hardware3cpu8cpu_implNtB2_3CPU16fetch_core_usage
FNDA:0,_RNvMNtNtNtCslGh6CY2EcXh_14darwin_metrics8hardware3cpu8cpu_implNtB2_3CPU21fetch_cpu_temperature
FNDA:0,_RNvMNtNtNtCslGh6CY2EcXh_14darwin_metrics8hardware3cpu8cpu_implNtB2_3CPU3new
FNDA:0,_RNvMNtNtNtCslGh6CY2EcXh_14darwin_metrics8hardware3cpu8cpu_implNtB2_3CPU6update
FNDA:0,_RNCNvMNtNtNtNtCslGh6CY2EcXh_14darwin_metrics8hardware3cpu8cpu_impl5testsNtB6_3CPU13new_with_mock0Bc_
FNDA:0,_RNCNvMNtNtNtCsGBPSOZydBW_14darwin_metrics8hardware3cpu8cpu_implNtB4_3CPU17max_frequency_mhz0Ba_
FNDA:0,_RNCNvMNtNtNtCsGBPSOZydBW_14darwin_metrics8hardware3cpu8cpu_implNtB4_3CPU17min_frequency_mhz0Ba_
FNDA:0,_RNCNvMNtNtNtCsGBPSOZydBW_14darwin_metrics8hardware3cpu8cpu_implNtB4_3CPU21available_frequencies0Ba_
FNDA:0,_RNvMNtNtNtCsGBPSOZydBW_14darwin_metrics8hardware3cpu8cpu_implNtB2_3CPU10core_usage
FNDA:0,_RNvMNtNtNtCsGBPSOZydBW_14darwin_metrics8hardware3cpu8cpu_implNtB2_3CPU10model_name
FNDA:0,_RNvMNtNtNtCsGBPSOZydBW_14darwin_metrics8hardware3cpu8cpu_implNtB2_3CPU11temperature
FNDA:0,_RNvMNtNtNtCsGBPSOZydBW_14darwin_metrics8hardware3cpu8cpu_implNtB2_3CPU13frequency_mhz
FNDA:0,_RNvMNtNtNtCsGBPSOZydBW_14darwin_metrics8hardware3cpu8cpu_implNtB2_3CPU13logical_cores
FNDA:0,_RNvMNtNtNtCsGBPSOZydBW_14darwin_metrics8hardware3cpu8cpu_implNtB2_3CPU14physical_cores
FNDA:0,_RNvMNtNtNtCsGBPSOZydBW_14darwin_metrics8hardware3cpu8cpu_implNtB2_3CPU16fetch_core_usage
FNDA:0,_RNvMNtNtNtCsGBPSOZydBW_14darwin_metrics8hardware3cpu8cpu_implNtB2_3CPU17frequency_metrics
FNDA:0,_RNvMNtNtNtCsGBPSOZydBW_14darwin_metrics8hardware3cpu8cpu_implNtB2_3CPU17max_frequency_mhz
FNDA:0,_RNvMNtNtNtCsGBPSOZydBW_14darwin_metrics8hardware3cpu8cpu_implNtB2_3CPU17min_frequency_mhz
FNDA:0,_RNvMNtNtNtCsGBPSOZydBW_14darwin_metrics8hardware3cpu8cpu_implNtB2_3CPU21available_frequencies
FNDA:0,_RNvMNtNtNtCsGBPSOZydBW_14darwin_metrics8hardware3cpu8cpu_implNtB2_3CPU21fetch_cpu_temperature
FNDA:0,_RNvMNtNtNtCsGBPSOZydBW_14darwin_metrics8hardware3cpu8cpu_implNtB2_3CPU3new
FNDA:0,_RNvMNtNtNtCsGBPSOZydBW_14darwin_metrics8hardware3cpu8cpu_implNtB2_3CPU6update
FNDA:0,_RNvXs_NtNtNtCsGBPSOZydBW_14darwin_metrics8hardware3cpu8cpu_implNtB4_3CPUNtB6_10CpuMetrics13get_cpu_usage
FNDA:0,_RNvXs_NtNtNtCsGBPSOZydBW_14darwin_metrics8hardware3cpu8cpu_implNtB4_3CPUNtB6_10CpuMetrics17get_cpu_frequency
FNDA:0,_RNvXs_NtNtNtCsGBPSOZydBW_14darwin_metrics8hardware3cpu8cpu_implNtB4_3CPUNtB6_10CpuMetrics19get_cpu_temperature
FNF:27
FNH:21
DA:73,0
DA:74,0
DA:75,0
DA:76,0
DA:77,0
DA:78,0
DA:79,0
DA:80,0
DA:81,0
DA:82,0
DA:83,0
DA:84,0
DA:85,0
DA:86,0
DA:87,0
DA:102,0
DA:103,0
DA:108,0
DA:109,0
DA:110,0
DA:111,0
DA:112,0
DA:113,0
DA:114,0
DA:115,0
DA:116,0
DA:117,0
DA:118,0
DA:119,0
DA:120,0
DA:121,0
DA:122,0
DA:123,0
DA:126,0
DA:131,0
DA:132,0
DA:133,0
DA:134,0
DA:135,0
DA:136,0
DA:137,0
DA:138,0
DA:156,0
DA:157,0
DA:158,0
DA:159,0
DA:160,0
DA:161,0
DA:162,0
DA:163,0
DA:164,0
DA:165,0
DA:166,0
DA:167,0
DA:168,0
DA:169,0
DA:170,0
DA:171,0
DA:172,0
DA:173,0
DA:174,0
DA:175,0
DA:176,0
DA:177,0
DA:178,0
DA:180,0
DA:181,0
DA:192,0
DA:193,0
DA:194,0
DA:205,1
DA:206,1
DA:207,1
DA:218,1
DA:219,1
DA:220,1
DA:230,2
DA:231,2
DA:232,2
DA:242,2
DA:243,2
DA:244,2
DA:254,1
DA:255,1
DA:256,1
DA:263,1
DA:264,1
DA:265,1
DA:276,1
DA:277,1
DA:278,1
DA:285,1
DA:286,1
DA:287,1
DA:294,1
DA:295,1
DA:296,1
DA:304,1
DA:305,1
DA:306,1
DA:325,3
DA:326,3
DA:327,3
DA:334,1
DA:335,1
DA:336,1
DA:343,1
DA:344,1
DA:345,1
DA:354,4
DA:355,4
DA:356,4
DA:357,4
DA:358,4
DA:359,4
DA:360,4
DA:362,0
DA:363,4
DA:364,4
DA:365,4
DA:366,4
DA:367,4
DA:368,4
DA:369,4
DA:370,4
DA:371,4
DA:372,4
DA:373,4
DA:374,4
DA:375,4
DA:376,4
DA:377,4
DA:378,4
DA:379,4
DA:380,4
DA:381,4
DA:382,4
DA:383,4
DA:387,1
DA:388,1
DA:389,1
DA:390,1
DA:391,1
DA:392,1
DA:393,1
DA:394,1
DA:395,1
DA:396,1
DA:399,1
DA:400,1
DA:401,1
DA:402,1
DA:403,1
DA:407,1
DA:408,1
DA:409,1
DA:412,1
DA:413,1
DA:414,1
DA:415,1
DA:416,1
DA:417,1
DA:420,1
DA:421,1
DA:424,1
DA:425,1
DA:426,1
DA:427,1
DA:428,1
DA:429,1
DA:430,1
DA:433,1
DA:434,1
DA:435,1
DA:436,1
DA:439,1
DA:440,1
DA:441,1
DA:442,1
DA:443,1
DA:444,1
BRF:0
BRH:0
LF:187
LH:113
end_of_record
SF:/Users/smeya/git/darwin-metrics/src/hardware/cpu/frequency.rs
FN:78,_RNvXNtNtNtCslGh6CY2EcXh_14darwin_metrics8hardware3cpu9frequencyNtB2_16FrequencyMonitorNtNtCs4P3ALgZxGbJ_4core7default7Default7default
FN:160,_RNCNvNtNtNtCslGh6CY2EcXh_14darwin_metrics8hardware3cpu9frequency30fetch_sysctl_frequency_by_name0B9_
FN:106,_RNvMs_NtNtNtCslGh6CY2EcXh_14darwin_metrics8hardware3cpu9frequencyNtB4_16FrequencyMonitor11get_metrics
FN:89,_RNvMs_NtNtNtCslGh6CY2EcXh_14darwin_metrics8hardware3cpu9frequencyNtB4_16FrequencyMonitor3new
FN:129,_RNvNtNtNtCslGh6CY2EcXh_14darwin_metrics8hardware3cpu9frequency17retrieve_cpu_info
FN:119,_RNvNtNtNtCslGh6CY2EcXh_14darwin_metrics8hardware3cpu9frequency21fetch_cpu_frequencies
FN:156,_RNvNtNtNtCslGh6CY2EcXh_14darwin_metrics8hardware3cpu9frequency30fetch_sysctl_frequency_by_name
FN:190,_RNvNtNtNtNtCslGh6CY2EcXh_14darwin_metrics8hardware3cpu9frequency5tests22fetch_sysctl_frequency
FN:199,_RNvNtNtNtNtCslGh6CY2EcXh_14darwin_metrics8hardware3cpu9frequency5tests30fetch_sysctl_frequency_by_name
FN:240,_RNvNtNtNtNtCslGh6CY2EcXh_14darwin_metrics8hardware3cpu9frequency5testss_21test_cpu_info_default
FN:211,_RNvNtNtNtNtCslGh6CY2EcXh_14darwin_metrics8hardware3cpu9frequency5testss_22test_frequency_metrics
FN:315,_RNvNtNtNtNtCslGh6CY2EcXh_14darwin_metrics8hardware3cpu9frequency5testss_26test_fetch_cpu_frequencies
FN:226,_RNvNtNtNtNtCslGh6CY2EcXh_14darwin_metrics8hardware3cpu9frequency5testss_26test_frequency_monitor_new
FN:281,_RNvNtNtNtNtCslGh6CY2EcXh_14darwin_metrics8hardware3cpu9frequency5testss_27test_fetch_sysctl_frequency
FN:233,_RNvNtNtNtNtCslGh6CY2EcXh_14darwin_metrics8hardware3cpu9frequency5testss_30test_frequency_monitor_default
FN:334,_RNvNtNtNtNtCslGh6CY2EcXh_14darwin_metrics8hardware3cpu9frequency5testss_34test_frequency_monitor_get_metrics
FN:249,_RNvNtNtNtNtCslGh6CY2EcXh_14darwin_metrics8hardware3cpu9frequency5testss_38test_available_frequencies_calculation
FN:302,_RNvNtNtNtNtCslGh6CY2EcXh_14darwin_metrics8hardware3cpu9frequency5testss_41test_fetch_sysctl_frequency_by_name_error
FN:160,_RNCNvNtNtNtCsGBPSOZydBW_14darwin_metrics8hardware3cpu9frequency30fetch_sysctl_frequency_by_name0B9_
FN:106,_RNvMs_NtNtNtCsGBPSOZydBW_14darwin_metrics8hardware3cpu9frequencyNtB4_16FrequencyMonitor11get_metrics
FN:89,_RNvMs_NtNtNtCsGBPSOZydBW_14darwin_metrics8hardware3cpu9frequencyNtB4_16FrequencyMonitor3new
FN:129,_RNvNtNtNtCsGBPSOZydBW_14darwin_metrics8hardware3cpu9frequency17retrieve_cpu_info
FN:119,_RNvNtNtNtCsGBPSOZydBW_14darwin_metrics8hardware3cpu9frequency21fetch_cpu_frequencies
FN:156,_RNvNtNtNtCsGBPSOZydBW_14darwin_metrics8hardware3cpu9frequency30fetch_sysctl_frequency_by_name
FN:78,_RNvXNtNtNtCsGBPSOZydBW_14darwin_metrics8hardware3cpu9frequencyNtB2_16FrequencyMonitorNtNtCs4P3ALgZxGbJ_4core7default7Default7default
FNDA:0,_RNvXNtNtNtCslGh6CY2EcXh_14darwin_metrics8hardware3cpu9frequencyNtB2_16FrequencyMonitorNtNtCs4P3ALgZxGbJ_4core7default7Default7default
FNDA:0,_RNCNvNtNtNtCslGh6CY2EcXh_14darwin_metrics8hardware3cpu9frequency30fetch_sysctl_frequency_by_name0B9_
FNDA:1,_RNvMs_NtNtNtCslGh6CY2EcXh_14darwin_metrics8hardware3cpu9frequencyNtB4_16FrequencyMonitor11get_metrics
FNDA:5,_RNvMs_NtNtNtCslGh6CY2EcXh_14darwin_metrics8hardware3cpu9frequencyNtB4_16FrequencyMonitor3new
FNDA:2,_RNvNtNtNtCslGh6CY2EcXh_14darwin_metrics8hardware3cpu9frequency17retrieve_cpu_info
FNDA:2,_RNvNtNtNtCslGh6CY2EcXh_14darwin_metrics8hardware3cpu9frequency21fetch_cpu_frequencies
FNDA:2,_RNvNtNtNtCslGh6CY2EcXh_14darwin_metrics8hardware3cpu9frequency30fetch_sysctl_frequency_by_name
FNDA:2,_RNvNtNtNtNtCslGh6CY2EcXh_14darwin_metrics8hardware3cpu9frequency5tests22fetch_sysctl_frequency
FNDA:2,_RNvNtNtNtNtCslGh6CY2EcXh_14darwin_metrics8hardware3cpu9frequency5tests30fetch_sysctl_frequency_by_name
FNDA:1,_RNvNtNtNtNtCslGh6CY2EcXh_14darwin_metrics8hardware3cpu9frequency5testss_21test_cpu_info_default
FNDA:1,_RNvNtNtNtNtCslGh6CY2EcXh_14darwin_metrics8hardware3cpu9frequency5testss_22test_frequency_metrics
FNDA:1,_RNvNtNtNtNtCslGh6CY2EcXh_14darwin_metrics8hardware3cpu9frequency5testss_26test_fetch_cpu_frequencies
FNDA:1,_RNvNtNtNtNtCslGh6CY2EcXh_14darwin_metrics8hardware3cpu9frequency5testss_26test_frequency_monitor_new
FNDA:1,_RNvNtNtNtNtCslGh6CY2EcXh_14darwin_metrics8hardware3cpu9frequency5testss_27test_fetch_sysctl_frequency
FNDA:1,_RNvNtNtNtNtCslGh6CY2EcXh_14darwin_metrics8hardware3cpu9frequency5testss_30test_frequency_monitor_default
FNDA:1,_RNvNtNtNtNtCslGh6CY2EcXh_14darwin_metrics8hardware3cpu9frequency5testss_34test_frequency_monitor_get_metrics
FNDA:1,_RNvNtNtNtNtCslGh6CY2EcXh_14darwin_metrics8hardware3cpu9frequency5testss_38test_available_frequencies_calculation
FNDA:1,_RNvNtNtNtNtCslGh6CY2EcXh_14darwin_metrics8hardware3cpu9frequency5testss_41test_fetch_sysctl_frequency_by_name_error
FNDA:0,_RNCNvNtNtNtCsGBPSOZydBW_14darwin_metrics8hardware3cpu9frequency30fetch_sysctl_frequency_by_name0B9_
FNDA:0,_RNvMs_NtNtNtCsGBPSOZydBW_14darwin_metrics8hardware3cpu9frequencyNtB4_16FrequencyMonitor11get_metrics
FNDA:0,_RNvMs_NtNtNtCsGBPSOZydBW_14darwin_metrics8hardware3cpu9frequencyNtB4_16FrequencyMonitor3new
FNDA:0,_RNvNtNtNtCsGBPSOZydBW_14darwin_metrics8hardware3cpu9frequency17retrieve_cpu_info
FNDA:0,_RNvNtNtNtCsGBPSOZydBW_14darwin_metrics8hardware3cpu9frequency21fetch_cpu_frequencies
FNDA:0,_RNvNtNtNtCsGBPSOZydBW_14darwin_metrics8hardware3cpu9frequency30fetch_sysctl_frequency_by_name
FNDA:0,_RNvXNtNtNtCsGBPSOZydBW_14darwin_metrics8hardware3cpu9frequencyNtB2_16FrequencyMonitorNtNtCs4P3ALgZxGbJ_4core7default7Default7default
FNF:18
FNH:16
DA:78,0
DA:79,0
DA:80,0
DA:89,5
DA:90,5
DA:91,5
DA:106,1
DA:107,1
DA:108,1
DA:119,2
DA:120,2
DA:121,0
DA:122,0
DA:123,0
DA:124,0
DA:125,0
DA:126,0
DA:127,2
DA:129,2
DA:135,2
DA:136,0
DA:137,0
DA:141,0
DA:142,0
DA:143,0
DA:144,0
DA:145,0
DA:146,0
DA:147,0
DA:148,0
DA:149,0
DA:150,0
DA:151,0
DA:153,0
DA:154,2
DA:156,2
DA:160,2
DA:161,0
DA:162,2
DA:164,2
DA:165,2
DA:166,2
DA:167,2
DA:168,2
DA:169,2
DA:170,2
DA:171,2
DA:172,2
DA:173,2
DA:174,2
DA:175,2
DA:176,2
DA:177,2
DA:178,2
DA:179,2
DA:180,0
DA:181,0
DA:182,0
DA:183,2
DA:190,2
DA:191,2
DA:192,2
DA:193,1
DA:194,1
DA:195,1
DA:196,2
DA:199,2
DA:200,2
DA:201,2
DA:202,1
DA:203,1
DA:204,1
DA:205,1
DA:206,0
DA:207,0
DA:208,2
DA:211,1
DA:212,1
DA:213,1
DA:214,1
DA:215,1
DA:216,1
DA:217,1
DA:218,1
DA:219,1
DA:220,1
DA:221,1
DA:222,1
DA:223,1
DA:226,1
DA:227,1
DA:228,1
DA:229,1
DA:230,1
DA:233,1
DA:234,1
DA:235,1
DA:236,1
DA:237,1
DA:240,1
DA:241,1
DA:242,1
DA:243,1
DA:244,1
DA:245,1
DA:246,1
DA:249,1
DA:250,1
DA:251,1
DA:252,1
DA:253,1
DA:254,1
DA:255,1
DA:256,1
DA:257,1
DA:258,1
DA:259,1
DA:260,1
DA:261,1
DA:262,1
DA:263,1
DA:264,1
DA:265,1
DA:266,1
DA:267,4
DA:268,4
DA:269,3
DA:270,1
DA:274,1
DA:275,1
DA:276,1
DA:281,1
DA:282,1
DA:283,1
DA:284,1
DA:285,1
DA:286,1
DA:287,1
DA:288,1
DA:290,1
DA:291,1
DA:292,0
DA:295,1
DA:296,1
DA:297,1
DA:299,1
DA:302,1
DA:303,1
DA:304,1
DA:305,1
DA:306,1
DA:309,1
DA:310,1
DA:312,1
DA:315,1
DA:316,1
DA:317,1
DA:318,1
DA:319,1
DA:320,1
DA:321,1
DA:322,1
DA:323,1
DA:324,1
DA:325,0
DA:326,0
DA:327,0
DA:328,0
DA:329,0
DA:330,1
DA:331,1
DA:334,1
DA:335,1
DA:336,1
DA:337,1
DA:338,1
DA:339,1
DA:340,1
DA:341,0
DA:342,0
DA:343,0
DA:344,0
DA:345,0
DA:346,1
DA:347,1
BRF:0
BRH:0
LF:187
LH:145
end_of_record
SF:/Users/smeya/git/darwin-metrics/src/hardware/gpu/mod.rs
FN:59,_RNCNvMNtNtCslGh6CY2EcXh_14darwin_metrics8hardware3gpuNtB4_3Gpu3new0B8_
FN:73,_RNCNvMNtNtCslGh6CY2EcXh_14darwin_metrics8hardware3gpuNtB4_3Gpu4name0B8_
FN:263,_RNCNvMNtNtCslGh6CY2EcXh_14darwin_metrics8hardware3gpuNtB4_3Gpu7metrics0B8_
FN:744,_RNvMNtNtCslGh6CY2EcXh_14darwin_metrics8hardware3gpuNtB2_3Gpu13get_cpu_cores
FN:236,_RNvMNtNtCslGh6CY2EcXh_14darwin_metrics8hardware3gpuNtB2_3Gpu13get_cpu_model
FN:492,_RNvMNtNtCslGh6CY2EcXh_14darwin_metrics8hardware3gpuNtB2_3Gpu15get_temperature
FN:438,_RNvMNtNtCslGh6CY2EcXh_14darwin_metrics8hardware3gpuNtB2_3Gpu16get_memory_stats
FN:308,_RNvMNtNtCslGh6CY2EcXh_14darwin_metrics8hardware3gpuNtB2_3Gpu19get_characteristics
FN:381,_RNvMNtNtCslGh6CY2EcXh_14darwin_metrics8hardware3gpuNtB2_3Gpu20estimate_memory_info
FN:614,_RNvMNtNtCslGh6CY2EcXh_14darwin_metrics8hardware3gpuNtB2_3Gpu20estimate_utilization
FN:715,_RNvMNtNtCslGh6CY2EcXh_14darwin_metrics8hardware3gpuNtB2_3Gpu23get_cpu_usage_component
FN:115,_RNvMNtNtCslGh6CY2EcXh_14darwin_metrics8hardware3gpuNtB2_3Gpu25detect_apple_silicon_chip
FN:647,_RNvMNtNtCslGh6CY2EcXh_14darwin_metrics8hardware3gpuNtB2_3Gpu25get_system_load_component
FN:663,_RNvMNtNtCslGh6CY2EcXh_14darwin_metrics8hardware3gpuNtB2_3Gpu30get_process_activity_component
FN:57,_RNvMNtNtCslGh6CY2EcXh_14darwin_metrics8hardware3gpuNtB2_3Gpu3new
FN:71,_RNvMNtNtCslGh6CY2EcXh_14darwin_metrics8hardware3gpuNtB2_3Gpu4name
FN:262,_RNvMNtNtCslGh6CY2EcXh_14darwin_metrics8hardware3gpuNtB2_3Gpu7metrics
FN:775,_RNCNvXs_NtNtCslGh6CY2EcXh_14darwin_metrics8hardware3gpuNtB6_3GpuNtNtNtCs4P3ALgZxGbJ_4core3ops4drop4Drop4drop0Ba_
FN:772,_RNvXs_NtNtCslGh6CY2EcXh_14darwin_metrics8hardware3gpuNtB4_3GpuNtNtNtCs4P3ALgZxGbJ_4core3ops4drop4Drop4drop
FN:836,_RNvNtNtNtCslGh6CY2EcXh_14darwin_metrics8hardware3gpu5testss_12test_metrics
FN:801,_RNvNtNtNtCslGh6CY2EcXh_14darwin_metrics8hardware3gpu5testss_13test_gpu_name
FN:815,_RNvNtNtNtCslGh6CY2EcXh_14darwin_metrics8hardware3gpu5testss_16test_memory_info
FN:932,_RNvNtNtNtCslGh6CY2EcXh_14darwin_metrics8hardware3gpu5testss_18test_cpu_detection
FN:794,_RNvNtNtNtCslGh6CY2EcXh_14darwin_metrics8hardware3gpu5testss_23test_gpu_initialization
FN:855,_RNvNtNtNtCslGh6CY2EcXh_14darwin_metrics8hardware3gpu5testss_24test_gpu_characteristics
FN:909,_RNvNtNtNtCslGh6CY2EcXh_14darwin_metrics8hardware3gpu5testss_28test_apple_silicon_detection
FN:970,_RNvNtNtNtCslGh6CY2EcXh_14darwin_metrics8hardware3gpu5testss_28test_metrics_characteristics
FN:186,_RNvMNtNtCslGh6CY2EcXh_14darwin_metrics8hardware3gpuNtB2_3Gpu16detect_intel_gpu
FN:775,_RNCNvXs_NtNtCsGBPSOZydBW_14darwin_metrics8hardware3gpuNtB6_3GpuNtNtNtCs4P3ALgZxGbJ_4core3ops4drop4Drop4drop0Ba_
FN:772,_RNvXs_NtNtCsGBPSOZydBW_14darwin_metrics8hardware3gpuNtB4_3GpuNtNtNtCs4P3ALgZxGbJ_4core3ops4drop4Drop4drop
FN:59,_RNCNvMNtNtCsGBPSOZydBW_14darwin_metrics8hardware3gpuNtB4_3Gpu3new0B8_
FN:73,_RNCNvMNtNtCsGBPSOZydBW_14darwin_metrics8hardware3gpuNtB4_3Gpu4name0B8_
FN:263,_RNCNvMNtNtCsGBPSOZydBW_14darwin_metrics8hardware3gpuNtB4_3Gpu7metrics0B8_
FN:744,_RNvMNtNtCsGBPSOZydBW_14darwin_metrics8hardware3gpuNtB2_3Gpu13get_cpu_cores
FN:492,_RNvMNtNtCsGBPSOZydBW_14darwin_metrics8hardware3gpuNtB2_3Gpu15get_temperature
FN:438,_RNvMNtNtCsGBPSOZydBW_14darwin_metrics8hardware3gpuNtB2_3Gpu16get_memory_stats
FN:308,_RNvMNtNtCsGBPSOZydBW_14darwin_metrics8hardware3gpuNtB2_3Gpu19get_characteristics
FN:381,_RNvMNtNtCsGBPSOZydBW_14darwin_metrics8hardware3gpuNtB2_3Gpu20estimate_memory_info
FN:614,_RNvMNtNtCsGBPSOZydBW_14darwin_metrics8hardware3gpuNtB2_3Gpu20estimate_utilization
FN:715,_RNvMNtNtCsGBPSOZydBW_14darwin_metrics8hardware3gpuNtB2_3Gpu23get_cpu_usage_component
FN:115,_RNvMNtNtCsGBPSOZydBW_14darwin_metrics8hardware3gpuNtB2_3Gpu25detect_apple_silicon_chip
FN:647,_RNvMNtNtCsGBPSOZydBW_14darwin_metrics8hardware3gpuNtB2_3Gpu25get_system_load_component
FN:663,_RNvMNtNtCsGBPSOZydBW_14darwin_metrics8hardware3gpuNtB2_3Gpu30get_process_activity_component
FN:57,_RNvMNtNtCsGBPSOZydBW_14darwin_metrics8hardware3gpuNtB2_3Gpu3new
FN:71,_RNvMNtNtCsGBPSOZydBW_14darwin_metrics8hardware3gpuNtB2_3Gpu4name
FN:262,_RNvMNtNtCsGBPSOZydBW_14darwin_metrics8hardware3gpuNtB2_3Gpu7metrics
FN:236,_RNvMNtNtCsGBPSOZydBW_14darwin_metrics8hardware3gpuNtB2_3Gpu13get_cpu_model
FN:186,_RNvMNtNtCsGBPSOZydBW_14darwin_metrics8hardware3gpuNtB2_3Gpu16detect_intel_gpu
FNDA:8,_RNCNvMNtNtCslGh6CY2EcXh_14darwin_metrics8hardware3gpuNtB4_3Gpu3new0B8_
FNDA:3,_RNCNvMNtNtCslGh6CY2EcXh_14darwin_metrics8hardware3gpuNtB4_3Gpu4name0B8_
FNDA:2,_RNCNvMNtNtCslGh6CY2EcXh_14darwin_metrics8hardware3gpuNtB4_3Gpu7metrics0B8_
FNDA:5,_RNvMNtNtCslGh6CY2EcXh_14darwin_metrics8hardware3gpuNtB2_3Gpu13get_cpu_cores
FNDA:1,_RNvMNtNtCslGh6CY2EcXh_14darwin_metrics8hardware3gpuNtB2_3Gpu13get_cpu_model
FNDA:2,_RNvMNtNtCslGh6CY2EcXh_14darwin_metrics8hardware3gpuNtB2_3Gpu15get_temperature
FNDA:3,_RNvMNtNtCslGh6CY2EcXh_14darwin_metrics8hardware3gpuNtB2_3Gpu16get_memory_stats
FNDA:6,_RNvMNtNtCslGh6CY2EcXh_14darwin_metrics8hardware3gpuNtB2_3Gpu19get_characteristics
FNDA:3,_RNvMNtNtCslGh6CY2EcXh_14darwin_metrics8hardware3gpuNtB2_3Gpu20estimate_memory_info
FNDA:5,_RNvMNtNtCslGh6CY2EcXh_14darwin_metrics8hardware3gpuNtB2_3Gpu20estimate_utilization
FNDA:5,_RNvMNtNtCslGh6CY2EcXh_14darwin_metrics8hardware3gpuNtB2_3Gpu23get_cpu_usage_component
FNDA:9,_RNvMNtNtCslGh6CY2EcXh_14darwin_metrics8hardware3gpuNtB2_3Gpu25detect_apple_silicon_chip
FNDA:5,_RNvMNtNtCslGh6CY2EcXh_14darwin_metrics8hardware3gpuNtB2_3Gpu25get_system_load_component
FNDA:5,_RNvMNtNtCslGh6CY2EcXh_14darwin_metrics8hardware3gpuNtB2_3Gpu30get_process_activity_component
FNDA:8,_RNvMNtNtCslGh6CY2EcXh_14darwin_metrics8hardware3gpuNtB2_3Gpu3new
FNDA:3,_RNvMNtNtCslGh6CY2EcXh_14darwin_metrics8hardware3gpuNtB2_3Gpu4name
FNDA:2,_RNvMNtNtCslGh6CY2EcXh_14darwin_metrics8hardware3gpuNtB2_3Gpu7metrics
FNDA:8,_RNCNvXs_NtNtCslGh6CY2EcXh_14darwin_metrics8hardware3gpuNtB6_3GpuNtNtNtCs4P3ALgZxGbJ_4core3ops4drop4Drop4drop0Ba_
FNDA:8,_RNvXs_NtNtCslGh6CY2EcXh_14darwin_metrics8hardware3gpuNtB4_3GpuNtNtNtCs4P3ALgZxGbJ_4core3ops4drop4Drop4drop
FNDA:1,_RNvNtNtNtCslGh6CY2EcXh_14darwin_metrics8hardware3gpu5testss_12test_metrics
FNDA:1,_RNvNtNtNtCslGh6CY2EcXh_14darwin_metrics8hardware3gpu5testss_13test_gpu_name
FNDA:1,_RNvNtNtNtCslGh6CY2EcXh_14darwin_metrics8hardware3gpu5testss_16test_memory_info
FNDA:1,_RNvNtNtNtCslGh6CY2EcXh_14darwin_metrics8hardware3gpu5testss_18test_cpu_detection
FNDA:1,_RNvNtNtNtCslGh6CY2EcXh_14darwin_metrics8hardware3gpu5testss_23test_gpu_initialization
FNDA:1,_RNvNtNtNtCslGh6CY2EcXh_14darwin_metrics8hardware3gpu5testss_24test_gpu_characteristics
FNDA:1,_RNvNtNtNtCslGh6CY2EcXh_14darwin_metrics8hardware3gpu5testss_28test_apple_silicon_detection
FNDA:1,_RNvNtNtNtCslGh6CY2EcXh_14darwin_metrics8hardware3gpu5testss_28test_metrics_characteristics
FNDA:0,_RNvMNtNtCslGh6CY2EcXh_14darwin_metrics8hardware3gpuNtB2_3Gpu16detect_intel_gpu
FNDA:0,_RNCNvXs_NtNtCsGBPSOZydBW_14darwin_metrics8hardware3gpuNtB6_3GpuNtNtNtCs4P3ALgZxGbJ_4core3ops4drop4Drop4drop0Ba_
FNDA:0,_RNvXs_NtNtCsGBPSOZydBW_14darwin_metrics8hardware3gpuNtB4_3GpuNtNtNtCs4P3ALgZxGbJ_4core3ops4drop4Drop4drop
FNDA:0,_RNCNvMNtNtCsGBPSOZydBW_14darwin_metrics8hardware3gpuNtB4_3Gpu3new0B8_
FNDA:0,_RNCNvMNtNtCsGBPSOZydBW_14darwin_metrics8hardware3gpuNtB4_3Gpu4name0B8_
FNDA:0,_RNCNvMNtNtCsGBPSOZydBW_14darwin_metrics8hardware3gpuNtB4_3Gpu7metrics0B8_
FNDA:0,_RNvMNtNtCsGBPSOZydBW_14darwin_metrics8hardware3gpuNtB2_3Gpu13get_cpu_cores
FNDA:0,_RNvMNtNtCsGBPSOZydBW_14darwin_metrics8hardware3gpuNtB2_3Gpu15get_temperature
FNDA:0,_RNvMNtNtCsGBPSOZydBW_14darwin_metrics8hardware3gpuNtB2_3Gpu16get_memory_stats
FNDA:0,_RNvMNtNtCsGBPSOZydBW_14darwin_metrics8hardware3gpuNtB2_3Gpu19get_characteristics
FNDA:0,_RNvMNtNtCsGBPSOZydBW_14darwin_metrics8hardware3gpuNtB2_3Gpu20estimate_memory_info
FNDA:0,_RNvMNtNtCsGBPSOZydBW_14darwin_metrics8hardware3gpuNtB2_3Gpu20estimate_utilization
FNDA:0,_RNvMNtNtCsGBPSOZydBW_14darwin_metrics8hardware3gpuNtB2_3Gpu23get_cpu_usage_component
FNDA:0,_RNvMNtNtCsGBPSOZydBW_14darwin_metrics8hardware3gpuNtB2_3Gpu25detect_apple_silicon_chip
FNDA:0,_RNvMNtNtCsGBPSOZydBW_14darwin_metrics8hardware3gpuNtB2_3Gpu25get_system_load_component
FNDA:0,_RNvMNtNtCsGBPSOZydBW_14darwin_metrics8hardware3gpuNtB2_3Gpu30get_process_activity_component
FNDA:0,_RNvMNtNtCsGBPSOZydBW_14darwin_metrics8hardware3gpuNtB2_3Gpu3new
FNDA:0,_RNvMNtNtCsGBPSOZydBW_14darwin_metrics8hardware3gpuNtB2_3Gpu4name
FNDA:0,_RNvMNtNtCsGBPSOZydBW_14darwin_metrics8hardware3gpuNtB2_3Gpu7metrics
FNDA:0,_RNvMNtNtCsGBPSOZydBW_14darwin_metrics8hardware3gpuNtB2_3Gpu13get_cpu_model
FNDA:0,_RNvMNtNtCsGBPSOZydBW_14darwin_metrics8hardware3gpuNtB2_3Gpu16detect_intel_gpu
FNF:28
FNH:27
DA:57,8
DA:58,8
DA:59,8
DA:60,8
DA:61,8
DA:62,0
DA:64,8
DA:66,8
DA:67,8
DA:68,8
DA:69,8
DA:71,3
DA:72,3
DA:73,3
DA:75,3
DA:77,3
DA:78,3
DA:79,3
DA:80,3
DA:81,3
DA:82,3
DA:83,3
DA:84,3
DA:85,3
DA:86,3
DA:87,3
DA:88,0
DA:89,0
DA:90,0
DA:92,0
DA:95,0
DA:97,0
DA:98,0
DA:99,0
DA:100,0
DA:101,0
DA:102,0
DA:103,0
DA:106,0
DA:107,0
DA:108,0
DA:109,0
DA:110,0
DA:111,3
DA:112,3
DA:115,9
DA:116,9
DA:117,9
DA:118,9
DA:119,9
DA:120,9
DA:122,9
DA:123,9
DA:124,9
DA:125,9
DA:126,9
DA:127,9
DA:128,9
DA:129,9
DA:130,9
DA:131,0
DA:132,9
DA:133,9
DA:134,9
DA:135,9
DA:136,9
DA:137,9
DA:138,9
DA:139,9
DA:140,9
DA:141,9
DA:142,9
DA:143,9
DA:144,9
DA:145,9
DA:146,9
DA:147,0
DA:148,0
DA:149,0
DA:150,0
DA:151,0
DA:152,0
DA:155,9
DA:156,9
DA:157,0
DA:158,9
DA:159,0
DA:160,9
DA:161,0
DA:162,9
DA:163,9
DA:166,0
DA:167,0
DA:168,0
DA:170,0
DA:171,0
DA:172,0
DA:173,0
DA:174,0
DA:175,0
DA:176,0
DA:177,0
DA:178,0
DA:179,0
DA:180,0
DA:181,0
DA:183,9
DA:186,0
DA:195,0
DA:196,0
DA:197,0
DA:198,0
DA:199,0
DA:200,0
DA:201,0
DA:202,0
DA:203,0
DA:204,0
DA:205,0
DA:206,0
DA:207,0
DA:208,0
DA:209,0
DA:210,0
DA:211,0
DA:212,0
DA:213,0
DA:214,0
DA:222,0
DA:223,0
DA:224,0
DA:225,0
DA:226,0
DA:227,0
DA:228,0
DA:229,0
DA:230,0
DA:231,0
DA:233,0
DA:236,1
DA:237,1
DA:238,1
DA:239,1
DA:240,1
DA:242,1
DA:243,1
DA:244,1
DA:245,1
DA:246,1
DA:247,1
DA:248,1
DA:249,1
DA:250,1
DA:251,0
DA:252,1
DA:253,1
DA:254,1
DA:255,1
DA:256,1
DA:257,1
DA:258,1
DA:260,1
DA:262,2
DA:263,2
DA:265,2
DA:266,2
DA:267,2
DA:268,0
DA:271,2
DA:272,2
DA:276,2
DA:277,2
DA:278,2
DA:279,2
DA:280,2
DA:283,2
DA:284,2
DA:288,0
DA:290,0
DA:291,0
DA:293,0
DA:296,0
DA:298,0
DA:299,2
DA:300,2
DA:301,2
DA:303,2
DA:304,2
DA:305,2
DA:308,6
DA:309,6
DA:310,6
DA:311,6
DA:312,6
DA:313,6
DA:314,6
DA:315,6
DA:316,6
DA:319,6
DA:322,6
DA:325,6
DA:326,0
DA:327,0
DA:328,6
DA:329,0
DA:330,0
DA:331,6
DA:332,0
DA:333,0
DA:334,6
DA:335,0
DA:336,0
DA:337,6
DA:338,0
DA:339,0
DA:340,6
DA:341,0
DA:342,0
DA:343,6
DA:344,6
DA:345,6
DA:346,6
DA:347,0
DA:348,0
DA:349,0
DA:350,0
DA:351,0
DA:352,0
DA:353,0
DA:354,0
DA:355,0
DA:356,0
DA:357,0
DA:358,0
DA:359,0
DA:362,0
DA:364,0
DA:365,0
DA:366,0
DA:367,0
DA:370,0
DA:371,0
DA:372,0
DA:373,0
DA:374,0
DA:377,6
DA:378,6
DA:381,3
DA:383,3
DA:386,3
DA:390,3
DA:393,3
DA:394,3
DA:395,3
DA:396,0
DA:399,3
DA:400,0
DA:403,0
DA:407,0
DA:416,3
DA:419,3
DA:420,3
DA:421,3
DA:422,3
DA:423,3
DA:424,3
DA:425,3
DA:426,3
DA:427,3
DA:428,3
DA:429,3
DA:430,3
DA:431,3
DA:432,3
DA:433,3
DA:434,3
DA:435,3
DA:438,3
DA:439,3
DA:440,3
DA:441,3
DA:442,3
DA:443,3
DA:444,3
DA:445,3
DA:446,3
DA:447,3
DA:448,3
DA:449,3
DA:450,3
DA:451,3
DA:452,3
DA:453,3
DA:454,3
DA:455,3
DA:456,0
DA:457,0
DA:458,3
DA:464,3
DA:465,3
DA:466,3
DA:467,3
DA:468,3
DA:469,3
DA:470,3
DA:471,3
DA:472,3
DA:473,3
DA:474,3
DA:475,3
DA:476,3
DA:479,3
DA:482,0
DA:484,3
DA:487,3
DA:488,3
DA:489,3
DA:492,2
DA:493,2
DA:494,2
DA:495,2
DA:496,2
DA:497,2
DA:498,2
DA:499,2
DA:500,2
DA:501,2
DA:502,2
DA:503,2
DA:504,2
DA:505,2
DA:506,2
DA:507,2
DA:508,2
DA:509,2
DA:510,2
DA:511,2
DA:512,2
DA:513,2
DA:514,2
DA:515,2
DA:516,2
DA:517,2
DA:518,2
DA:519,2
DA:520,2
DA:521,2
DA:522,2
DA:523,2
DA:524,2
DA:525,2
DA:526,2
DA:527,2
DA:528,2
DA:529,2
DA:530,2
DA:531,2
DA:532,2
DA:533,2
DA:534,2
DA:535,2
DA:536,2
DA:537,2
DA:538,2
DA:539,2
DA:540,2
DA:541,2
DA:542,2
DA:543,2
DA:544,2
DA:545,2
DA:546,2
DA:547,2
DA:548,2
DA:549,2
DA:550,2
DA:551,2
DA:552,2
DA:553,2
DA:554,2
DA:555,2
DA:556,2
DA:557,2
DA:558,2
DA:559,2
DA:560,2
DA:561,2
DA:562,2
DA:563,2
DA:564,2
DA:565,2
DA:566,2
DA:567,2
DA:568,2
DA:569,2
DA:570,2
DA:571,2
DA:572,2
DA:573,2
DA:574,2
DA:575,2
DA:576,2
DA:577,2
DA:578,2
DA:579,2
DA:580,2
DA:581,2
DA:582,2
DA:583,2
DA:584,2
DA:585,2
DA:586,2
DA:587,2
DA:588,2
DA:589,2
DA:590,2
DA:591,2
DA:592,2
DA:593,2
DA:594,2
DA:595,2
DA:596,2
DA:597,2
DA:598,2
DA:599,2
DA:600,2
DA:601,2
DA:602,2
DA:603,2
DA:604,2
DA:605,2
DA:606,2
DA:607,2
DA:608,2
DA:609,2
DA:610,2
DA:611,2
DA:614,5
DA:615,5
DA:616,5
DA:617,5
DA:618,5
DA:619,5
DA:620,5
DA:621,5
DA:622,5
DA:623,5
DA:624,5
DA:625,5
DA:626,5
DA:627,5
DA:628,5
DA:629,5
DA:630,5
DA:631,5
DA:632,5
DA:636,5
DA:637,5
DA:638,5
DA:639,5
DA:640,5
DA:641,5
DA:642,5
DA:643,5
DA:644,5
DA:647,5
DA:651,5
DA:652,5
DA:653,0
DA:654,5
DA:655,5
DA:656,5
DA:657,5
DA:658,5
DA:660,5
DA:663,5
DA:666,5
DA:668,5
DA:672,25000
DA:673,24995
DA:674,24995
DA:675,24995
DA:676,24995
DA:677,24995
DA:678,24995
DA:679,24995
DA:680,24995
DA:681,24995
DA:682,24995
DA:683,0
DA:684,24995
DA:687,24995
DA:688,0
DA:689,24995
DA:693,5
DA:694,5
DA:695,5
DA:696,5
DA:697,5
DA:699,0
DA:705,5
DA:709,5
DA:711,5
DA:712,5
DA:715,5
DA:716,5
DA:717,5
DA:718,5
DA:719,5
DA:720,5
DA:721,5
DA:722,5
DA:723,5
DA:724,5
DA:725,5
DA:726,0
DA:727,5
DA:728,5
DA:729,5
DA:730,5
DA:731,5
DA:732,5
DA:733,5
DA:734,5
DA:735,5
DA:736,5
DA:737,5
DA:738,5
DA:739,5
DA:741,5
DA:744,5
DA:745,5
DA:746,5
DA:747,5
DA:748,5
DA:749,5
DA:750,5
DA:751,5
DA:752,5
DA:753,5
DA:754,5
DA:755,5
DA:756,5
DA:757,5
DA:758,5
DA:759,5
DA:760,5
DA:762,0
DA:764,5
DA:767,5
DA:772,8
DA:773,8
DA:774,8
DA:775,8
DA:776,8
DA:777,8
DA:778,8
DA:779,8
DA:780,8
DA:781,8
DA:782,0
DA:783,8
DA:794,1
DA:795,1
DA:796,1
DA:797,1
DA:798,1
DA:801,1
DA:802,1
DA:803,1
DA:804,1
DA:805,1
DA:806,1
DA:807,1
DA:808,1
DA:811,1
DA:812,1
DA:815,1
DA:816,1
DA:817,1
DA:818,1
DA:819,1
DA:820,1
DA:821,1
DA:822,1
DA:823,1
DA:824,1
DA:825,1
DA:826,1
DA:827,1
DA:828,0
DA:832,1
DA:833,1
DA:836,1
DA:837,1
DA:838,1
DA:839,1
DA:840,1
DA:841,1
DA:842,1
DA:843,1
DA:844,1
DA:845,1
DA:846,1
DA:847,0
DA:851,1
DA:852,1
DA:855,1
DA:856,1
DA:857,1
DA:858,1
DA:859,1
DA:860,1
DA:861,1
DA:862,1
DA:863,0
DA:865,1
DA:866,1
DA:867,0
DA:869,0
DA:875,1
DA:877,1
DA:878,1
DA:879,1
DA:880,0
DA:883,0
DA:884,0
DA:887,1
DA:888,1
DA:889,1
DA:890,0
DA:893,0
DA:896,1
DA:897,1
DA:898,1
DA:899,0
DA:902,0
DA:905,1
DA:906,1
DA:909,1
DA:910,1
DA:911,1
DA:912,1
DA:914,1
DA:915,1
DA:916,0
DA:919,1
DA:920,1
DA:921,1
DA:922,1
DA:923,0
DA:924,0
DA:927,0
DA:928,0
DA:929,1
DA:932,1
DA:933,1
DA:934,1
DA:935,1
DA:936,1
DA:937,1
DA:940,1
DA:942,1
DA:943,1
DA:945,1
DA:947,1
DA:948,1
DA:949,0
DA:950,0
DA:951,0
DA:952,0
DA:957,0
DA:958,0
DA:959,0
DA:963,0
DA:966,1
DA:967,1
DA:970,1
DA:971,1
DA:972,1
DA:973,1
DA:974,1
DA:975,1
DA:976,1
DA:977,1
DA:978,0
DA:980,0
DA:983,1
DA:986,1
DA:987,1
DA:988,0
DA:991,0
DA:994,1
DA:995,1
DA:996,1
DA:997,0
DA:1000,0
DA:1001,1
BRF:0
BRH:0
LF:706
LH:543
end_of_record
SF:/Users/smeya/git/darwin-metrics/src/hardware/iokit/mod.rs
FN:74,_RNCNvMs0_NtNtNtNtCslGh6CY2EcXh_14darwin_metrics8hardware5iokit22___mock_MockIOKit_IOKit19___io_object_releaseNtB7_7Matcher7matches0Bf_
FN:74,_RNCNvMsa_NtNtNtNtCslGh6CY2EcXh_14darwin_metrics8hardware5iokit22___mock_MockIOKit_IOKit19___io_object_releaseNtB7_12Expectations4calls_0Bf_
FN:74,_RNvMs4_NtNtNtNtCslGh6CY2EcXh_14darwin_metrics8hardware5iokit22___mock_MockIOKit_IOKit19___io_object_releaseNtB5_6Common7is_done
FN:74,_RNvMs4_NtNtNtNtCslGh6CY2EcXh_14darwin_metrics8hardware5iokit22___mock_MockIOKit_IOKit19___io_object_releaseNtB5_6Common7matches
FN:74,_RNvMs6_NtNtNtNtCslGh6CY2EcXh_14darwin_metrics8hardware5iokit22___mock_MockIOKit_IOKit19___io_object_releaseNtB5_11Expectation7is_done
FN:74,_RNvMs6_NtNtNtNtCslGh6CY2EcXh_14darwin_metrics8hardware5iokit22___mock_MockIOKit_IOKit19___io_object_releaseNtB5_11Expectation7matches
FN:74,_RNvMs8_NtNtNtNtCslGh6CY2EcXh_14darwin_metrics8hardware5iokit22___mock_MockIOKit_IOKit19___io_object_releaseNtB5_12Expectations3new
FN:74,_RNvXs9_NtNtNtNtCslGh6CY2EcXh_14darwin_metrics8hardware5iokit22___mock_MockIOKit_IOKit19___io_object_releaseNtB5_12ExpectationsNtNtCs4P3ALgZxGbJ_4core7default7Default7default
FN:74,_RINvMs6_NtNtNtNtCslGh6CY2EcXh_14darwin_metrics8hardware5iokit22___mock_MockIOKit_IOKit14___get_all_fansNtB6_11Expectation9returningNCNvNtBa_5testss_17test_get_all_fans0EBe_
FN:74,_RINvMs6_NtNtNtNtCslGh6CY2EcXh_14darwin_metrics8hardware5iokit22___mock_MockIOKit_IOKit14___get_all_fansNtB6_11Expectation9returningNCNvNtBa_5testss_23test_get_all_fans_emptys_0EBe_
FN:1481,_RNCNvNtNtNtCslGh6CY2EcXh_14darwin_metrics8hardware5iokit5testss_17test_get_all_fans0B9_
FN:1505,_RNCNvNtNtNtCslGh6CY2EcXh_14darwin_metrics8hardware5iokit5testss_23test_get_all_fans_emptys_0B9_
FN:74,_RINvMs4_NtNtNtNtCslGh6CY2EcXh_14darwin_metrics8hardware5iokit22___mock_MockIOKit_IOKit14___read_smc_keyNtB6_6Common4withINtNtCsgobV6Adt4VM_10predicates3ord11EqPredicateAaj4_EEBe_
FN:74,_RINvMs6_NtNtNtNtCslGh6CY2EcXh_14darwin_metrics8hardware5iokit22___mock_MockIOKit_IOKit14___read_smc_keyNtB6_11Expectation4withINtNtCsgobV6Adt4VM_10predicates3ord11EqPredicateAaj4_EEBe_
FN:74,_RINvMs6_NtNtNtNtCslGh6CY2EcXh_14darwin_metrics8hardware5iokit22___mock_MockIOKit_IOKit14___read_smc_keyNtB6_11Expectation9returningNCNvNtBa_5testss_17test_read_smc_key0EBe_
FN:1436,_RNCNvNtNtNtCslGh6CY2EcXh_14darwin_metrics8hardware5iokit5testss_17test_read_smc_key0B9_
FN:74,_RNCNvMs0_NtNtNtNtCslGh6CY2EcXh_14darwin_metrics8hardware5iokit22___mock_MockIOKit_IOKit18___get_thermal_infoNtB7_7Matcher7matches0Bf_
FN:74,_RNCNvMsa_NtNtNtNtCslGh6CY2EcXh_14darwin_metrics8hardware5iokit22___mock_MockIOKit_IOKit18___get_thermal_infoNtB7_12Expectations4calls_0Bf_
FN:74,_RNvMs4_NtNtNtNtCslGh6CY2EcXh_14darwin_metrics8hardware5iokit22___mock_MockIOKit_IOKit18___get_thermal_infoNtB5_6Common7is_done
FN:74,_RNvMs4_NtNtNtNtCslGh6CY2EcXh_14darwin_metrics8hardware5iokit22___mock_MockIOKit_IOKit18___get_thermal_infoNtB5_6Common7matches
FN:74,_RNvMs6_NtNtNtNtCslGh6CY2EcXh_14darwin_metrics8hardware5iokit22___mock_MockIOKit_IOKit18___get_thermal_infoNtB5_11Expectation7is_done
FN:74,_RNvMs6_NtNtNtNtCslGh6CY2EcXh_14darwin_metrics8hardware5iokit22___mock_MockIOKit_IOKit18___get_thermal_infoNtB5_11Expectation7matches
FN:74,_RNvMs8_NtNtNtNtCslGh6CY2EcXh_14darwin_metrics8hardware5iokit22___mock_MockIOKit_IOKit18___get_thermal_infoNtB5_12Expectations3new
FN:74,_RNvMs8_NtNtNtNtCslGh6CY2EcXh_14darwin_metrics8hardware5iokit22___mock_MockIOKit_IOKit18___get_thermal_infoNtB5_12Expectations6expect
FN:74,_RNvXs1_NtNtNtNtCslGh6CY2EcXh_14darwin_metrics8hardware5iokit22___mock_MockIOKit_IOKit18___get_thermal_infoNtB5_7MatcherNtNtCs4P3ALgZxGbJ_4core7default7Default7default
FN:74,_RNvXs3_NtNtNtNtCslGh6CY2EcXh_14darwin_metrics8hardware5iokit22___mock_MockIOKit_IOKit18___get_thermal_infoNtB5_6CommonNtNtCs4P3ALgZxGbJ_4core7default7Default7default
FN:74,_RNvXs7_NtNtNtNtCslGh6CY2EcXh_14darwin_metrics8hardware5iokit22___mock_MockIOKit_IOKit18___get_thermal_infoNtB5_11ExpectationNtNtCs4P3ALgZxGbJ_4core7default7Default7default
FN:74,_RNvXs9_NtNtNtNtCslGh6CY2EcXh_14darwin_metrics8hardware5iokit22___mock_MockIOKit_IOKit18___get_thermal_infoNtB5_12ExpectationsNtNtCs4P3ALgZxGbJ_4core7default7Default7default
FN:74,_RNvXs_NtNtNtNtCslGh6CY2EcXh_14darwin_metrics8hardware5iokit22___mock_MockIOKit_IOKit18___get_thermal_infoNtB4_5RfuncNtNtCs4P3ALgZxGbJ_4core7default7Default7default
FN:74,_RINvMs6_NtNtNtNtCslGh6CY2EcXh_14darwin_metrics8hardware5iokit22___mock_MockIOKit_IOKit15___get_fan_speedNtB6_11Expectation9returningNCNvNtBa_5testss_18test_get_fan_speed0EBe_
FN:1466,_RNCNvNtNtNtCslGh6CY2EcXh_14darwin_metrics8hardware5iokit5testss_18test_get_fan_speed0B9_
FN:74,_RINvMs4_NtNtNtNtCslGh6CY2EcXh_14darwin_metrics8hardware5iokit22___mock_MockIOKit_IOKit14___get_fan_infoNtB6_6Common4withINtNtCsgobV6Adt4VM_10predicates3ord11EqPredicatemEEBe_
FN:74,_RINvMs6_NtNtNtNtCslGh6CY2EcXh_14darwin_metrics8hardware5iokit22___mock_MockIOKit_IOKit14___get_fan_infoNtB6_11Expectation4withINtNtCsgobV6Adt4VM_10predicates3ord11EqPredicatemEEBe_
FN:74,_RINvMs6_NtNtNtNtCslGh6CY2EcXh_14darwin_metrics8hardware5iokit22___mock_MockIOKit_IOKit14___get_fan_infoNtB6_11Expectation9returningNCNvNtBa_5testss_17test_get_fan_info0EBe_
FN:74,_RINvMs6_NtNtNtNtCslGh6CY2EcXh_14darwin_metrics8hardware5iokit22___mock_MockIOKit_IOKit14___get_fan_infoNtB6_11Expectation9returningNCNvNtBa_5testss_31test_get_fan_info_min_max_equal0EBe_
FN:74,_RINvMs6_NtNtNtNtCslGh6CY2EcXh_14darwin_metrics8hardware5iokit22___mock_MockIOKit_IOKit14___get_fan_infoNtB6_11Expectation9returningNCNvNtBa_5testss_33test_get_all_fans_partial_failures0_0EBe_
FN:74,_RINvMs6_NtNtNtNtCslGh6CY2EcXh_14darwin_metrics8hardware5iokit22___mock_MockIOKit_IOKit14___get_fan_infoNtB6_11Expectation9returningNCNvNtBa_5testss_33test_get_all_fans_partial_failures_0EBe_
FN:1254,_RNCNvNtNtNtCslGh6CY2EcXh_14darwin_metrics8hardware5iokit5testss_17test_get_fan_info0B9_
FN:1274,_RNCNvNtNtNtCslGh6CY2EcXh_14darwin_metrics8hardware5iokit5testss_31test_get_fan_info_min_max_equal0B9_
FN:1530,_RNCNvNtNtNtCslGh6CY2EcXh_14darwin_metrics8hardware5iokit5testss_33test_get_all_fans_partial_failures0_0B9_
FN:1523,_RNCNvNtNtNtCslGh6CY2EcXh_14darwin_metrics8hardware5iokit5testss_33test_get_all_fans_partial_failures_0B9_
FN:74,_RNCNvMs0_NtNtNtNtCslGh6CY2EcXh_14darwin_metrics8hardware5iokit22___mock_MockIOKit_IOKit13___get_serviceNtB7_7Matcher7matches0Bf_
FN:74,_RNCNvMsa_NtNtNtNtCslGh6CY2EcXh_14darwin_metrics8hardware5iokit22___mock_MockIOKit_IOKit13___get_serviceNtB7_12Expectations4calls_0Bf_
FN:74,_RNvMs4_NtNtNtNtCslGh6CY2EcXh_14darwin_metrics8hardware5iokit22___mock_MockIOKit_IOKit13___get_serviceNtB5_6Common7is_done
FN:74,_RNvMs4_NtNtNtNtCslGh6CY2EcXh_14darwin_metrics8hardware5iokit22___mock_MockIOKit_IOKit13___get_serviceNtB5_6Common7matches
FN:74,_RNvMs6_NtNtNtNtCslGh6CY2EcXh_14darwin_metrics8hardware5iokit22___mock_MockIOKit_IOKit13___get_serviceNtB5_11Expectation7is_done
FN:74,_RNvMs6_NtNtNtNtCslGh6CY2EcXh_14darwin_metrics8hardware5iokit22___mock_MockIOKit_IOKit13___get_serviceNtB5_11Expectation7matches
FN:74,_RNvMs8_NtNtNtNtCslGh6CY2EcXh_14darwin_metrics8hardware5iokit22___mock_MockIOKit_IOKit13___get_serviceNtB5_12Expectations3new
FN:74,_RNvMs8_NtNtNtNtCslGh6CY2EcXh_14darwin_metrics8hardware5iokit22___mock_MockIOKit_IOKit13___get_serviceNtB5_12Expectations6expect
FN:74,_RNvXs1_NtNtNtNtCslGh6CY2EcXh_14darwin_metrics8hardware5iokit22___mock_MockIOKit_IOKit13___get_serviceNtB5_7MatcherNtNtCs4P3ALgZxGbJ_4core7default7Default7default
FN:74,_RNvXs3_NtNtNtNtCslGh6CY2EcXh_14darwin_metrics8hardware5iokit22___mock_MockIOKit_IOKit13___get_serviceNtB5_6CommonNtNtCs4P3ALgZxGbJ_4core7default7Default7default
FN:74,_RNvXs7_NtNtNtNtCslGh6CY2EcXh_14darwin_metrics8hardware5iokit22___mock_MockIOKit_IOKit13___get_serviceNtB5_11ExpectationNtNtCs4P3ALgZxGbJ_4core7default7Default7default
FN:74,_RNvXs9_NtNtNtNtCslGh6CY2EcXh_14darwin_metrics8hardware5iokit22___mock_MockIOKit_IOKit13___get_serviceNtB5_12ExpectationsNtNtCs4P3ALgZxGbJ_4core7default7Default7default
FN:74,_RNvXs_NtNtNtNtCslGh6CY2EcXh_14darwin_metrics8hardware5iokit22___mock_MockIOKit_IOKit13___get_serviceNtB4_5RfuncNtNtCs4P3ALgZxGbJ_4core7default7Default7default
FN:74,_RNCNvMs0_NtNtNtNtCslGh6CY2EcXh_14darwin_metrics8hardware5iokit22___mock_MockIOKit_IOKit26___get_heatsink_temperatureNtB7_7Matcher7matches0Bf_
FN:74,_RNCNvMsa_NtNtNtNtCslGh6CY2EcXh_14darwin_metrics8hardware5iokit22___mock_MockIOKit_IOKit26___get_heatsink_temperatureNtB7_12Expectations4calls_0Bf_
FN:74,_RNvMs4_NtNtNtNtCslGh6CY2EcXh_14darwin_metrics8hardware5iokit22___mock_MockIOKit_IOKit26___get_heatsink_temperatureNtB5_6Common7is_done
FN:74,_RNvMs4_NtNtNtNtCslGh6CY2EcXh_14darwin_metrics8hardware5iokit22___mock_MockIOKit_IOKit26___get_heatsink_temperatureNtB5_6Common7matches
FN:74,_RNvMs6_NtNtNtNtCslGh6CY2EcXh_14darwin_metrics8hardware5iokit22___mock_MockIOKit_IOKit26___get_heatsink_temperatureNtB5_11Expectation7is_done
FN:74,_RNvMs6_NtNtNtNtCslGh6CY2EcXh_14darwin_metrics8hardware5iokit22___mock_MockIOKit_IOKit26___get_heatsink_temperatureNtB5_11Expectation7matches
FN:74,_RNvMs8_NtNtNtNtCslGh6CY2EcXh_14darwin_metrics8hardware5iokit22___mock_MockIOKit_IOKit26___get_heatsink_temperatureNtB5_12Expectations3new
FN:74,_RNvMs8_NtNtNtNtCslGh6CY2EcXh_14darwin_metrics8hardware5iokit22___mock_MockIOKit_IOKit26___get_heatsink_temperatureNtB5_12Expectations6expect
FN:74,_RNvXs1_NtNtNtNtCslGh6CY2EcXh_14darwin_metrics8hardware5iokit22___mock_MockIOKit_IOKit26___get_heatsink_temperatureNtB5_7MatcherNtNtCs4P3ALgZxGbJ_4core7default7Default7default
FN:74,_RNvXs3_NtNtNtNtCslGh6CY2EcXh_14darwin_metrics8hardware5iokit22___mock_MockIOKit_IOKit26___get_heatsink_temperatureNtB5_6CommonNtNtCs4P3ALgZxGbJ_4core7default7Default7default
FN:74,_RNvXs7_NtNtNtNtCslGh6CY2EcXh_14darwin_metrics8hardware5iokit22___mock_MockIOKit_IOKit26___get_heatsink_temperatureNtB5_11ExpectationNtNtCs4P3ALgZxGbJ_4core7default7Default7default
FN:74,_RNvXs9_NtNtNtNtCslGh6CY2EcXh_14darwin_metrics8hardware5iokit22___mock_MockIOKit_IOKit26___get_heatsink_temperatureNtB5_12ExpectationsNtNtCs4P3ALgZxGbJ_4core7default7Default7default
FN:74,_RNvXs_NtNtNtNtCslGh6CY2EcXh_14darwin_metrics8hardware5iokit22___mock_MockIOKit_IOKit26___get_heatsink_temperatureNtB4_5RfuncNtNtCs4P3ALgZxGbJ_4core7default7Default7default
FN:74,_RNCNvMs0_NtNtNtNtCslGh6CY2EcXh_14darwin_metrics8hardware5iokit22___mock_MockIOKit_IOKit14___get_all_fansNtB7_7Matcher7matches0Bf_
FN:74,_RNCNvMsa_NtNtNtNtCslGh6CY2EcXh_14darwin_metrics8hardware5iokit22___mock_MockIOKit_IOKit14___get_all_fansNtB7_12Expectations4calls_0Bf_
FN:74,_RNvMs4_NtNtNtNtCslGh6CY2EcXh_14darwin_metrics8hardware5iokit22___mock_MockIOKit_IOKit14___get_all_fansNtB5_6Common7is_done
FN:74,_RNvMs4_NtNtNtNtCslGh6CY2EcXh_14darwin_metrics8hardware5iokit22___mock_MockIOKit_IOKit14___get_all_fansNtB5_6Common7matches
FN:74,_RNvMs6_NtNtNtNtCslGh6CY2EcXh_14darwin_metrics8hardware5iokit22___mock_MockIOKit_IOKit14___get_all_fansNtB5_11Expectation7is_done
FN:74,_RNvMs6_NtNtNtNtCslGh6CY2EcXh_14darwin_metrics8hardware5iokit22___mock_MockIOKit_IOKit14___get_all_fansNtB5_11Expectation7matches
FN:74,_RNvMs8_NtNtNtNtCslGh6CY2EcXh_14darwin_metrics8hardware5iokit22___mock_MockIOKit_IOKit14___get_all_fansNtB5_12Expectations3new
FN:74,_RNvMs8_NtNtNtNtCslGh6CY2EcXh_14darwin_metrics8hardware5iokit22___mock_MockIOKit_IOKit14___get_all_fansNtB5_12Expectations6expect
FN:74,_RNvXs1_NtNtNtNtCslGh6CY2EcXh_14darwin_metrics8hardware5iokit22___mock_MockIOKit_IOKit14___get_all_fansNtB5_7MatcherNtNtCs4P3ALgZxGbJ_4core7default7Default7default
FN:74,_RNvXs3_NtNtNtNtCslGh6CY2EcXh_14darwin_metrics8hardware5iokit22___mock_MockIOKit_IOKit14___get_all_fansNtB5_6CommonNtNtCs4P3ALgZxGbJ_4core7default7Default7default
FN:74,_RNvXs7_NtNtNtNtCslGh6CY2EcXh_14darwin_metrics8hardware5iokit22___mock_MockIOKit_IOKit14___get_all_fansNtB5_11ExpectationNtNtCs4P3ALgZxGbJ_4core7default7Default7default
FN:74,_RNvXs9_NtNtNtNtCslGh6CY2EcXh_14darwin_metrics8hardware5iokit22___mock_MockIOKit_IOKit14___get_all_fansNtB5_12ExpectationsNtNtCs4P3ALgZxGbJ_4core7default7Default7default
FN:74,_RNvXs_NtNtNtNtCslGh6CY2EcXh_14darwin_metrics8hardware5iokit22___mock_MockIOKit_IOKit14___get_all_fansNtB4_5RfuncNtNtCs4P3ALgZxGbJ_4core7default7Default7default
FN:74,_RNCNvMs0_NtNtNtNtCslGh6CY2EcXh_14darwin_metrics8hardware5iokit22___mock_MockIOKit_IOKit26___check_thermal_throttlingNtB7_7Matcher7matches0Bf_
FN:74,_RNCNvMsa_NtNtNtNtCslGh6CY2EcXh_14darwin_metrics8hardware5iokit22___mock_MockIOKit_IOKit26___check_thermal_throttlingNtB7_12Expectations4calls_0Bf_
FN:74,_RNvMs4_NtNtNtNtCslGh6CY2EcXh_14darwin_metrics8hardware5iokit22___mock_MockIOKit_IOKit26___check_thermal_throttlingNtB5_6Common7is_done
FN:74,_RNvMs4_NtNtNtNtCslGh6CY2EcXh_14darwin_metrics8hardware5iokit22___mock_MockIOKit_IOKit26___check_thermal_throttlingNtB5_6Common7matches
FN:74,_RNvMs6_NtNtNtNtCslGh6CY2EcXh_14darwin_metrics8hardware5iokit22___mock_MockIOKit_IOKit26___check_thermal_throttlingNtB5_11Expectation7is_done
FN:74,_RNvMs6_NtNtNtNtCslGh6CY2EcXh_14darwin_metrics8hardware5iokit22___mock_MockIOKit_IOKit26___check_thermal_throttlingNtB5_11Expectation7matches
FN:74,_RNvMs8_NtNtNtNtCslGh6CY2EcXh_14darwin_metrics8hardware5iokit22___mock_MockIOKit_IOKit26___check_thermal_throttlingNtB5_12Expectations3new
FN:74,_RNvMs8_NtNtNtNtCslGh6CY2EcXh_14darwin_metrics8hardware5iokit22___mock_MockIOKit_IOKit26___check_thermal_throttlingNtB5_12Expectations6expect
FN:74,_RNvXs1_NtNtNtNtCslGh6CY2EcXh_14darwin_metrics8hardware5iokit22___mock_MockIOKit_IOKit26___check_thermal_throttlingNtB5_7MatcherNtNtCs4P3ALgZxGbJ_4core7default7Default7default
FN:74,_RNvXs3_NtNtNtNtCslGh6CY2EcXh_14darwin_metrics8hardware5iokit22___mock_MockIOKit_IOKit26___check_thermal_throttlingNtB5_6CommonNtNtCs4P3ALgZxGbJ_4core7default7Default7default
FN:74,_RNvXs7_NtNtNtNtCslGh6CY2EcXh_14darwin_metrics8hardware5iokit22___mock_MockIOKit_IOKit26___check_thermal_throttlingNtB5_11ExpectationNtNtCs4P3ALgZxGbJ_4core7default7Default7default
FN:74,_RNvXs9_NtNtNtNtCslGh6CY2EcXh_14darwin_metrics8hardware5iokit22___mock_MockIOKit_IOKit26___check_thermal_throttlingNtB5_12ExpectationsNtNtCs4P3ALgZxGbJ_4core7default7Default7default
FN:74,_RNvXs_NtNtNtNtCslGh6CY2EcXh_14darwin_metrics8hardware5iokit22___mock_MockIOKit_IOKit26___check_thermal_throttlingNtB4_5RfuncNtNtCs4P3ALgZxGbJ_4core7default7Default7default
FN:1311,_RNvNtNtNtCslGh6CY2EcXh_14darwin_metrics8hardware5iokit5testss_16test_get_service
FN:1476,_RNvNtNtNtCslGh6CY2EcXh_14darwin_metrics8hardware5iokit5testss_17test_get_all_fans
FN:1249,_RNvNtNtNtCslGh6CY2EcXh_14darwin_metrics8hardware5iokit5testss_17test_get_fan_info
FN:1430,_RNvNtNtNtCslGh6CY2EcXh_14darwin_metrics8hardware5iokit5testss_17test_read_smc_key
FN:1392,_RNvNtNtNtCslGh6CY2EcXh_14darwin_metrics8hardware5iokit5testss_18test_get_cpu_power
FN:1446,_RNvNtNtNtCslGh6CY2EcXh_14darwin_metrics8hardware5iokit5testss_18test_get_fan_count
FN:1461,_RNvNtNtNtCslGh6CY2EcXh_14darwin_metrics8hardware5iokit5testss_18test_get_fan_speed
FN:1003,_RNvNtNtNtCslGh6CY2EcXh_14darwin_metrics8hardware5iokit5testss_18test_get_gpu_stats
FN:1704,_RNvNtNtNtCslGh6CY2EcXh_14darwin_metrics8hardware5iokit5testss_19test_fan_info_clone
FN:1766,_RNvNtNtNtCslGh6CY2EcXh_14darwin_metrics8hardware5iokit5testss_19test_fan_info_debug
FN:1617,_RNvNtNtNtCslGh6CY2EcXh_14darwin_metrics8hardware5iokit5testss_19test_parse_smc_data
FN:1554,_RNvNtNtNtCslGh6CY2EcXh_14darwin_metrics8hardware5iokit5testss_20test_create_fan_keys
FN:1682,_RNvNtNtNtCslGh6CY2EcXh_14darwin_metrics8hardware5iokit5testss_20test_gpu_stats_clone
FN:1181,_RNvNtNtNtCslGh6CY2EcXh_14darwin_metrics8hardware5iokit5testss_21test_get_thermal_info
FN:1789,_RNvNtNtNtCslGh6CY2EcXh_14darwin_metrics8hardware5iokit5testss_21test_iokit_impl_debug
FN:1129,_RNvNtNtNtCslGh6CY2EcXh_14darwin_metrics8hardware5iokit5testss_22test_get_bool_property
FN:1155,_RNvNtNtNtCslGh6CY2EcXh_14darwin_metrics8hardware5iokit5testss_22test_get_dict_property
FN:1662,_RNvNtNtNtCslGh6CY2EcXh_14darwin_metrics8hardware5iokit5testss_22test_gpu_stats_default
FN:1498,_RNvNtNtNtCslGh6CY2EcXh_14darwin_metrics8hardware5iokit5testss_23test_get_all_fans_empty
FN:1780,_RNvNtNtNtCslGh6CY2EcXh_14darwin_metrics8hardware5iokit5testss_23test_iokit_impl_default
FN:960,_RNvNtNtNtCslGh6CY2EcXh_14darwin_metrics8hardware5iokit5testss_23test_smc_key_from_chars
FN:1944,_RNvNtNtNtCslGh6CY2EcXh_14darwin_metrics8hardware5iokit5testss_23test_smc_read_key_mocks
FN:1717,_RNvNtNtNtCslGh6CY2EcXh_14darwin_metrics8hardware5iokit5testss_23test_thermal_info_clone
FN:1741,_RNvNtNtNtCslGh6CY2EcXh_14darwin_metrics8hardware5iokit5testss_23test_thermal_info_debug
FN:973,_RNvNtNtNtCslGh6CY2EcXh_14darwin_metrics8hardware5iokit5testss_24test_get_cpu_temperature
FN:988,_RNvNtNtNtCslGh6CY2EcXh_14darwin_metrics8hardware5iokit5testss_24test_get_gpu_temperature
FN:1103,_RNvNtNtNtCslGh6CY2EcXh_14darwin_metrics8hardware5iokit5testss_24test_get_number_property
FN:1077,_RNvNtNtNtCslGh6CY2EcXh_14darwin_metrics8hardware5iokit5testss_24test_get_string_property
FN:1029,_RNvNtNtNtCslGh6CY2EcXh_14darwin_metrics8hardware5iokit5testss_24test_io_service_matching
FN:1592,_RNvNtNtNtCslGh6CY2EcXh_14darwin_metrics8hardware5iokit5testss_26test_fan_percentage_limits
FN:1362,_RNvNtNtNtCslGh6CY2EcXh_14darwin_metrics8hardware5iokit5testss_28test_get_ambient_temperature
FN:1377,_RNvNtNtNtCslGh6CY2EcXh_14darwin_metrics8hardware5iokit5testss_28test_get_battery_temperature
FN:1326,_RNvNtNtNtCslGh6CY2EcXh_14darwin_metrics8hardware5iokit5testss_28test_impl_get_service_safety
FN:1407,_RNvNtNtNtCslGh6CY2EcXh_14darwin_metrics8hardware5iokit5testss_29test_check_thermal_throttling
FN:1347,_RNvNtNtNtCslGh6CY2EcXh_14darwin_metrics8hardware5iokit5testss_29test_get_heatsink_temperature
FN:1569,_RNvNtNtNtCslGh6CY2EcXh_14darwin_metrics8hardware5iokit5testss_31test_fan_percentage_calculation
FN:1269,_RNvNtNtNtCslGh6CY2EcXh_14darwin_metrics8hardware5iokit5testss_31test_get_fan_info_min_max_equal
FN:1515,_RNvNtNtNtCslGh6CY2EcXh_14darwin_metrics8hardware5iokit5testss_33test_get_all_fans_partial_failure
FN:1295,_RNvNtNtNtCslGh6CY2EcXh_14darwin_metrics8hardware5iokit5testss_33test_io_registry_entry_get_parent
FN:1212,_RNvNtNtNtCslGh6CY2EcXh_14darwin_metrics8hardware5iokit5testss_35test_get_thermal_info_with_failures
FN:1043,_RNvNtNtNtCslGh6CY2EcXh_14darwin_metrics8hardware5iokit5testss_36test_io_service_get_matching_service
FN:1059,_RNvNtNtNtCslGh6CY2EcXh_14darwin_metrics8hardware5iokit5testss_43test_io_registry_entry_create_cf_properties
FN:74,_RNCNvMs0_NtNtNtNtCslGh6CY2EcXh_14darwin_metrics8hardware5iokit22___mock_MockIOKit_IOKit14___read_smc_keyNtB7_7Matcher7matches0Bf_
FN:74,_RNCNvMsa_NtNtNtNtCslGh6CY2EcXh_14darwin_metrics8hardware5iokit22___mock_MockIOKit_IOKit14___read_smc_keyNtB7_12Expectations4calls_0Bf_
FN:74,_RNvMs4_NtNtNtNtCslGh6CY2EcXh_14darwin_metrics8hardware5iokit22___mock_MockIOKit_IOKit14___read_smc_keyNtB5_6Common7is_done
FN:74,_RNvMs4_NtNtNtNtCslGh6CY2EcXh_14darwin_metrics8hardware5iokit22___mock_MockIOKit_IOKit14___read_smc_keyNtB5_6Common7matches
FN:74,_RNvMs6_NtNtNtNtCslGh6CY2EcXh_14darwin_metrics8hardware5iokit22___mock_MockIOKit_IOKit14___read_smc_keyNtB5_11Expectation7is_done
FN:74,_RNvMs6_NtNtNtNtCslGh6CY2EcXh_14darwin_metrics8hardware5iokit22___mock_MockIOKit_IOKit14___read_smc_keyNtB5_11Expectation7matches
FN:74,_RNvMs8_NtNtNtNtCslGh6CY2EcXh_14darwin_metrics8hardware5iokit22___mock_MockIOKit_IOKit14___read_smc_keyNtB5_12Expectations3new
FN:74,_RNvMs8_NtNtNtNtCslGh6CY2EcXh_14darwin_metrics8hardware5iokit22___mock_MockIOKit_IOKit14___read_smc_keyNtB5_12Expectations6expect
FN:74,_RNvXs1_NtNtNtNtCslGh6CY2EcXh_14darwin_metrics8hardware5iokit22___mock_MockIOKit_IOKit14___read_smc_keyNtB5_7MatcherNtNtCs4P3ALgZxGbJ_4core7default7Default7default
FN:74,_RNvXs3_NtNtNtNtCslGh6CY2EcXh_14darwin_metrics8hardware5iokit22___mock_MockIOKit_IOKit14___read_smc_keyNtB5_6CommonNtNtCs4P3ALgZxGbJ_4core7default7Default7default
FN:74,_RNvXs7_NtNtNtNtCslGh6CY2EcXh_14darwin_metrics8hardware5iokit22___mock_MockIOKit_IOKit14___read_smc_keyNtB5_11ExpectationNtNtCs4P3ALgZxGbJ_4core7default7Default7default
FN:74,_RNvXs9_NtNtNtNtCslGh6CY2EcXh_14darwin_metrics8hardware5iokit22___mock_MockIOKit_IOKit14___read_smc_keyNtB5_12ExpectationsNtNtCs4P3ALgZxGbJ_4core7default7Default7default
FN:74,_RNvXs_NtNtNtNtCslGh6CY2EcXh_14darwin_metrics8hardware5iokit22___mock_MockIOKit_IOKit14___read_smc_keyNtB4_5RfuncNtNtCs4P3ALgZxGbJ_4core7default7Default7default
FN:74,_RNCNvMs0_NtNtNtNtCslGh6CY2EcXh_14darwin_metrics8hardware5iokit22___mock_MockIOKit_IOKit19___get_bool_propertyNtB7_7Matcher7matches0Bf_
FN:74,_RNCNvMsa_NtNtNtNtCslGh6CY2EcXh_14darwin_metrics8hardware5iokit22___mock_MockIOKit_IOKit19___get_bool_propertyNtB7_12Expectations4calls_0Bf_
FN:74,_RNvMs4_NtNtNtNtCslGh6CY2EcXh_14darwin_metrics8hardware5iokit22___mock_MockIOKit_IOKit19___get_bool_propertyNtB5_6Common7is_done
FN:74,_RNvMs4_NtNtNtNtCslGh6CY2EcXh_14darwin_metrics8hardware5iokit22___mock_MockIOKit_IOKit19___get_bool_propertyNtB5_6Common7matches
FN:74,_RNvMs6_NtNtNtNtCslGh6CY2EcXh_14darwin_metrics8hardware5iokit22___mock_MockIOKit_IOKit19___get_bool_propertyNtB5_11Expectation7is_done
FN:74,_RNvMs6_NtNtNtNtCslGh6CY2EcXh_14darwin_metrics8hardware5iokit22___mock_MockIOKit_IOKit19___get_bool_propertyNtB5_11Expectation7matches
FN:74,_RNvMs8_NtNtNtNtCslGh6CY2EcXh_14darwin_metrics8hardware5iokit22___mock_MockIOKit_IOKit19___get_bool_propertyNtB5_12Expectations3new
FN:74,_RNvMs8_NtNtNtNtCslGh6CY2EcXh_14darwin_metrics8hardware5iokit22___mock_MockIOKit_IOKit19___get_bool_propertyNtB5_12Expectations6expect
FN:74,_RNvXs1_NtNtNtNtCslGh6CY2EcXh_14darwin_metrics8hardware5iokit22___mock_MockIOKit_IOKit19___get_bool_propertyNtB5_7MatcherNtNtCs4P3ALgZxGbJ_4core7default7Default7default
FN:74,_RNvXs3_NtNtNtNtCslGh6CY2EcXh_14darwin_metrics8hardware5iokit22___mock_MockIOKit_IOKit19___get_bool_propertyNtB5_6CommonNtNtCs4P3ALgZxGbJ_4core7default7Default7default
FN:74,_RNvXs7_NtNtNtNtCslGh6CY2EcXh_14darwin_metrics8hardware5iokit22___mock_MockIOKit_IOKit19___get_bool_propertyNtB5_11ExpectationNtNtCs4P3ALgZxGbJ_4core7default7Default7default
FN:74,_RNvXs9_NtNtNtNtCslGh6CY2EcXh_14darwin_metrics8hardware5iokit22___mock_MockIOKit_IOKit19___get_bool_propertyNtB5_12ExpectationsNtNtCs4P3ALgZxGbJ_4core7default7Default7default
FN:74,_RNvXs_NtNtNtNtCslGh6CY2EcXh_14darwin_metrics8hardware5iokit22___mock_MockIOKit_IOKit19___get_bool_propertyNtB4_5RfuncNtNtCs4P3ALgZxGbJ_4core7default7Default7default
FN:74,_RNCNvMs0_NtNtNtNtCslGh6CY2EcXh_14darwin_metrics8hardware5iokit22___mock_MockIOKit_IOKit21___get_gpu_temperatureNtB7_7Matcher7matches0Bf_
FN:74,_RNCNvMsa_NtNtNtNtCslGh6CY2EcXh_14darwin_metrics8hardware5iokit22___mock_MockIOKit_IOKit21___get_gpu_temperatureNtB7_12Expectations4calls_0Bf_
FN:74,_RNvMs4_NtNtNtNtCslGh6CY2EcXh_14darwin_metrics8hardware5iokit22___mock_MockIOKit_IOKit21___get_gpu_temperatureNtB5_6Common7is_done
FN:74,_RNvMs4_NtNtNtNtCslGh6CY2EcXh_14darwin_metrics8hardware5iokit22___mock_MockIOKit_IOKit21___get_gpu_temperatureNtB5_6Common7matches
FN:74,_RNvMs6_NtNtNtNtCslGh6CY2EcXh_14darwin_metrics8hardware5iokit22___mock_MockIOKit_IOKit21___get_gpu_temperatureNtB5_11Expectation7is_done
FN:74,_RNvMs6_NtNtNtNtCslGh6CY2EcXh_14darwin_metrics8hardware5iokit22___mock_MockIOKit_IOKit21___get_gpu_temperatureNtB5_11Expectation7matches
FN:74,_RNvMs8_NtNtNtNtCslGh6CY2EcXh_14darwin_metrics8hardware5iokit22___mock_MockIOKit_IOKit21___get_gpu_temperatureNtB5_12Expectations3new
FN:74,_RNvMs8_NtNtNtNtCslGh6CY2EcXh_14darwin_metrics8hardware5iokit22___mock_MockIOKit_IOKit21___get_gpu_temperatureNtB5_12Expectations6expect
FN:74,_RNvXs1_NtNtNtNtCslGh6CY2EcXh_14darwin_metrics8hardware5iokit22___mock_MockIOKit_IOKit21___get_gpu_temperatureNtB5_7MatcherNtNtCs4P3ALgZxGbJ_4core7default7Default7default
FN:74,_RNvXs3_NtNtNtNtCslGh6CY2EcXh_14darwin_metrics8hardware5iokit22___mock_MockIOKit_IOKit21___get_gpu_temperatureNtB5_6CommonNtNtCs4P3ALgZxGbJ_4core7default7Default7default
FN:74,_RNvXs7_NtNtNtNtCslGh6CY2EcXh_14darwin_metrics8hardware5iokit22___mock_MockIOKit_IOKit21___get_gpu_temperatureNtB5_11ExpectationNtNtCs4P3ALgZxGbJ_4core7default7Default7default
FN:74,_RNvXs9_NtNtNtNtCslGh6CY2EcXh_14darwin_metrics8hardware5iokit22___mock_MockIOKit_IOKit21___get_gpu_temperatureNtB5_12ExpectationsNtNtCs4P3ALgZxGbJ_4core7default7Default7default
FN:74,_RNvXs_NtNtNtNtCslGh6CY2EcXh_14darwin_metrics8hardware5iokit22___mock_MockIOKit_IOKit21___get_gpu_temperatureNtB4_5RfuncNtNtCs4P3ALgZxGbJ_4core7default7Default7default
FN:74,_RINvMs6_NtNtNtNtCslGh6CY2EcXh_14darwin_metrics8hardware5iokit22___mock_MockIOKit_IOKit25___get_ambient_temperatureNtB6_11Expectation9returningNCNvNtBa_5testss_28test_get_ambient_temperature0EBe_
FN:1367,_RNCNvNtNtNtCslGh6CY2EcXh_14darwin_metrics8hardware5iokit5testss_28test_get_ambient_temperature0B9_
FN:74,_RNCNvMs0_NtNtNtNtCslGh6CY2EcXh_14darwin_metrics8hardware5iokit22___mock_MockIOKit_IOKit15___get_cpu_powerNtB7_7Matcher7matches0Bf_
FN:74,_RNCNvMsa_NtNtNtNtCslGh6CY2EcXh_14darwin_metrics8hardware5iokit22___mock_MockIOKit_IOKit15___get_cpu_powerNtB7_12Expectations4calls_0Bf_
FN:74,_RNvMs4_NtNtNtNtCslGh6CY2EcXh_14darwin_metrics8hardware5iokit22___mock_MockIOKit_IOKit15___get_cpu_powerNtB5_6Common7is_done
FN:74,_RNvMs4_NtNtNtNtCslGh6CY2EcXh_14darwin_metrics8hardware5iokit22___mock_MockIOKit_IOKit15___get_cpu_powerNtB5_6Common7matches
FN:74,_RNvMs6_NtNtNtNtCslGh6CY2EcXh_14darwin_metrics8hardware5iokit22___mock_MockIOKit_IOKit15___get_cpu_powerNtB5_11Expectation7is_done
FN:74,_RNvMs6_NtNtNtNtCslGh6CY2EcXh_14darwin_metrics8hardware5iokit22___mock_MockIOKit_IOKit15___get_cpu_powerNtB5_11Expectation7matches
FN:74,_RNvMs8_NtNtNtNtCslGh6CY2EcXh_14darwin_metrics8hardware5iokit22___mock_MockIOKit_IOKit15___get_cpu_powerNtB5_12Expectations3new
FN:74,_RNvMs8_NtNtNtNtCslGh6CY2EcXh_14darwin_metrics8hardware5iokit22___mock_MockIOKit_IOKit15___get_cpu_powerNtB5_12Expectations6expect
FN:74,_RNvXs1_NtNtNtNtCslGh6CY2EcXh_14darwin_metrics8hardware5iokit22___mock_MockIOKit_IOKit15___get_cpu_powerNtB5_7MatcherNtNtCs4P3ALgZxGbJ_4core7default7Default7default
FN:74,_RNvXs3_NtNtNtNtCslGh6CY2EcXh_14darwin_metrics8hardware5iokit22___mock_MockIOKit_IOKit15___get_cpu_powerNtB5_6CommonNtNtCs4P3ALgZxGbJ_4core7default7Default7default
FN:74,_RNvXs7_NtNtNtNtCslGh6CY2EcXh_14darwin_metrics8hardware5iokit22___mock_MockIOKit_IOKit15___get_cpu_powerNtB5_11ExpectationNtNtCs4P3ALgZxGbJ_4core7default7Default7default
FN:74,_RNvXs9_NtNtNtNtCslGh6CY2EcXh_14darwin_metrics8hardware5iokit22___mock_MockIOKit_IOKit15___get_cpu_powerNtB5_12ExpectationsNtNtCs4P3ALgZxGbJ_4core7default7Default7default
FN:74,_RNvXs_NtNtNtNtCslGh6CY2EcXh_14darwin_metrics8hardware5iokit22___mock_MockIOKit_IOKit15___get_cpu_powerNtB4_5RfuncNtNtCs4P3ALgZxGbJ_4core7default7Default7default
FN:74,_RINvMs6_NtNtNtNtCslGh6CY2EcXh_14darwin_metrics8hardware5iokit22___mock_MockIOKit_IOKit33___io_service_get_matching_serviceNtB6_11Expectation9returningNCNvNtBa_5testss_36test_io_service_get_matching_service0EBe_
FN:1049,_RNCNvNtNtNtCslGh6CY2EcXh_14darwin_metrics8hardware5iokit5testss_36test_io_service_get_matching_service0B9_
FN:74,_RNCNvMs0_NtNtNtNtCslGh6CY2EcXh_14darwin_metrics8hardware5iokit22___mock_MockIOKit_IOKit21___get_cpu_temperatureNtB7_7Matcher7matches0Bf_
FN:74,_RNCNvMsa_NtNtNtNtCslGh6CY2EcXh_14darwin_metrics8hardware5iokit22___mock_MockIOKit_IOKit21___get_cpu_temperatureNtB7_12Expectations4calls_0Bf_
FN:74,_RNvMs4_NtNtNtNtCslGh6CY2EcXh_14darwin_metrics8hardware5iokit22___mock_MockIOKit_IOKit21___get_cpu_temperatureNtB5_6Common7is_done
FN:74,_RNvMs4_NtNtNtNtCslGh6CY2EcXh_14darwin_metrics8hardware5iokit22___mock_MockIOKit_IOKit21___get_cpu_temperatureNtB5_6Common7matches
FN:74,_RNvMs6_NtNtNtNtCslGh6CY2EcXh_14darwin_metrics8hardware5iokit22___mock_MockIOKit_IOKit21___get_cpu_temperatureNtB5_11Expectation7is_done
FN:74,_RNvMs6_NtNtNtNtCslGh6CY2EcXh_14darwin_metrics8hardware5iokit22___mock_MockIOKit_IOKit21___get_cpu_temperatureNtB5_11Expectation7matches
FN:74,_RNvMs8_NtNtNtNtCslGh6CY2EcXh_14darwin_metrics8hardware5iokit22___mock_MockIOKit_IOKit21___get_cpu_temperatureNtB5_12Expectations3new
FN:74,_RNvMs8_NtNtNtNtCslGh6CY2EcXh_14darwin_metrics8hardware5iokit22___mock_MockIOKit_IOKit21___get_cpu_temperatureNtB5_12Expectations6expect
FN:74,_RNvXs1_NtNtNtNtCslGh6CY2EcXh_14darwin_metrics8hardware5iokit22___mock_MockIOKit_IOKit21___get_cpu_temperatureNtB5_7MatcherNtNtCs4P3ALgZxGbJ_4core7default7Default7default
FN:74,_RNvXs3_NtNtNtNtCslGh6CY2EcXh_14darwin_metrics8hardware5iokit22___mock_MockIOKit_IOKit21___get_cpu_temperatureNtB5_6CommonNtNtCs4P3ALgZxGbJ_4core7default7Default7default
FN:74,_RNvXs7_NtNtNtNtCslGh6CY2EcXh_14darwin_metrics8hardware5iokit22___mock_MockIOKit_IOKit21___get_cpu_temperatureNtB5_11ExpectationNtNtCs4P3ALgZxGbJ_4core7default7Default7default
FN:74,_RNvXs9_NtNtNtNtCslGh6CY2EcXh_14darwin_metrics8hardware5iokit22___mock_MockIOKit_IOKit21___get_cpu_temperatureNtB5_12ExpectationsNtNtCs4P3ALgZxGbJ_4core7default7Default7default
FN:74,_RNvXs_NtNtNtNtCslGh6CY2EcXh_14darwin_metrics8hardware5iokit22___mock_MockIOKit_IOKit21___get_cpu_temperatureNtB4_5RfuncNtNtCs4P3ALgZxGbJ_4core7default7Default7default
FN:74,_RNCNvMs0_NtNtNtNtCslGh6CY2EcXh_14darwin_metrics8hardware5iokit22___mock_MockIOKit_IOKit21___get_number_propertyNtB7_7Matcher7matches0Bf_
FN:74,_RNCNvMsa_NtNtNtNtCslGh6CY2EcXh_14darwin_metrics8hardware5iokit22___mock_MockIOKit_IOKit21___get_number_propertyNtB7_12Expectations4calls_0Bf_
FN:74,_RNvMs4_NtNtNtNtCslGh6CY2EcXh_14darwin_metrics8hardware5iokit22___mock_MockIOKit_IOKit21___get_number_propertyNtB5_6Common7is_done
FN:74,_RNvMs4_NtNtNtNtCslGh6CY2EcXh_14darwin_metrics8hardware5iokit22___mock_MockIOKit_IOKit21___get_number_propertyNtB5_6Common7matches
FN:74,_RNvMs6_NtNtNtNtCslGh6CY2EcXh_14darwin_metrics8hardware5iokit22___mock_MockIOKit_IOKit21___get_number_propertyNtB5_11Expectation7is_done
FN:74,_RNvMs6_NtNtNtNtCslGh6CY2EcXh_14darwin_metrics8hardware5iokit22___mock_MockIOKit_IOKit21___get_number_propertyNtB5_11Expectation7matches
FN:74,_RNvMs8_NtNtNtNtCslGh6CY2EcXh_14darwin_metrics8hardware5iokit22___mock_MockIOKit_IOKit21___get_number_propertyNtB5_12Expectations3new
FN:74,_RNvMs8_NtNtNtNtCslGh6CY2EcXh_14darwin_metrics8hardware5iokit22___mock_MockIOKit_IOKit21___get_number_propertyNtB5_12Expectations6expect
FN:74,_RNvXs1_NtNtNtNtCslGh6CY2EcXh_14darwin_metrics8hardware5iokit22___mock_MockIOKit_IOKit21___get_number_propertyNtB5_7MatcherNtNtCs4P3ALgZxGbJ_4core7default7Default7default
FN:74,_RNvXs3_NtNtNtNtCslGh6CY2EcXh_14darwin_metrics8hardware5iokit22___mock_MockIOKit_IOKit21___get_number_propertyNtB5_6CommonNtNtCs4P3ALgZxGbJ_4core7default7Default7default
FN:74,_RNvXs7_NtNtNtNtCslGh6CY2EcXh_14darwin_metrics8hardware5iokit22___mock_MockIOKit_IOKit21___get_number_propertyNtB5_11ExpectationNtNtCs4P3ALgZxGbJ_4core7default7Default7default
FN:74,_RNvXs9_NtNtNtNtCslGh6CY2EcXh_14darwin_metrics8hardware5iokit22___mock_MockIOKit_IOKit21___get_number_propertyNtB5_12ExpectationsNtNtCs4P3ALgZxGbJ_4core7default7Default7default
FN:74,_RNvXs_NtNtNtNtCslGh6CY2EcXh_14darwin_metrics8hardware5iokit22___mock_MockIOKit_IOKit21___get_number_propertyNtB4_5RfuncNtNtCs4P3ALgZxGbJ_4core7default7Default7default
FN:74,_RINvMs6_NtNtNtNtCslGh6CY2EcXh_14darwin_metrics8hardware5iokit22___mock_MockIOKit_IOKit26___get_heatsink_temperatureNtB6_11Expectation9returningNCNvNtBa_5testss_29test_get_heatsink_temperature0EBe_
FN:1352,_RNCNvNtNtNtCslGh6CY2EcXh_14darwin_metrics8hardware5iokit5testss_29test_get_heatsink_temperature0B9_
FN:74,_RNCNvMs0_NtNtNtNtCslGh6CY2EcXh_14darwin_metrics8hardware5iokit22___mock_MockIOKit_IOKit40___io_registry_entry_create_cf_propertiesNtB7_7Matcher7matches0Bf_
FN:74,_RNCNvMsa_NtNtNtNtCslGh6CY2EcXh_14darwin_metrics8hardware5iokit22___mock_MockIOKit_IOKit40___io_registry_entry_create_cf_propertiesNtB7_12Expectations4calls_0Bf_
FN:74,_RNvMs4_NtNtNtNtCslGh6CY2EcXh_14darwin_metrics8hardware5iokit22___mock_MockIOKit_IOKit40___io_registry_entry_create_cf_propertiesNtB5_6Common7is_done
FN:74,_RNvMs4_NtNtNtNtCslGh6CY2EcXh_14darwin_metrics8hardware5iokit22___mock_MockIOKit_IOKit40___io_registry_entry_create_cf_propertiesNtB5_6Common7matches
FN:74,_RNvMs6_NtNtNtNtCslGh6CY2EcXh_14darwin_metrics8hardware5iokit22___mock_MockIOKit_IOKit40___io_registry_entry_create_cf_propertiesNtB5_11Expectation7is_done
FN:74,_RNvMs6_NtNtNtNtCslGh6CY2EcXh_14darwin_metrics8hardware5iokit22___mock_MockIOKit_IOKit40___io_registry_entry_create_cf_propertiesNtB5_11Expectation7matches
FN:74,_RNvMs8_NtNtNtNtCslGh6CY2EcXh_14darwin_metrics8hardware5iokit22___mock_MockIOKit_IOKit40___io_registry_entry_create_cf_propertiesNtB5_12Expectations3new
FN:74,_RNvMs8_NtNtNtNtCslGh6CY2EcXh_14darwin_metrics8hardware5iokit22___mock_MockIOKit_IOKit40___io_registry_entry_create_cf_propertiesNtB5_12Expectations6expect
FN:74,_RNvXs1_NtNtNtNtCslGh6CY2EcXh_14darwin_metrics8hardware5iokit22___mock_MockIOKit_IOKit40___io_registry_entry_create_cf_propertiesNtB5_7MatcherNtNtCs4P3ALgZxGbJ_4core7default7Default7default
FN:74,_RNvXs3_NtNtNtNtCslGh6CY2EcXh_14darwin_metrics8hardware5iokit22___mock_MockIOKit_IOKit40___io_registry_entry_create_cf_propertiesNtB5_6CommonNtNtCs4P3ALgZxGbJ_4core7default7Default7default
FN:74,_RNvXs7_NtNtNtNtCslGh6CY2EcXh_14darwin_metrics8hardware5iokit22___mock_MockIOKit_IOKit40___io_registry_entry_create_cf_propertiesNtB5_11ExpectationNtNtCs4P3ALgZxGbJ_4core7default7Default7default
FN:74,_RNvXs9_NtNtNtNtCslGh6CY2EcXh_14darwin_metrics8hardware5iokit22___mock_MockIOKit_IOKit40___io_registry_entry_create_cf_propertiesNtB5_12ExpectationsNtNtCs4P3ALgZxGbJ_4core7default7Default7default
FN:74,_RNvXs_NtNtNtNtCslGh6CY2EcXh_14darwin_metrics8hardware5iokit22___mock_MockIOKit_IOKit40___io_registry_entry_create_cf_propertiesNtB4_5RfuncNtNtCs4P3ALgZxGbJ_4core7default7Default7default
FN:74,_RINvMs6_NtNtNtNtCslGh6CY2EcXh_14darwin_metrics8hardware5iokit22___mock_MockIOKit_IOKit19___get_dict_propertyNtB6_11Expectation9returningNCNvNtBa_5testss_22test_get_dict_property0EBe_
FN:1161,_RNCNvNtNtNtCslGh6CY2EcXh_14darwin_metrics8hardware5iokit5testss_22test_get_dict_property0B9_
FN:74,_RNCNvMs0_NtNtNtNtCslGh6CY2EcXh_14darwin_metrics8hardware5iokit22___mock_MockIOKit_IOKit21___get_string_propertyNtB7_7Matcher7matches0Bf_
FN:74,_RNCNvMsa_NtNtNtNtCslGh6CY2EcXh_14darwin_metrics8hardware5iokit22___mock_MockIOKit_IOKit21___get_string_propertyNtB7_12Expectations4calls_0Bf_
FN:74,_RNvMs4_NtNtNtNtCslGh6CY2EcXh_14darwin_metrics8hardware5iokit22___mock_MockIOKit_IOKit21___get_string_propertyNtB5_6Common7is_done
FN:74,_RNvMs4_NtNtNtNtCslGh6CY2EcXh_14darwin_metrics8hardware5iokit22___mock_MockIOKit_IOKit21___get_string_propertyNtB5_6Common7matches
FN:74,_RNvMs6_NtNtNtNtCslGh6CY2EcXh_14darwin_metrics8hardware5iokit22___mock_MockIOKit_IOKit21___get_string_propertyNtB5_11Expectation7is_done
FN:74,_RNvMs6_NtNtNtNtCslGh6CY2EcXh_14darwin_metrics8hardware5iokit22___mock_MockIOKit_IOKit21___get_string_propertyNtB5_11Expectation7matches
FN:74,_RNvMs8_NtNtNtNtCslGh6CY2EcXh_14darwin_metrics8hardware5iokit22___mock_MockIOKit_IOKit21___get_string_propertyNtB5_12Expectations3new
FN:74,_RNvMs8_NtNtNtNtCslGh6CY2EcXh_14darwin_metrics8hardware5iokit22___mock_MockIOKit_IOKit21___get_string_propertyNtB5_12Expectations6expect
FN:74,_RNvXs1_NtNtNtNtCslGh6CY2EcXh_14darwin_metrics8hardware5iokit22___mock_MockIOKit_IOKit21___get_string_propertyNtB5_7MatcherNtNtCs4P3ALgZxGbJ_4core7default7Default7default
FN:74,_RNvXs3_NtNtNtNtCslGh6CY2EcXh_14darwin_metrics8hardware5iokit22___mock_MockIOKit_IOKit21___get_string_propertyNtB5_6CommonNtNtCs4P3ALgZxGbJ_4core7default7Default7default
FN:74,_RNvXs7_NtNtNtNtCslGh6CY2EcXh_14darwin_metrics8hardware5iokit22___mock_MockIOKit_IOKit21___get_string_propertyNtB5_11ExpectationNtNtCs4P3ALgZxGbJ_4core7default7Default7default
FN:74,_RNvXs9_NtNtNtNtCslGh6CY2EcXh_14darwin_metrics8hardware5iokit22___mock_MockIOKit_IOKit21___get_string_propertyNtB5_12ExpectationsNtNtCs4P3ALgZxGbJ_4core7default7Default7default
FN:74,_RNvXs_NtNtNtNtCslGh6CY2EcXh_14darwin_metrics8hardware5iokit22___mock_MockIOKit_IOKit21___get_string_propertyNtB4_5RfuncNtNtCs4P3ALgZxGbJ_4core7default7Default7default
FN:74,_RINvMs6_NtNtNtNtCslGh6CY2EcXh_14darwin_metrics8hardware5iokit22___mock_MockIOKit_IOKit13___get_serviceNtB6_11Expectation9returningNCNvMNtNtNtBc_3cpu8cpu_impl5testsNtB2b_3CPU13new_with_mocks_0EBe_
FN:74,_RINvMs6_NtNtNtNtCslGh6CY2EcXh_14darwin_metrics8hardware5iokit22___mock_MockIOKit_IOKit13___get_serviceNtB6_11Expectation9returningNCNvNtBa_5testss_16test_get_service0EBe_
FN:1316,_RNCNvNtNtNtCslGh6CY2EcXh_14darwin_metrics8hardware5iokit5testss_16test_get_service0B9_
FN:74,_RNCNvMs0_NtNtNtNtCslGh6CY2EcXh_14darwin_metrics8hardware5iokit22___mock_MockIOKit_IOKit33___io_service_get_matching_serviceNtB7_7Matcher7matches0Bf_
FN:74,_RNCNvMsa_NtNtNtNtCslGh6CY2EcXh_14darwin_metrics8hardware5iokit22___mock_MockIOKit_IOKit33___io_service_get_matching_serviceNtB7_12Expectations4calls_0Bf_
FN:74,_RNvMs4_NtNtNtNtCslGh6CY2EcXh_14darwin_metrics8hardware5iokit22___mock_MockIOKit_IOKit33___io_service_get_matching_serviceNtB5_6Common7is_done
FN:74,_RNvMs4_NtNtNtNtCslGh6CY2EcXh_14darwin_metrics8hardware5iokit22___mock_MockIOKit_IOKit33___io_service_get_matching_serviceNtB5_6Common7matches
FN:74,_RNvMs6_NtNtNtNtCslGh6CY2EcXh_14darwin_metrics8hardware5iokit22___mock_MockIOKit_IOKit33___io_service_get_matching_serviceNtB5_11Expectation7is_done
FN:74,_RNvMs6_NtNtNtNtCslGh6CY2EcXh_14darwin_metrics8hardware5iokit22___mock_MockIOKit_IOKit33___io_service_get_matching_serviceNtB5_11Expectation7matches
FN:74,_RNvMs8_NtNtNtNtCslGh6CY2EcXh_14darwin_metrics8hardware5iokit22___mock_MockIOKit_IOKit33___io_service_get_matching_serviceNtB5_12Expectations3new
FN:74,_RNvMs8_NtNtNtNtCslGh6CY2EcXh_14darwin_metrics8hardware5iokit22___mock_MockIOKit_IOKit33___io_service_get_matching_serviceNtB5_12Expectations6expect
FN:74,_RNvXs1_NtNtNtNtCslGh6CY2EcXh_14darwin_metrics8hardware5iokit22___mock_MockIOKit_IOKit33___io_service_get_matching_serviceNtB5_7MatcherNtNtCs4P3ALgZxGbJ_4core7default7Default7default
FN:74,_RNvXs3_NtNtNtNtCslGh6CY2EcXh_14darwin_metrics8hardware5iokit22___mock_MockIOKit_IOKit33___io_service_get_matching_serviceNtB5_6CommonNtNtCs4P3ALgZxGbJ_4core7default7Default7default
FN:74,_RNvXs7_NtNtNtNtCslGh6CY2EcXh_14darwin_metrics8hardware5iokit22___mock_MockIOKit_IOKit33___io_service_get_matching_serviceNtB5_11ExpectationNtNtCs4P3ALgZxGbJ_4core7default7Default7default
FN:74,_RNvXs9_NtNtNtNtCslGh6CY2EcXh_14darwin_metrics8hardware5iokit22___mock_MockIOKit_IOKit33___io_service_get_matching_serviceNtB5_12ExpectationsNtNtCs4P3ALgZxGbJ_4core7default7Default7default
FN:74,_RNvXs_NtNtNtNtCslGh6CY2EcXh_14darwin_metrics8hardware5iokit22___mock_MockIOKit_IOKit33___io_service_get_matching_serviceNtB4_5RfuncNtNtCs4P3ALgZxGbJ_4core7default7Default7default
FN:74,_RINvMs4_NtNtNtNtCslGh6CY2EcXh_14darwin_metrics8hardware5iokit22___mock_MockIOKit_IOKit13___get_serviceNtB6_6Common4withpEBe_
FN:74,_RINvMs4_NtNtNtNtCslGh6CY2EcXh_14darwin_metrics8hardware5iokit22___mock_MockIOKit_IOKit13___get_serviceNtB6_6Common5timespEBe_
FN:74,_RINvMs4_NtNtNtNtCslGh6CY2EcXh_14darwin_metrics8hardware5iokit22___mock_MockIOKit_IOKit13___get_serviceNtB6_6Common5withfpEBe_
FN:74,_RINvMs4_NtNtNtNtCslGh6CY2EcXh_14darwin_metrics8hardware5iokit22___mock_MockIOKit_IOKit13___get_serviceNtB6_6Common8withf_stpEBe_
FN:74,_RINvMs4_NtNtNtNtCslGh6CY2EcXh_14darwin_metrics8hardware5iokit22___mock_MockIOKit_IOKit14___get_all_fansNtB6_6Common5timespEBe_
FN:74,_RINvMs4_NtNtNtNtCslGh6CY2EcXh_14darwin_metrics8hardware5iokit22___mock_MockIOKit_IOKit14___get_all_fansNtB6_6Common5withfpEBe_
FN:74,_RINvMs4_NtNtNtNtCslGh6CY2EcXh_14darwin_metrics8hardware5iokit22___mock_MockIOKit_IOKit14___get_all_fansNtB6_6Common8withf_stpEBe_
FN:74,_RINvMs4_NtNtNtNtCslGh6CY2EcXh_14darwin_metrics8hardware5iokit22___mock_MockIOKit_IOKit14___get_fan_infoNtB6_6Common5timespEBe_
FN:74,_RINvMs4_NtNtNtNtCslGh6CY2EcXh_14darwin_metrics8hardware5iokit22___mock_MockIOKit_IOKit14___get_fan_infoNtB6_6Common5withfpEBe_
FN:74,_RINvMs4_NtNtNtNtCslGh6CY2EcXh_14darwin_metrics8hardware5iokit22___mock_MockIOKit_IOKit14___get_fan_infoNtB6_6Common8withf_stpEBe_
FN:74,_RINvMs4_NtNtNtNtCslGh6CY2EcXh_14darwin_metrics8hardware5iokit22___mock_MockIOKit_IOKit14___read_smc_keyNtB6_6Common5timespEBe_
FN:74,_RINvMs4_NtNtNtNtCslGh6CY2EcXh_14darwin_metrics8hardware5iokit22___mock_MockIOKit_IOKit14___read_smc_keyNtB6_6Common5withfpEBe_
FN:74,_RINvMs4_NtNtNtNtCslGh6CY2EcXh_14darwin_metrics8hardware5iokit22___mock_MockIOKit_IOKit14___read_smc_keyNtB6_6Common8withf_stpEBe_
FN:74,_RINvMs4_NtNtNtNtCslGh6CY2EcXh_14darwin_metrics8hardware5iokit22___mock_MockIOKit_IOKit15___get_cpu_powerNtB6_6Common5timespEBe_
FN:74,_RINvMs4_NtNtNtNtCslGh6CY2EcXh_14darwin_metrics8hardware5iokit22___mock_MockIOKit_IOKit15___get_cpu_powerNtB6_6Common5withfpEBe_
FN:74,_RINvMs4_NtNtNtNtCslGh6CY2EcXh_14darwin_metrics8hardware5iokit22___mock_MockIOKit_IOKit15___get_cpu_powerNtB6_6Common8withf_stpEBe_
FN:74,_RINvMs4_NtNtNtNtCslGh6CY2EcXh_14darwin_metrics8hardware5iokit22___mock_MockIOKit_IOKit15___get_fan_countNtB6_6Common5timespEBe_
FN:74,_RINvMs4_NtNtNtNtCslGh6CY2EcXh_14darwin_metrics8hardware5iokit22___mock_MockIOKit_IOKit15___get_fan_countNtB6_6Common5withfpEBe_
FN:74,_RINvMs4_NtNtNtNtCslGh6CY2EcXh_14darwin_metrics8hardware5iokit22___mock_MockIOKit_IOKit15___get_fan_countNtB6_6Common8withf_stpEBe_
FN:74,_RINvMs4_NtNtNtNtCslGh6CY2EcXh_14darwin_metrics8hardware5iokit22___mock_MockIOKit_IOKit15___get_fan_speedNtB6_6Common5timespEBe_
FN:74,_RINvMs4_NtNtNtNtCslGh6CY2EcXh_14darwin_metrics8hardware5iokit22___mock_MockIOKit_IOKit15___get_fan_speedNtB6_6Common5withfpEBe_
FN:74,_RINvMs4_NtNtNtNtCslGh6CY2EcXh_14darwin_metrics8hardware5iokit22___mock_MockIOKit_IOKit15___get_fan_speedNtB6_6Common8withf_stpEBe_
FN:74,_RINvMs4_NtNtNtNtCslGh6CY2EcXh_14darwin_metrics8hardware5iokit22___mock_MockIOKit_IOKit15___get_gpu_statsNtB6_6Common5timespEBe_
FN:74,_RINvMs4_NtNtNtNtCslGh6CY2EcXh_14darwin_metrics8hardware5iokit22___mock_MockIOKit_IOKit15___get_gpu_statsNtB6_6Common5withfpEBe_
FN:74,_RINvMs4_NtNtNtNtCslGh6CY2EcXh_14darwin_metrics8hardware5iokit22___mock_MockIOKit_IOKit15___get_gpu_statsNtB6_6Common8withf_stpEBe_
FN:74,_RINvMs4_NtNtNtNtCslGh6CY2EcXh_14darwin_metrics8hardware5iokit22___mock_MockIOKit_IOKit18___get_thermal_infoNtB6_6Common5timespEBe_
FN:74,_RINvMs4_NtNtNtNtCslGh6CY2EcXh_14darwin_metrics8hardware5iokit22___mock_MockIOKit_IOKit18___get_thermal_infoNtB6_6Common5withfpEBe_
FN:74,_RINvMs4_NtNtNtNtCslGh6CY2EcXh_14darwin_metrics8hardware5iokit22___mock_MockIOKit_IOKit18___get_thermal_infoNtB6_6Common8withf_stpEBe_
FN:74,_RINvMs4_NtNtNtNtCslGh6CY2EcXh_14darwin_metrics8hardware5iokit22___mock_MockIOKit_IOKit19___get_bool_propertyNtB6_6Common4withppEBe_
FN:74,_RINvMs4_NtNtNtNtCslGh6CY2EcXh_14darwin_metrics8hardware5iokit22___mock_MockIOKit_IOKit19___get_bool_propertyNtB6_6Common5timespEBe_
FN:74,_RINvMs4_NtNtNtNtCslGh6CY2EcXh_14darwin_metrics8hardware5iokit22___mock_MockIOKit_IOKit19___get_bool_propertyNtB6_6Common5withfpEBe_
FN:74,_RINvMs4_NtNtNtNtCslGh6CY2EcXh_14darwin_metrics8hardware5iokit22___mock_MockIOKit_IOKit19___get_bool_propertyNtB6_6Common8withf_stpEBe_
FN:74,_RINvMs4_NtNtNtNtCslGh6CY2EcXh_14darwin_metrics8hardware5iokit22___mock_MockIOKit_IOKit19___get_dict_propertyNtB6_6Common4withppEBe_
FN:74,_RINvMs4_NtNtNtNtCslGh6CY2EcXh_14darwin_metrics8hardware5iokit22___mock_MockIOKit_IOKit19___get_dict_propertyNtB6_6Common5timespEBe_
FN:74,_RINvMs4_NtNtNtNtCslGh6CY2EcXh_14darwin_metrics8hardware5iokit22___mock_MockIOKit_IOKit19___get_dict_propertyNtB6_6Common5withfpEBe_
FN:74,_RINvMs4_NtNtNtNtCslGh6CY2EcXh_14darwin_metrics8hardware5iokit22___mock_MockIOKit_IOKit19___get_dict_propertyNtB6_6Common8withf_stpEBe_
FN:74,_RINvMs4_NtNtNtNtCslGh6CY2EcXh_14darwin_metrics8hardware5iokit22___mock_MockIOKit_IOKit19___io_object_releaseNtB6_6Common4withpEBe_
FN:74,_RINvMs4_NtNtNtNtCslGh6CY2EcXh_14darwin_metrics8hardware5iokit22___mock_MockIOKit_IOKit19___io_object_releaseNtB6_6Common5timespEBe_
FN:74,_RINvMs4_NtNtNtNtCslGh6CY2EcXh_14darwin_metrics8hardware5iokit22___mock_MockIOKit_IOKit19___io_object_releaseNtB6_6Common5withfpEBe_
FN:74,_RINvMs4_NtNtNtNtCslGh6CY2EcXh_14darwin_metrics8hardware5iokit22___mock_MockIOKit_IOKit19___io_object_releaseNtB6_6Common8withf_stpEBe_
FN:74,_RINvMs4_NtNtNtNtCslGh6CY2EcXh_14darwin_metrics8hardware5iokit22___mock_MockIOKit_IOKit21___get_cpu_temperatureNtB6_6Common5timespEBe_
FN:74,_RINvMs4_NtNtNtNtCslGh6CY2EcXh_14darwin_metrics8hardware5iokit22___mock_MockIOKit_IOKit21___get_cpu_temperatureNtB6_6Common5withfpEBe_
FN:74,_RINvMs4_NtNtNtNtCslGh6CY2EcXh_14darwin_metrics8hardware5iokit22___mock_MockIOKit_IOKit21___get_cpu_temperatureNtB6_6Common8withf_stpEBe_
FN:74,_RINvMs4_NtNtNtNtCslGh6CY2EcXh_14darwin_metrics8hardware5iokit22___mock_MockIOKit_IOKit21___get_gpu_temperatureNtB6_6Common5timespEBe_
FN:74,_RINvMs4_NtNtNtNtCslGh6CY2EcXh_14darwin_metrics8hardware5iokit22___mock_MockIOKit_IOKit21___get_gpu_temperatureNtB6_6Common5withfpEBe_
FN:74,_RINvMs4_NtNtNtNtCslGh6CY2EcXh_14darwin_metrics8hardware5iokit22___mock_MockIOKit_IOKit21___get_gpu_temperatureNtB6_6Common8withf_stpEBe_
FN:74,_RINvMs4_NtNtNtNtCslGh6CY2EcXh_14darwin_metrics8hardware5iokit22___mock_MockIOKit_IOKit21___get_number_propertyNtB6_6Common4withppEBe_
FN:74,_RINvMs4_NtNtNtNtCslGh6CY2EcXh_14darwin_metrics8hardware5iokit22___mock_MockIOKit_IOKit21___get_number_propertyNtB6_6Common5timespEBe_
FN:74,_RINvMs4_NtNtNtNtCslGh6CY2EcXh_14darwin_metrics8hardware5iokit22___mock_MockIOKit_IOKit21___get_number_propertyNtB6_6Common5withfpEBe_
FN:74,_RINvMs4_NtNtNtNtCslGh6CY2EcXh_14darwin_metrics8hardware5iokit22___mock_MockIOKit_IOKit21___get_number_propertyNtB6_6Common8withf_stpEBe_
FN:74,_RINvMs4_NtNtNtNtCslGh6CY2EcXh_14darwin_metrics8hardware5iokit22___mock_MockIOKit_IOKit21___get_string_propertyNtB6_6Common4withppEBe_
FN:74,_RINvMs4_NtNtNtNtCslGh6CY2EcXh_14darwin_metrics8hardware5iokit22___mock_MockIOKit_IOKit21___get_string_propertyNtB6_6Common5timespEBe_
FN:74,_RINvMs4_NtNtNtNtCslGh6CY2EcXh_14darwin_metrics8hardware5iokit22___mock_MockIOKit_IOKit21___get_string_propertyNtB6_6Common5withfpEBe_
FN:74,_RINvMs4_NtNtNtNtCslGh6CY2EcXh_14darwin_metrics8hardware5iokit22___mock_MockIOKit_IOKit21___get_string_propertyNtB6_6Common8withf_stpEBe_
FN:74,_RINvMs4_NtNtNtNtCslGh6CY2EcXh_14darwin_metrics8hardware5iokit22___mock_MockIOKit_IOKit21___io_service_matchingNtB6_6Common4withpEBe_
FN:74,_RINvMs4_NtNtNtNtCslGh6CY2EcXh_14darwin_metrics8hardware5iokit22___mock_MockIOKit_IOKit21___io_service_matchingNtB6_6Common5timespEBe_
FN:74,_RINvMs4_NtNtNtNtCslGh6CY2EcXh_14darwin_metrics8hardware5iokit22___mock_MockIOKit_IOKit21___io_service_matchingNtB6_6Common5withfpEBe_
FN:74,_RINvMs4_NtNtNtNtCslGh6CY2EcXh_14darwin_metrics8hardware5iokit22___mock_MockIOKit_IOKit21___io_service_matchingNtB6_6Common8withf_stpEBe_
FN:74,_RINvMs4_NtNtNtNtCslGh6CY2EcXh_14darwin_metrics8hardware5iokit22___mock_MockIOKit_IOKit25___get_ambient_temperatureNtB6_6Common5timespEBe_
FN:74,_RINvMs4_NtNtNtNtCslGh6CY2EcXh_14darwin_metrics8hardware5iokit22___mock_MockIOKit_IOKit25___get_ambient_temperatureNtB6_6Common5withfpEBe_
FN:74,_RINvMs4_NtNtNtNtCslGh6CY2EcXh_14darwin_metrics8hardware5iokit22___mock_MockIOKit_IOKit25___get_ambient_temperatureNtB6_6Common8withf_stpEBe_
FN:74,_RINvMs4_NtNtNtNtCslGh6CY2EcXh_14darwin_metrics8hardware5iokit22___mock_MockIOKit_IOKit25___get_battery_temperatureNtB6_6Common5timespEBe_
FN:74,_RINvMs4_NtNtNtNtCslGh6CY2EcXh_14darwin_metrics8hardware5iokit22___mock_MockIOKit_IOKit25___get_battery_temperatureNtB6_6Common5withfpEBe_
FN:74,_RINvMs4_NtNtNtNtCslGh6CY2EcXh_14darwin_metrics8hardware5iokit22___mock_MockIOKit_IOKit25___get_battery_temperatureNtB6_6Common8withf_stpEBe_
FN:74,_RINvMs4_NtNtNtNtCslGh6CY2EcXh_14darwin_metrics8hardware5iokit22___mock_MockIOKit_IOKit26___check_thermal_throttlingNtB6_6Common5timespEBe_
FN:74,_RINvMs4_NtNtNtNtCslGh6CY2EcXh_14darwin_metrics8hardware5iokit22___mock_MockIOKit_IOKit26___check_thermal_throttlingNtB6_6Common5withfpEBe_
FN:74,_RINvMs4_NtNtNtNtCslGh6CY2EcXh_14darwin_metrics8hardware5iokit22___mock_MockIOKit_IOKit26___check_thermal_throttlingNtB6_6Common8withf_stpEBe_
FN:74,_RINvMs4_NtNtNtNtCslGh6CY2EcXh_14darwin_metrics8hardware5iokit22___mock_MockIOKit_IOKit26___get_heatsink_temperatureNtB6_6Common5timespEBe_
FN:74,_RINvMs4_NtNtNtNtCslGh6CY2EcXh_14darwin_metrics8hardware5iokit22___mock_MockIOKit_IOKit26___get_heatsink_temperatureNtB6_6Common5withfpEBe_
FN:74,_RINvMs4_NtNtNtNtCslGh6CY2EcXh_14darwin_metrics8hardware5iokit22___mock_MockIOKit_IOKit26___get_heatsink_temperatureNtB6_6Common8withf_stpEBe_
FN:74,_RINvMs4_NtNtNtNtCslGh6CY2EcXh_14darwin_metrics8hardware5iokit22___mock_MockIOKit_IOKit30___io_registry_entry_get_parentNtB6_6Common4withpEBe_
FN:74,_RINvMs4_NtNtNtNtCslGh6CY2EcXh_14darwin_metrics8hardware5iokit22___mock_MockIOKit_IOKit30___io_registry_entry_get_parentNtB6_6Common5timespEBe_
FN:74,_RINvMs4_NtNtNtNtCslGh6CY2EcXh_14darwin_metrics8hardware5iokit22___mock_MockIOKit_IOKit30___io_registry_entry_get_parentNtB6_6Common5withfpEBe_
FN:74,_RINvMs4_NtNtNtNtCslGh6CY2EcXh_14darwin_metrics8hardware5iokit22___mock_MockIOKit_IOKit30___io_registry_entry_get_parentNtB6_6Common8withf_stpEBe_
FN:74,_RINvMs4_NtNtNtNtCslGh6CY2EcXh_14darwin_metrics8hardware5iokit22___mock_MockIOKit_IOKit33___io_service_get_matching_serviceNtB6_6Common4withpEBe_
FN:74,_RINvMs4_NtNtNtNtCslGh6CY2EcXh_14darwin_metrics8hardware5iokit22___mock_MockIOKit_IOKit33___io_service_get_matching_serviceNtB6_6Common5timespEBe_
FN:74,_RINvMs4_NtNtNtNtCslGh6CY2EcXh_14darwin_metrics8hardware5iokit22___mock_MockIOKit_IOKit33___io_service_get_matching_serviceNtB6_6Common5withfpEBe_
FN:74,_RINvMs4_NtNtNtNtCslGh6CY2EcXh_14darwin_metrics8hardware5iokit22___mock_MockIOKit_IOKit33___io_service_get_matching_serviceNtB6_6Common8withf_stpEBe_
FN:74,_RINvMs4_NtNtNtNtCslGh6CY2EcXh_14darwin_metrics8hardware5iokit22___mock_MockIOKit_IOKit40___io_registry_entry_create_cf_propertiesNtB6_6Common4withpEBe_
FN:74,_RINvMs4_NtNtNtNtCslGh6CY2EcXh_14darwin_metrics8hardware5iokit22___mock_MockIOKit_IOKit40___io_registry_entry_create_cf_propertiesNtB6_6Common5timespEBe_
FN:74,_RINvMs4_NtNtNtNtCslGh6CY2EcXh_14darwin_metrics8hardware5iokit22___mock_MockIOKit_IOKit40___io_registry_entry_create_cf_propertiesNtB6_6Common5withfpEBe_
FN:74,_RINvMs4_NtNtNtNtCslGh6CY2EcXh_14darwin_metrics8hardware5iokit22___mock_MockIOKit_IOKit40___io_registry_entry_create_cf_propertiesNtB6_6Common8withf_stpEBe_
FN:74,_RINvMs6_NtNtNtNtCslGh6CY2EcXh_14darwin_metrics8hardware5iokit22___mock_MockIOKit_IOKit13___get_serviceNtB6_11Expectation11return_oncepEBe_
FN:74,_RINvMs6_NtNtNtNtCslGh6CY2EcXh_14darwin_metrics8hardware5iokit22___mock_MockIOKit_IOKit13___get_serviceNtB6_11Expectation12returning_stpEBe_
FN:74,_RINvMs6_NtNtNtNtCslGh6CY2EcXh_14darwin_metrics8hardware5iokit22___mock_MockIOKit_IOKit13___get_serviceNtB6_11Expectation14return_once_stpEBe_
FN:74,_RINvMs6_NtNtNtNtCslGh6CY2EcXh_14darwin_metrics8hardware5iokit22___mock_MockIOKit_IOKit13___get_serviceNtB6_11Expectation4withpEBe_
FN:74,_RINvMs6_NtNtNtNtCslGh6CY2EcXh_14darwin_metrics8hardware5iokit22___mock_MockIOKit_IOKit13___get_serviceNtB6_11Expectation5timespEBe_
FN:74,_RINvMs6_NtNtNtNtCslGh6CY2EcXh_14darwin_metrics8hardware5iokit22___mock_MockIOKit_IOKit13___get_serviceNtB6_11Expectation5withfpEBe_
FN:74,_RINvMs6_NtNtNtNtCslGh6CY2EcXh_14darwin_metrics8hardware5iokit22___mock_MockIOKit_IOKit13___get_serviceNtB6_11Expectation8withf_stpEBe_
FN:74,_RINvMs6_NtNtNtNtCslGh6CY2EcXh_14darwin_metrics8hardware5iokit22___mock_MockIOKit_IOKit14___get_all_fansNtB6_11Expectation11return_oncepEBe_
FN:74,_RINvMs6_NtNtNtNtCslGh6CY2EcXh_14darwin_metrics8hardware5iokit22___mock_MockIOKit_IOKit14___get_all_fansNtB6_11Expectation12returning_stpEBe_
FN:74,_RINvMs6_NtNtNtNtCslGh6CY2EcXh_14darwin_metrics8hardware5iokit22___mock_MockIOKit_IOKit14___get_all_fansNtB6_11Expectation14return_once_stpEBe_
FN:74,_RINvMs6_NtNtNtNtCslGh6CY2EcXh_14darwin_metrics8hardware5iokit22___mock_MockIOKit_IOKit14___get_all_fansNtB6_11Expectation5timespEBe_
FN:74,_RINvMs6_NtNtNtNtCslGh6CY2EcXh_14darwin_metrics8hardware5iokit22___mock_MockIOKit_IOKit14___get_all_fansNtB6_11Expectation5withfpEBe_
FN:74,_RINvMs6_NtNtNtNtCslGh6CY2EcXh_14darwin_metrics8hardware5iokit22___mock_MockIOKit_IOKit14___get_all_fansNtB6_11Expectation8withf_stpEBe_
FN:74,_RINvMs6_NtNtNtNtCslGh6CY2EcXh_14darwin_metrics8hardware5iokit22___mock_MockIOKit_IOKit14___get_fan_infoNtB6_11Expectation11return_oncepEBe_
FN:74,_RINvMs6_NtNtNtNtCslGh6CY2EcXh_14darwin_metrics8hardware5iokit22___mock_MockIOKit_IOKit14___get_fan_infoNtB6_11Expectation12returning_stpEBe_
FN:74,_RINvMs6_NtNtNtNtCslGh6CY2EcXh_14darwin_metrics8hardware5iokit22___mock_MockIOKit_IOKit14___get_fan_infoNtB6_11Expectation14return_once_stpEBe_
FN:74,_RINvMs6_NtNtNtNtCslGh6CY2EcXh_14darwin_metrics8hardware5iokit22___mock_MockIOKit_IOKit14___get_fan_infoNtB6_11Expectation5timespEBe_
FN:74,_RINvMs6_NtNtNtNtCslGh6CY2EcXh_14darwin_metrics8hardware5iokit22___mock_MockIOKit_IOKit14___get_fan_infoNtB6_11Expectation5withfpEBe_
FN:74,_RINvMs6_NtNtNtNtCslGh6CY2EcXh_14darwin_metrics8hardware5iokit22___mock_MockIOKit_IOKit14___get_fan_infoNtB6_11Expectation8withf_stpEBe_
FN:74,_RINvMs6_NtNtNtNtCslGh6CY2EcXh_14darwin_metrics8hardware5iokit22___mock_MockIOKit_IOKit14___read_smc_keyNtB6_11Expectation11return_oncepEBe_
FN:74,_RINvMs6_NtNtNtNtCslGh6CY2EcXh_14darwin_metrics8hardware5iokit22___mock_MockIOKit_IOKit14___read_smc_keyNtB6_11Expectation12returning_stpEBe_
FN:74,_RINvMs6_NtNtNtNtCslGh6CY2EcXh_14darwin_metrics8hardware5iokit22___mock_MockIOKit_IOKit14___read_smc_keyNtB6_11Expectation14return_once_stpEBe_
FN:74,_RINvMs6_NtNtNtNtCslGh6CY2EcXh_14darwin_metrics8hardware5iokit22___mock_MockIOKit_IOKit14___read_smc_keyNtB6_11Expectation5timespEBe_
FN:74,_RINvMs6_NtNtNtNtCslGh6CY2EcXh_14darwin_metrics8hardware5iokit22___mock_MockIOKit_IOKit14___read_smc_keyNtB6_11Expectation5withfpEBe_
FN:74,_RINvMs6_NtNtNtNtCslGh6CY2EcXh_14darwin_metrics8hardware5iokit22___mock_MockIOKit_IOKit14___read_smc_keyNtB6_11Expectation8withf_stpEBe_
FN:74,_RINvMs6_NtNtNtNtCslGh6CY2EcXh_14darwin_metrics8hardware5iokit22___mock_MockIOKit_IOKit15___get_cpu_powerNtB6_11Expectation11return_oncepEBe_
FN:74,_RINvMs6_NtNtNtNtCslGh6CY2EcXh_14darwin_metrics8hardware5iokit22___mock_MockIOKit_IOKit15___get_cpu_powerNtB6_11Expectation12returning_stpEBe_
FN:74,_RINvMs6_NtNtNtNtCslGh6CY2EcXh_14darwin_metrics8hardware5iokit22___mock_MockIOKit_IOKit15___get_cpu_powerNtB6_11Expectation14return_once_stpEBe_
FN:74,_RINvMs6_NtNtNtNtCslGh6CY2EcXh_14darwin_metrics8hardware5iokit22___mock_MockIOKit_IOKit15___get_cpu_powerNtB6_11Expectation5timespEBe_
FN:74,_RINvMs6_NtNtNtNtCslGh6CY2EcXh_14darwin_metrics8hardware5iokit22___mock_MockIOKit_IOKit15___get_cpu_powerNtB6_11Expectation5withfpEBe_
FN:74,_RINvMs6_NtNtNtNtCslGh6CY2EcXh_14darwin_metrics8hardware5iokit22___mock_MockIOKit_IOKit15___get_cpu_powerNtB6_11Expectation8withf_stpEBe_
FN:74,_RINvMs6_NtNtNtNtCslGh6CY2EcXh_14darwin_metrics8hardware5iokit22___mock_MockIOKit_IOKit15___get_fan_countNtB6_11Expectation11return_oncepEBe_
FN:74,_RINvMs6_NtNtNtNtCslGh6CY2EcXh_14darwin_metrics8hardware5iokit22___mock_MockIOKit_IOKit15___get_fan_countNtB6_11Expectation12returning_stpEBe_
FN:74,_RINvMs6_NtNtNtNtCslGh6CY2EcXh_14darwin_metrics8hardware5iokit22___mock_MockIOKit_IOKit15___get_fan_countNtB6_11Expectation14return_once_stpEBe_
FN:74,_RINvMs6_NtNtNtNtCslGh6CY2EcXh_14darwin_metrics8hardware5iokit22___mock_MockIOKit_IOKit15___get_fan_countNtB6_11Expectation5timespEBe_
FN:74,_RINvMs6_NtNtNtNtCslGh6CY2EcXh_14darwin_metrics8hardware5iokit22___mock_MockIOKit_IOKit15___get_fan_countNtB6_11Expectation5withfpEBe_
FN:74,_RINvMs6_NtNtNtNtCslGh6CY2EcXh_14darwin_metrics8hardware5iokit22___mock_MockIOKit_IOKit15___get_fan_countNtB6_11Expectation8withf_stpEBe_
FN:74,_RINvMs6_NtNtNtNtCslGh6CY2EcXh_14darwin_metrics8hardware5iokit22___mock_MockIOKit_IOKit15___get_fan_speedNtB6_11Expectation11return_oncepEBe_
FN:74,_RINvMs6_NtNtNtNtCslGh6CY2EcXh_14darwin_metrics8hardware5iokit22___mock_MockIOKit_IOKit15___get_fan_speedNtB6_11Expectation12returning_stpEBe_
FN:74,_RINvMs6_NtNtNtNtCslGh6CY2EcXh_14darwin_metrics8hardware5iokit22___mock_MockIOKit_IOKit15___get_fan_speedNtB6_11Expectation14return_once_stpEBe_
FN:74,_RINvMs6_NtNtNtNtCslGh6CY2EcXh_14darwin_metrics8hardware5iokit22___mock_MockIOKit_IOKit15___get_fan_speedNtB6_11Expectation5timespEBe_
FN:74,_RINvMs6_NtNtNtNtCslGh6CY2EcXh_14darwin_metrics8hardware5iokit22___mock_MockIOKit_IOKit15___get_fan_speedNtB6_11Expectation5withfpEBe_
FN:74,_RINvMs6_NtNtNtNtCslGh6CY2EcXh_14darwin_metrics8hardware5iokit22___mock_MockIOKit_IOKit15___get_fan_speedNtB6_11Expectation8withf_stpEBe_
FN:74,_RINvMs6_NtNtNtNtCslGh6CY2EcXh_14darwin_metrics8hardware5iokit22___mock_MockIOKit_IOKit15___get_gpu_statsNtB6_11Expectation11return_oncepEBe_
FN:74,_RINvMs6_NtNtNtNtCslGh6CY2EcXh_14darwin_metrics8hardware5iokit22___mock_MockIOKit_IOKit15___get_gpu_statsNtB6_11Expectation12returning_stpEBe_
FN:74,_RINvMs6_NtNtNtNtCslGh6CY2EcXh_14darwin_metrics8hardware5iokit22___mock_MockIOKit_IOKit15___get_gpu_statsNtB6_11Expectation14return_once_stpEBe_
FN:74,_RINvMs6_NtNtNtNtCslGh6CY2EcXh_14darwin_metrics8hardware5iokit22___mock_MockIOKit_IOKit15___get_gpu_statsNtB6_11Expectation5timespEBe_
FN:74,_RINvMs6_NtNtNtNtCslGh6CY2EcXh_14darwin_metrics8hardware5iokit22___mock_MockIOKit_IOKit15___get_gpu_statsNtB6_11Expectation5withfpEBe_
FN:74,_RINvMs6_NtNtNtNtCslGh6CY2EcXh_14darwin_metrics8hardware5iokit22___mock_MockIOKit_IOKit15___get_gpu_statsNtB6_11Expectation8withf_stpEBe_
FN:74,_RINvMs6_NtNtNtNtCslGh6CY2EcXh_14darwin_metrics8hardware5iokit22___mock_MockIOKit_IOKit18___get_thermal_infoNtB6_11Expectation11return_oncepEBe_
FN:74,_RINvMs6_NtNtNtNtCslGh6CY2EcXh_14darwin_metrics8hardware5iokit22___mock_MockIOKit_IOKit18___get_thermal_infoNtB6_11Expectation12returning_stpEBe_
FN:74,_RINvMs6_NtNtNtNtCslGh6CY2EcXh_14darwin_metrics8hardware5iokit22___mock_MockIOKit_IOKit18___get_thermal_infoNtB6_11Expectation14return_once_stpEBe_
FN:74,_RINvMs6_NtNtNtNtCslGh6CY2EcXh_14darwin_metrics8hardware5iokit22___mock_MockIOKit_IOKit18___get_thermal_infoNtB6_11Expectation5timespEBe_
FN:74,_RINvMs6_NtNtNtNtCslGh6CY2EcXh_14darwin_metrics8hardware5iokit22___mock_MockIOKit_IOKit18___get_thermal_infoNtB6_11Expectation5withfpEBe_
FN:74,_RINvMs6_NtNtNtNtCslGh6CY2EcXh_14darwin_metrics8hardware5iokit22___mock_MockIOKit_IOKit18___get_thermal_infoNtB6_11Expectation8withf_stpEBe_
FN:74,_RINvMs6_NtNtNtNtCslGh6CY2EcXh_14darwin_metrics8hardware5iokit22___mock_MockIOKit_IOKit19___get_bool_propertyNtB6_11Expectation11return_oncepEBe_
FN:74,_RINvMs6_NtNtNtNtCslGh6CY2EcXh_14darwin_metrics8hardware5iokit22___mock_MockIOKit_IOKit19___get_bool_propertyNtB6_11Expectation12returning_stpEBe_
FN:74,_RINvMs6_NtNtNtNtCslGh6CY2EcXh_14darwin_metrics8hardware5iokit22___mock_MockIOKit_IOKit19___get_bool_propertyNtB6_11Expectation14return_once_stpEBe_
FN:74,_RINvMs6_NtNtNtNtCslGh6CY2EcXh_14darwin_metrics8hardware5iokit22___mock_MockIOKit_IOKit19___get_bool_propertyNtB6_11Expectation4withppEBe_
FN:74,_RINvMs6_NtNtNtNtCslGh6CY2EcXh_14darwin_metrics8hardware5iokit22___mock_MockIOKit_IOKit19___get_bool_propertyNtB6_11Expectation5timespEBe_
FN:74,_RINvMs6_NtNtNtNtCslGh6CY2EcXh_14darwin_metrics8hardware5iokit22___mock_MockIOKit_IOKit19___get_bool_propertyNtB6_11Expectation5withfpEBe_
FN:74,_RINvMs6_NtNtNtNtCslGh6CY2EcXh_14darwin_metrics8hardware5iokit22___mock_MockIOKit_IOKit19___get_bool_propertyNtB6_11Expectation8withf_stpEBe_
FN:74,_RINvMs6_NtNtNtNtCslGh6CY2EcXh_14darwin_metrics8hardware5iokit22___mock_MockIOKit_IOKit19___get_dict_propertyNtB6_11Expectation11return_oncepEBe_
FN:74,_RINvMs6_NtNtNtNtCslGh6CY2EcXh_14darwin_metrics8hardware5iokit22___mock_MockIOKit_IOKit19___get_dict_propertyNtB6_11Expectation12returning_stpEBe_
FN:74,_RINvMs6_NtNtNtNtCslGh6CY2EcXh_14darwin_metrics8hardware5iokit22___mock_MockIOKit_IOKit19___get_dict_propertyNtB6_11Expectation14return_once_stpEBe_
FN:74,_RINvMs6_NtNtNtNtCslGh6CY2EcXh_14darwin_metrics8hardware5iokit22___mock_MockIOKit_IOKit19___get_dict_propertyNtB6_11Expectation4withppEBe_
FN:74,_RINvMs6_NtNtNtNtCslGh6CY2EcXh_14darwin_metrics8hardware5iokit22___mock_MockIOKit_IOKit19___get_dict_propertyNtB6_11Expectation5timespEBe_
FN:74,_RINvMs6_NtNtNtNtCslGh6CY2EcXh_14darwin_metrics8hardware5iokit22___mock_MockIOKit_IOKit19___get_dict_propertyNtB6_11Expectation5withfpEBe_
FN:74,_RINvMs6_NtNtNtNtCslGh6CY2EcXh_14darwin_metrics8hardware5iokit22___mock_MockIOKit_IOKit19___get_dict_propertyNtB6_11Expectation8withf_stpEBe_
FN:74,_RINvMs6_NtNtNtNtCslGh6CY2EcXh_14darwin_metrics8hardware5iokit22___mock_MockIOKit_IOKit19___io_object_releaseNtB6_11Expectation11return_oncepEBe_
FN:74,_RINvMs6_NtNtNtNtCslGh6CY2EcXh_14darwin_metrics8hardware5iokit22___mock_MockIOKit_IOKit19___io_object_releaseNtB6_11Expectation12returning_stpEBe_
FN:74,_RINvMs6_NtNtNtNtCslGh6CY2EcXh_14darwin_metrics8hardware5iokit22___mock_MockIOKit_IOKit19___io_object_releaseNtB6_11Expectation14return_once_stpEBe_
FN:74,_RINvMs6_NtNtNtNtCslGh6CY2EcXh_14darwin_metrics8hardware5iokit22___mock_MockIOKit_IOKit19___io_object_releaseNtB6_11Expectation4withpEBe_
FN:74,_RINvMs6_NtNtNtNtCslGh6CY2EcXh_14darwin_metrics8hardware5iokit22___mock_MockIOKit_IOKit19___io_object_releaseNtB6_11Expectation5timespEBe_
FN:74,_RINvMs6_NtNtNtNtCslGh6CY2EcXh_14darwin_metrics8hardware5iokit22___mock_MockIOKit_IOKit19___io_object_releaseNtB6_11Expectation5withfpEBe_
FN:74,_RINvMs6_NtNtNtNtCslGh6CY2EcXh_14darwin_metrics8hardware5iokit22___mock_MockIOKit_IOKit19___io_object_releaseNtB6_11Expectation8withf_stpEBe_
FN:74,_RINvMs6_NtNtNtNtCslGh6CY2EcXh_14darwin_metrics8hardware5iokit22___mock_MockIOKit_IOKit19___io_object_releaseNtB6_11Expectation9returningpEBe_
FN:74,_RINvMs6_NtNtNtNtCslGh6CY2EcXh_14darwin_metrics8hardware5iokit22___mock_MockIOKit_IOKit21___get_cpu_temperatureNtB6_11Expectation11return_oncepEBe_
FN:74,_RINvMs6_NtNtNtNtCslGh6CY2EcXh_14darwin_metrics8hardware5iokit22___mock_MockIOKit_IOKit21___get_cpu_temperatureNtB6_11Expectation12returning_stpEBe_
FN:74,_RINvMs6_NtNtNtNtCslGh6CY2EcXh_14darwin_metrics8hardware5iokit22___mock_MockIOKit_IOKit21___get_cpu_temperatureNtB6_11Expectation14return_once_stpEBe_
FN:74,_RINvMs6_NtNtNtNtCslGh6CY2EcXh_14darwin_metrics8hardware5iokit22___mock_MockIOKit_IOKit21___get_cpu_temperatureNtB6_11Expectation5timespEBe_
FN:74,_RINvMs6_NtNtNtNtCslGh6CY2EcXh_14darwin_metrics8hardware5iokit22___mock_MockIOKit_IOKit21___get_cpu_temperatureNtB6_11Expectation5withfpEBe_
FN:74,_RINvMs6_NtNtNtNtCslGh6CY2EcXh_14darwin_metrics8hardware5iokit22___mock_MockIOKit_IOKit21___get_cpu_temperatureNtB6_11Expectation8withf_stpEBe_
FN:74,_RINvMs6_NtNtNtNtCslGh6CY2EcXh_14darwin_metrics8hardware5iokit22___mock_MockIOKit_IOKit21___get_gpu_temperatureNtB6_11Expectation11return_oncepEBe_
FN:74,_RINvMs6_NtNtNtNtCslGh6CY2EcXh_14darwin_metrics8hardware5iokit22___mock_MockIOKit_IOKit21___get_gpu_temperatureNtB6_11Expectation12returning_stpEBe_
FN:74,_RINvMs6_NtNtNtNtCslGh6CY2EcXh_14darwin_metrics8hardware5iokit22___mock_MockIOKit_IOKit21___get_gpu_temperatureNtB6_11Expectation14return_once_stpEBe_
FN:74,_RINvMs6_NtNtNtNtCslGh6CY2EcXh_14darwin_metrics8hardware5iokit22___mock_MockIOKit_IOKit21___get_gpu_temperatureNtB6_11Expectation5timespEBe_
FN:74,_RINvMs6_NtNtNtNtCslGh6CY2EcXh_14darwin_metrics8hardware5iokit22___mock_MockIOKit_IOKit21___get_gpu_temperatureNtB6_11Expectation5withfpEBe_
FN:74,_RINvMs6_NtNtNtNtCslGh6CY2EcXh_14darwin_metrics8hardware5iokit22___mock_MockIOKit_IOKit21___get_gpu_temperatureNtB6_11Expectation8withf_stpEBe_
FN:74,_RINvMs6_NtNtNtNtCslGh6CY2EcXh_14darwin_metrics8hardware5iokit22___mock_MockIOKit_IOKit21___get_number_propertyNtB6_11Expectation11return_oncepEBe_
FN:74,_RINvMs6_NtNtNtNtCslGh6CY2EcXh_14darwin_metrics8hardware5iokit22___mock_MockIOKit_IOKit21___get_number_propertyNtB6_11Expectation12returning_stpEBe_
FN:74,_RINvMs6_NtNtNtNtCslGh6CY2EcXh_14darwin_metrics8hardware5iokit22___mock_MockIOKit_IOKit21___get_number_propertyNtB6_11Expectation14return_once_stpEBe_
FN:74,_RINvMs6_NtNtNtNtCslGh6CY2EcXh_14darwin_metrics8hardware5iokit22___mock_MockIOKit_IOKit21___get_number_propertyNtB6_11Expectation4withppEBe_
FN:74,_RINvMs6_NtNtNtNtCslGh6CY2EcXh_14darwin_metrics8hardware5iokit22___mock_MockIOKit_IOKit21___get_number_propertyNtB6_11Expectation5timespEBe_
FN:74,_RINvMs6_NtNtNtNtCslGh6CY2EcXh_14darwin_metrics8hardware5iokit22___mock_MockIOKit_IOKit21___get_number_propertyNtB6_11Expectation5withfpEBe_
FN:74,_RINvMs6_NtNtNtNtCslGh6CY2EcXh_14darwin_metrics8hardware5iokit22___mock_MockIOKit_IOKit21___get_number_propertyNtB6_11Expectation8withf_stpEBe_
FN:74,_RINvMs6_NtNtNtNtCslGh6CY2EcXh_14darwin_metrics8hardware5iokit22___mock_MockIOKit_IOKit21___get_string_propertyNtB6_11Expectation11return_oncepEBe_
FN:74,_RINvMs6_NtNtNtNtCslGh6CY2EcXh_14darwin_metrics8hardware5iokit22___mock_MockIOKit_IOKit21___get_string_propertyNtB6_11Expectation12returning_stpEBe_
FN:74,_RINvMs6_NtNtNtNtCslGh6CY2EcXh_14darwin_metrics8hardware5iokit22___mock_MockIOKit_IOKit21___get_string_propertyNtB6_11Expectation14return_once_stpEBe_
FN:74,_RINvMs6_NtNtNtNtCslGh6CY2EcXh_14darwin_metrics8hardware5iokit22___mock_MockIOKit_IOKit21___get_string_propertyNtB6_11Expectation4withppEBe_
FN:74,_RINvMs6_NtNtNtNtCslGh6CY2EcXh_14darwin_metrics8hardware5iokit22___mock_MockIOKit_IOKit21___get_string_propertyNtB6_11Expectation5timespEBe_
FN:74,_RINvMs6_NtNtNtNtCslGh6CY2EcXh_14darwin_metrics8hardware5iokit22___mock_MockIOKit_IOKit21___get_string_propertyNtB6_11Expectation5withfpEBe_
FN:74,_RINvMs6_NtNtNtNtCslGh6CY2EcXh_14darwin_metrics8hardware5iokit22___mock_MockIOKit_IOKit21___get_string_propertyNtB6_11Expectation8withf_stpEBe_
FN:74,_RINvMs6_NtNtNtNtCslGh6CY2EcXh_14darwin_metrics8hardware5iokit22___mock_MockIOKit_IOKit21___io_service_matchingNtB6_11Expectation11return_oncepEBe_
FN:74,_RINvMs6_NtNtNtNtCslGh6CY2EcXh_14darwin_metrics8hardware5iokit22___mock_MockIOKit_IOKit21___io_service_matchingNtB6_11Expectation12returning_stpEBe_
FN:74,_RINvMs6_NtNtNtNtCslGh6CY2EcXh_14darwin_metrics8hardware5iokit22___mock_MockIOKit_IOKit21___io_service_matchingNtB6_11Expectation14return_once_stpEBe_
FN:74,_RINvMs6_NtNtNtNtCslGh6CY2EcXh_14darwin_metrics8hardware5iokit22___mock_MockIOKit_IOKit21___io_service_matchingNtB6_11Expectation4withpEBe_
FN:74,_RINvMs6_NtNtNtNtCslGh6CY2EcXh_14darwin_metrics8hardware5iokit22___mock_MockIOKit_IOKit21___io_service_matchingNtB6_11Expectation5timespEBe_
FN:74,_RINvMs6_NtNtNtNtCslGh6CY2EcXh_14darwin_metrics8hardware5iokit22___mock_MockIOKit_IOKit21___io_service_matchingNtB6_11Expectation5withfpEBe_
FN:74,_RINvMs6_NtNtNtNtCslGh6CY2EcXh_14darwin_metrics8hardware5iokit22___mock_MockIOKit_IOKit21___io_service_matchingNtB6_11Expectation8withf_stpEBe_
FN:74,_RINvMs6_NtNtNtNtCslGh6CY2EcXh_14darwin_metrics8hardware5iokit22___mock_MockIOKit_IOKit25___get_ambient_temperatureNtB6_11Expectation11return_oncepEBe_
FN:74,_RINvMs6_NtNtNtNtCslGh6CY2EcXh_14darwin_metrics8hardware5iokit22___mock_MockIOKit_IOKit25___get_ambient_temperatureNtB6_11Expectation12returning_stpEBe_
FN:74,_RINvMs6_NtNtNtNtCslGh6CY2EcXh_14darwin_metrics8hardware5iokit22___mock_MockIOKit_IOKit25___get_ambient_temperatureNtB6_11Expectation14return_once_stpEBe_
FN:74,_RINvMs6_NtNtNtNtCslGh6CY2EcXh_14darwin_metrics8hardware5iokit22___mock_MockIOKit_IOKit25___get_ambient_temperatureNtB6_11Expectation5timespEBe_
FN:74,_RINvMs6_NtNtNtNtCslGh6CY2EcXh_14darwin_metrics8hardware5iokit22___mock_MockIOKit_IOKit25___get_ambient_temperatureNtB6_11Expectation5withfpEBe_
FN:74,_RINvMs6_NtNtNtNtCslGh6CY2EcXh_14darwin_metrics8hardware5iokit22___mock_MockIOKit_IOKit25___get_ambient_temperatureNtB6_11Expectation8withf_stpEBe_
FN:74,_RINvMs6_NtNtNtNtCslGh6CY2EcXh_14darwin_metrics8hardware5iokit22___mock_MockIOKit_IOKit25___get_battery_temperatureNtB6_11Expectation11return_oncepEBe_
FN:74,_RINvMs6_NtNtNtNtCslGh6CY2EcXh_14darwin_metrics8hardware5iokit22___mock_MockIOKit_IOKit25___get_battery_temperatureNtB6_11Expectation12returning_stpEBe_
FN:74,_RINvMs6_NtNtNtNtCslGh6CY2EcXh_14darwin_metrics8hardware5iokit22___mock_MockIOKit_IOKit25___get_battery_temperatureNtB6_11Expectation14return_once_stpEBe_
FN:74,_RINvMs6_NtNtNtNtCslGh6CY2EcXh_14darwin_metrics8hardware5iokit22___mock_MockIOKit_IOKit25___get_battery_temperatureNtB6_11Expectation5timespEBe_
FN:74,_RINvMs6_NtNtNtNtCslGh6CY2EcXh_14darwin_metrics8hardware5iokit22___mock_MockIOKit_IOKit25___get_battery_temperatureNtB6_11Expectation5withfpEBe_
FN:74,_RINvMs6_NtNtNtNtCslGh6CY2EcXh_14darwin_metrics8hardware5iokit22___mock_MockIOKit_IOKit25___get_battery_temperatureNtB6_11Expectation8withf_stpEBe_
FN:74,_RINvMs6_NtNtNtNtCslGh6CY2EcXh_14darwin_metrics8hardware5iokit22___mock_MockIOKit_IOKit26___check_thermal_throttlingNtB6_11Expectation11return_oncepEBe_
FN:74,_RINvMs6_NtNtNtNtCslGh6CY2EcXh_14darwin_metrics8hardware5iokit22___mock_MockIOKit_IOKit26___check_thermal_throttlingNtB6_11Expectation12returning_stpEBe_
FN:74,_RINvMs6_NtNtNtNtCslGh6CY2EcXh_14darwin_metrics8hardware5iokit22___mock_MockIOKit_IOKit26___check_thermal_throttlingNtB6_11Expectation14return_once_stpEBe_
FN:74,_RINvMs6_NtNtNtNtCslGh6CY2EcXh_14darwin_metrics8hardware5iokit22___mock_MockIOKit_IOKit26___check_thermal_throttlingNtB6_11Expectation5timespEBe_
FN:74,_RINvMs6_NtNtNtNtCslGh6CY2EcXh_14darwin_metrics8hardware5iokit22___mock_MockIOKit_IOKit26___check_thermal_throttlingNtB6_11Expectation5withfpEBe_
FN:74,_RINvMs6_NtNtNtNtCslGh6CY2EcXh_14darwin_metrics8hardware5iokit22___mock_MockIOKit_IOKit26___check_thermal_throttlingNtB6_11Expectation8withf_stpEBe_
FN:74,_RINvMs6_NtNtNtNtCslGh6CY2EcXh_14darwin_metrics8hardware5iokit22___mock_MockIOKit_IOKit26___get_heatsink_temperatureNtB6_11Expectation11return_oncepEBe_
FN:74,_RINvMs6_NtNtNtNtCslGh6CY2EcXh_14darwin_metrics8hardware5iokit22___mock_MockIOKit_IOKit26___get_heatsink_temperatureNtB6_11Expectation12returning_stpEBe_
FN:74,_RINvMs6_NtNtNtNtCslGh6CY2EcXh_14darwin_metrics8hardware5iokit22___mock_MockIOKit_IOKit26___get_heatsink_temperatureNtB6_11Expectation14return_once_stpEBe_
FN:74,_RINvMs6_NtNtNtNtCslGh6CY2EcXh_14darwin_metrics8hardware5iokit22___mock_MockIOKit_IOKit26___get_heatsink_temperatureNtB6_11Expectation5timespEBe_
FN:74,_RINvMs6_NtNtNtNtCslGh6CY2EcXh_14darwin_metrics8hardware5iokit22___mock_MockIOKit_IOKit26___get_heatsink_temperatureNtB6_11Expectation5withfpEBe_
FN:74,_RINvMs6_NtNtNtNtCslGh6CY2EcXh_14darwin_metrics8hardware5iokit22___mock_MockIOKit_IOKit26___get_heatsink_temperatureNtB6_11Expectation8withf_stpEBe_
FN:74,_RINvMs6_NtNtNtNtCslGh6CY2EcXh_14darwin_metrics8hardware5iokit22___mock_MockIOKit_IOKit30___io_registry_entry_get_parentNtB6_11Expectation11return_oncepEBe_
FN:74,_RINvMs6_NtNtNtNtCslGh6CY2EcXh_14darwin_metrics8hardware5iokit22___mock_MockIOKit_IOKit30___io_registry_entry_get_parentNtB6_11Expectation12returning_stpEBe_
FN:74,_RINvMs6_NtNtNtNtCslGh6CY2EcXh_14darwin_metrics8hardware5iokit22___mock_MockIOKit_IOKit30___io_registry_entry_get_parentNtB6_11Expectation14return_once_stpEBe_
FN:74,_RINvMs6_NtNtNtNtCslGh6CY2EcXh_14darwin_metrics8hardware5iokit22___mock_MockIOKit_IOKit30___io_registry_entry_get_parentNtB6_11Expectation4withpEBe_
FN:74,_RINvMs6_NtNtNtNtCslGh6CY2EcXh_14darwin_metrics8hardware5iokit22___mock_MockIOKit_IOKit30___io_registry_entry_get_parentNtB6_11Expectation5timespEBe_
FN:74,_RINvMs6_NtNtNtNtCslGh6CY2EcXh_14darwin_metrics8hardware5iokit22___mock_MockIOKit_IOKit30___io_registry_entry_get_parentNtB6_11Expectation5withfpEBe_
FN:74,_RINvMs6_NtNtNtNtCslGh6CY2EcXh_14darwin_metrics8hardware5iokit22___mock_MockIOKit_IOKit30___io_registry_entry_get_parentNtB6_11Expectation8withf_stpEBe_
FN:74,_RINvMs6_NtNtNtNtCslGh6CY2EcXh_14darwin_metrics8hardware5iokit22___mock_MockIOKit_IOKit33___io_service_get_matching_serviceNtB6_11Expectation11return_oncepEBe_
FN:74,_RINvMs6_NtNtNtNtCslGh6CY2EcXh_14darwin_metrics8hardware5iokit22___mock_MockIOKit_IOKit33___io_service_get_matching_serviceNtB6_11Expectation12returning_stpEBe_
FN:74,_RINvMs6_NtNtNtNtCslGh6CY2EcXh_14darwin_metrics8hardware5iokit22___mock_MockIOKit_IOKit33___io_service_get_matching_serviceNtB6_11Expectation14return_once_stpEBe_
FN:74,_RINvMs6_NtNtNtNtCslGh6CY2EcXh_14darwin_metrics8hardware5iokit22___mock_MockIOKit_IOKit33___io_service_get_matching_serviceNtB6_11Expectation4withpEBe_
FN:74,_RINvMs6_NtNtNtNtCslGh6CY2EcXh_14darwin_metrics8hardware5iokit22___mock_MockIOKit_IOKit33___io_service_get_matching_serviceNtB6_11Expectation5timespEBe_
FN:74,_RINvMs6_NtNtNtNtCslGh6CY2EcXh_14darwin_metrics8hardware5iokit22___mock_MockIOKit_IOKit33___io_service_get_matching_serviceNtB6_11Expectation5withfpEBe_
FN:74,_RINvMs6_NtNtNtNtCslGh6CY2EcXh_14darwin_metrics8hardware5iokit22___mock_MockIOKit_IOKit33___io_service_get_matching_serviceNtB6_11Expectation8withf_stpEBe_
FN:74,_RINvMs6_NtNtNtNtCslGh6CY2EcXh_14darwin_metrics8hardware5iokit22___mock_MockIOKit_IOKit40___io_registry_entry_create_cf_propertiesNtB6_11Expectation11return_oncepEBe_
FN:74,_RINvMs6_NtNtNtNtCslGh6CY2EcXh_14darwin_metrics8hardware5iokit22___mock_MockIOKit_IOKit40___io_registry_entry_create_cf_propertiesNtB6_11Expectation12returning_stpEBe_
FN:74,_RINvMs6_NtNtNtNtCslGh6CY2EcXh_14darwin_metrics8hardware5iokit22___mock_MockIOKit_IOKit40___io_registry_entry_create_cf_propertiesNtB6_11Expectation14return_once_stpEBe_
FN:74,_RINvMs6_NtNtNtNtCslGh6CY2EcXh_14darwin_metrics8hardware5iokit22___mock_MockIOKit_IOKit40___io_registry_entry_create_cf_propertiesNtB6_11Expectation4withpEBe_
FN:74,_RINvMs6_NtNtNtNtCslGh6CY2EcXh_14darwin_metrics8hardware5iokit22___mock_MockIOKit_IOKit40___io_registry_entry_create_cf_propertiesNtB6_11Expectation5timespEBe_
FN:74,_RINvMs6_NtNtNtNtCslGh6CY2EcXh_14darwin_metrics8hardware5iokit22___mock_MockIOKit_IOKit40___io_registry_entry_create_cf_propertiesNtB6_11Expectation5withfpEBe_
FN:74,_RINvMs6_NtNtNtNtCslGh6CY2EcXh_14darwin_metrics8hardware5iokit22___mock_MockIOKit_IOKit40___io_registry_entry_create_cf_propertiesNtB6_11Expectation8withf_stpEBe_
FN:74,_RNCINvMs6_NtNtNtNtCslGh6CY2EcXh_14darwin_metrics8hardware5iokit22___mock_MockIOKit_IOKit13___get_serviceNtB8_11Expectation12return_constpE0Bg_
FN:74,_RNCINvMs6_NtNtNtNtCslGh6CY2EcXh_14darwin_metrics8hardware5iokit22___mock_MockIOKit_IOKit13___get_serviceNtB8_11Expectation15return_const_stpE0Bg_
FN:74,_RNCINvMs6_NtNtNtNtCslGh6CY2EcXh_14darwin_metrics8hardware5iokit22___mock_MockIOKit_IOKit14___get_all_fansNtB8_11Expectation12return_constpE0Bg_
FN:74,_RNCINvMs6_NtNtNtNtCslGh6CY2EcXh_14darwin_metrics8hardware5iokit22___mock_MockIOKit_IOKit14___get_all_fansNtB8_11Expectation15return_const_stpE0Bg_
FN:74,_RNCINvMs6_NtNtNtNtCslGh6CY2EcXh_14darwin_metrics8hardware5iokit22___mock_MockIOKit_IOKit14___get_fan_infoNtB8_11Expectation12return_constpE0Bg_
FN:74,_RNCINvMs6_NtNtNtNtCslGh6CY2EcXh_14darwin_metrics8hardware5iokit22___mock_MockIOKit_IOKit14___get_fan_infoNtB8_11Expectation15return_const_stpE0Bg_
FN:74,_RNCINvMs6_NtNtNtNtCslGh6CY2EcXh_14darwin_metrics8hardware5iokit22___mock_MockIOKit_IOKit14___read_smc_keyNtB8_11Expectation12return_constpE0Bg_
FN:74,_RNCINvMs6_NtNtNtNtCslGh6CY2EcXh_14darwin_metrics8hardware5iokit22___mock_MockIOKit_IOKit14___read_smc_keyNtB8_11Expectation15return_const_stpE0Bg_
FN:74,_RNCINvMs6_NtNtNtNtCslGh6CY2EcXh_14darwin_metrics8hardware5iokit22___mock_MockIOKit_IOKit15___get_cpu_powerNtB8_11Expectation12return_constpE0Bg_
FN:74,_RNCINvMs6_NtNtNtNtCslGh6CY2EcXh_14darwin_metrics8hardware5iokit22___mock_MockIOKit_IOKit15___get_cpu_powerNtB8_11Expectation15return_const_stpE0Bg_
FN:74,_RNCINvMs6_NtNtNtNtCslGh6CY2EcXh_14darwin_metrics8hardware5iokit22___mock_MockIOKit_IOKit15___get_fan_countNtB8_11Expectation12return_constpE0Bg_
FN:74,_RNCINvMs6_NtNtNtNtCslGh6CY2EcXh_14darwin_metrics8hardware5iokit22___mock_MockIOKit_IOKit15___get_fan_countNtB8_11Expectation15return_const_stpE0Bg_
FN:74,_RNCINvMs6_NtNtNtNtCslGh6CY2EcXh_14darwin_metrics8hardware5iokit22___mock_MockIOKit_IOKit15___get_fan_speedNtB8_11Expectation12return_constpE0Bg_
FN:74,_RNCINvMs6_NtNtNtNtCslGh6CY2EcXh_14darwin_metrics8hardware5iokit22___mock_MockIOKit_IOKit15___get_fan_speedNtB8_11Expectation15return_const_stpE0Bg_
FN:74,_RNCINvMs6_NtNtNtNtCslGh6CY2EcXh_14darwin_metrics8hardware5iokit22___mock_MockIOKit_IOKit15___get_gpu_statsNtB8_11Expectation12return_constpE0Bg_
FN:74,_RNCINvMs6_NtNtNtNtCslGh6CY2EcXh_14darwin_metrics8hardware5iokit22___mock_MockIOKit_IOKit15___get_gpu_statsNtB8_11Expectation15return_const_stpE0Bg_
FN:74,_RNCINvMs6_NtNtNtNtCslGh6CY2EcXh_14darwin_metrics8hardware5iokit22___mock_MockIOKit_IOKit18___get_thermal_infoNtB8_11Expectation12return_constpE0Bg_
FN:74,_RNCINvMs6_NtNtNtNtCslGh6CY2EcXh_14darwin_metrics8hardware5iokit22___mock_MockIOKit_IOKit18___get_thermal_infoNtB8_11Expectation15return_const_stpE0Bg_
FN:74,_RNCINvMs6_NtNtNtNtCslGh6CY2EcXh_14darwin_metrics8hardware5iokit22___mock_MockIOKit_IOKit19___get_bool_propertyNtB8_11Expectation12return_constpE0Bg_
FN:74,_RNCINvMs6_NtNtNtNtCslGh6CY2EcXh_14darwin_metrics8hardware5iokit22___mock_MockIOKit_IOKit19___get_bool_propertyNtB8_11Expectation15return_const_stpE0Bg_
FN:74,_RNCINvMs6_NtNtNtNtCslGh6CY2EcXh_14darwin_metrics8hardware5iokit22___mock_MockIOKit_IOKit19___get_dict_propertyNtB8_11Expectation12return_constpE0Bg_
FN:74,_RNCINvMs6_NtNtNtNtCslGh6CY2EcXh_14darwin_metrics8hardware5iokit22___mock_MockIOKit_IOKit19___get_dict_propertyNtB8_11Expectation15return_const_stpE0Bg_
FN:74,_RNCINvMs6_NtNtNtNtCslGh6CY2EcXh_14darwin_metrics8hardware5iokit22___mock_MockIOKit_IOKit19___io_object_releaseNtB8_11Expectation12return_constpE0Bg_
FN:74,_RNCINvMs6_NtNtNtNtCslGh6CY2EcXh_14darwin_metrics8hardware5iokit22___mock_MockIOKit_IOKit19___io_object_releaseNtB8_11Expectation15return_const_stpE0Bg_
FN:74,_RNCINvMs6_NtNtNtNtCslGh6CY2EcXh_14darwin_metrics8hardware5iokit22___mock_MockIOKit_IOKit21___get_cpu_temperatureNtB8_11Expectation12return_constpE0Bg_
FN:74,_RNCINvMs6_NtNtNtNtCslGh6CY2EcXh_14darwin_metrics8hardware5iokit22___mock_MockIOKit_IOKit21___get_cpu_temperatureNtB8_11Expectation15return_const_stpE0Bg_
FN:74,_RNCINvMs6_NtNtNtNtCslGh6CY2EcXh_14darwin_metrics8hardware5iokit22___mock_MockIOKit_IOKit21___get_gpu_temperatureNtB8_11Expectation12return_constpE0Bg_
FN:74,_RNCINvMs6_NtNtNtNtCslGh6CY2EcXh_14darwin_metrics8hardware5iokit22___mock_MockIOKit_IOKit21___get_gpu_temperatureNtB8_11Expectation15return_const_stpE0Bg_
FN:74,_RNCINvMs6_NtNtNtNtCslGh6CY2EcXh_14darwin_metrics8hardware5iokit22___mock_MockIOKit_IOKit21___get_number_propertyNtB8_11Expectation12return_constpE0Bg_
FN:74,_RNCINvMs6_NtNtNtNtCslGh6CY2EcXh_14darwin_metrics8hardware5iokit22___mock_MockIOKit_IOKit21___get_number_propertyNtB8_11Expectation15return_const_stpE0Bg_
FN:74,_RNCINvMs6_NtNtNtNtCslGh6CY2EcXh_14darwin_metrics8hardware5iokit22___mock_MockIOKit_IOKit21___get_string_propertyNtB8_11Expectation12return_constpE0Bg_
FN:74,_RNCINvMs6_NtNtNtNtCslGh6CY2EcXh_14darwin_metrics8hardware5iokit22___mock_MockIOKit_IOKit21___get_string_propertyNtB8_11Expectation15return_const_stpE0Bg_
FN:74,_RNCINvMs6_NtNtNtNtCslGh6CY2EcXh_14darwin_metrics8hardware5iokit22___mock_MockIOKit_IOKit21___io_service_matchingNtB8_11Expectation12return_constpE0Bg_
FN:74,_RNCINvMs6_NtNtNtNtCslGh6CY2EcXh_14darwin_metrics8hardware5iokit22___mock_MockIOKit_IOKit21___io_service_matchingNtB8_11Expectation15return_const_stpE0Bg_
FN:74,_RNCINvMs6_NtNtNtNtCslGh6CY2EcXh_14darwin_metrics8hardware5iokit22___mock_MockIOKit_IOKit25___get_ambient_temperatureNtB8_11Expectation12return_constpE0Bg_
FN:74,_RNCINvMs6_NtNtNtNtCslGh6CY2EcXh_14darwin_metrics8hardware5iokit22___mock_MockIOKit_IOKit25___get_ambient_temperatureNtB8_11Expectation15return_const_stpE0Bg_
FN:74,_RNCINvMs6_NtNtNtNtCslGh6CY2EcXh_14darwin_metrics8hardware5iokit22___mock_MockIOKit_IOKit25___get_battery_temperatureNtB8_11Expectation12return_constpE0Bg_
FN:74,_RNCINvMs6_NtNtNtNtCslGh6CY2EcXh_14darwin_metrics8hardware5iokit22___mock_MockIOKit_IOKit25___get_battery_temperatureNtB8_11Expectation15return_const_stpE0Bg_
FN:74,_RNCINvMs6_NtNtNtNtCslGh6CY2EcXh_14darwin_metrics8hardware5iokit22___mock_MockIOKit_IOKit26___check_thermal_throttlingNtB8_11Expectation12return_constpE0Bg_
FN:74,_RNCINvMs6_NtNtNtNtCslGh6CY2EcXh_14darwin_metrics8hardware5iokit22___mock_MockIOKit_IOKit26___check_thermal_throttlingNtB8_11Expectation15return_const_stpE0Bg_
FN:74,_RNCINvMs6_NtNtNtNtCslGh6CY2EcXh_14darwin_metrics8hardware5iokit22___mock_MockIOKit_IOKit26___get_heatsink_temperatureNtB8_11Expectation12return_constpE0Bg_
FN:74,_RNCINvMs6_NtNtNtNtCslGh6CY2EcXh_14darwin_metrics8hardware5iokit22___mock_MockIOKit_IOKit26___get_heatsink_temperatureNtB8_11Expectation15return_const_stpE0Bg_
FN:74,_RNCINvMs6_NtNtNtNtCslGh6CY2EcXh_14darwin_metrics8hardware5iokit22___mock_MockIOKit_IOKit30___io_registry_entry_get_parentNtB8_11Expectation12return_constpE0Bg_
FN:74,_RNCINvMs6_NtNtNtNtCslGh6CY2EcXh_14darwin_metrics8hardware5iokit22___mock_MockIOKit_IOKit30___io_registry_entry_get_parentNtB8_11Expectation15return_const_stpE0Bg_
FN:74,_RNCINvMs6_NtNtNtNtCslGh6CY2EcXh_14darwin_metrics8hardware5iokit22___mock_MockIOKit_IOKit33___io_service_get_matching_serviceNtB8_11Expectation12return_constpE0Bg_
FN:74,_RNCINvMs6_NtNtNtNtCslGh6CY2EcXh_14darwin_metrics8hardware5iokit22___mock_MockIOKit_IOKit33___io_service_get_matching_serviceNtB8_11Expectation15return_const_stpE0Bg_
FN:74,_RNCINvMs6_NtNtNtNtCslGh6CY2EcXh_14darwin_metrics8hardware5iokit22___mock_MockIOKit_IOKit40___io_registry_entry_create_cf_propertiesNtB8_11Expectation12return_constpE0Bg_
FN:74,_RNCINvMs6_NtNtNtNtCslGh6CY2EcXh_14darwin_metrics8hardware5iokit22___mock_MockIOKit_IOKit40___io_registry_entry_create_cf_propertiesNtB8_11Expectation15return_const_stpE0Bg_
FN:74,_RNvMs4_NtNtNtNtCslGh6CY2EcXh_14darwin_metrics8hardware5iokit22___mock_MockIOKit_IOKit13___get_serviceNtB5_6Common5never
FN:74,_RNvMs4_NtNtNtNtCslGh6CY2EcXh_14darwin_metrics8hardware5iokit22___mock_MockIOKit_IOKit14___get_all_fansNtB5_6Common4with
FN:74,_RNvMs4_NtNtNtNtCslGh6CY2EcXh_14darwin_metrics8hardware5iokit22___mock_MockIOKit_IOKit14___get_all_fansNtB5_6Common5never
FN:74,_RNvMs4_NtNtNtNtCslGh6CY2EcXh_14darwin_metrics8hardware5iokit22___mock_MockIOKit_IOKit14___get_fan_infoNtB5_6Common5never
FN:74,_RNvMs4_NtNtNtNtCslGh6CY2EcXh_14darwin_metrics8hardware5iokit22___mock_MockIOKit_IOKit14___read_smc_keyNtB5_6Common5never
FN:74,_RNvMs4_NtNtNtNtCslGh6CY2EcXh_14darwin_metrics8hardware5iokit22___mock_MockIOKit_IOKit15___get_cpu_powerNtB5_6Common4with
FN:74,_RNvMs4_NtNtNtNtCslGh6CY2EcXh_14darwin_metrics8hardware5iokit22___mock_MockIOKit_IOKit15___get_cpu_powerNtB5_6Common5never
FN:74,_RNvMs4_NtNtNtNtCslGh6CY2EcXh_14darwin_metrics8hardware5iokit22___mock_MockIOKit_IOKit15___get_fan_countNtB5_6Common4with
FN:74,_RNvMs4_NtNtNtNtCslGh6CY2EcXh_14darwin_metrics8hardware5iokit22___mock_MockIOKit_IOKit15___get_fan_countNtB5_6Common5never
FN:74,_RNvMs4_NtNtNtNtCslGh6CY2EcXh_14darwin_metrics8hardware5iokit22___mock_MockIOKit_IOKit15___get_fan_speedNtB5_6Common4with
FN:74,_RNvMs4_NtNtNtNtCslGh6CY2EcXh_14darwin_metrics8hardware5iokit22___mock_MockIOKit_IOKit15___get_fan_speedNtB5_6Common5never
FN:74,_RNvMs4_NtNtNtNtCslGh6CY2EcXh_14darwin_metrics8hardware5iokit22___mock_MockIOKit_IOKit15___get_gpu_statsNtB5_6Common4with
FN:74,_RNvMs4_NtNtNtNtCslGh6CY2EcXh_14darwin_metrics8hardware5iokit22___mock_MockIOKit_IOKit15___get_gpu_statsNtB5_6Common5never
FN:74,_RNvMs4_NtNtNtNtCslGh6CY2EcXh_14darwin_metrics8hardware5iokit22___mock_MockIOKit_IOKit18___get_thermal_infoNtB5_6Common4with
FN:74,_RNvMs4_NtNtNtNtCslGh6CY2EcXh_14darwin_metrics8hardware5iokit22___mock_MockIOKit_IOKit18___get_thermal_infoNtB5_6Common5never
FN:74,_RNvMs4_NtNtNtNtCslGh6CY2EcXh_14darwin_metrics8hardware5iokit22___mock_MockIOKit_IOKit19___get_bool_propertyNtB5_6Common5never
FN:74,_RNvMs4_NtNtNtNtCslGh6CY2EcXh_14darwin_metrics8hardware5iokit22___mock_MockIOKit_IOKit19___get_dict_propertyNtB5_6Common5never
FN:74,_RNvMs4_NtNtNtNtCslGh6CY2EcXh_14darwin_metrics8hardware5iokit22___mock_MockIOKit_IOKit19___io_object_releaseNtB5_6Common5never
FN:74,_RNvMs4_NtNtNtNtCslGh6CY2EcXh_14darwin_metrics8hardware5iokit22___mock_MockIOKit_IOKit21___get_cpu_temperatureNtB5_6Common4with
FN:74,_RNvMs4_NtNtNtNtCslGh6CY2EcXh_14darwin_metrics8hardware5iokit22___mock_MockIOKit_IOKit21___get_cpu_temperatureNtB5_6Common5never
FN:74,_RNvMs4_NtNtNtNtCslGh6CY2EcXh_14darwin_metrics8hardware5iokit22___mock_MockIOKit_IOKit21___get_gpu_temperatureNtB5_6Common4with
FN:74,_RNvMs4_NtNtNtNtCslGh6CY2EcXh_14darwin_metrics8hardware5iokit22___mock_MockIOKit_IOKit21___get_gpu_temperatureNtB5_6Common5never
FN:74,_RNvMs4_NtNtNtNtCslGh6CY2EcXh_14darwin_metrics8hardware5iokit22___mock_MockIOKit_IOKit21___get_number_propertyNtB5_6Common5never
FN:74,_RNvMs4_NtNtNtNtCslGh6CY2EcXh_14darwin_metrics8hardware5iokit22___mock_MockIOKit_IOKit21___get_string_propertyNtB5_6Common5never
FN:74,_RNvMs4_NtNtNtNtCslGh6CY2EcXh_14darwin_metrics8hardware5iokit22___mock_MockIOKit_IOKit21___io_service_matchingNtB5_6Common5never
FN:74,_RNvMs4_NtNtNtNtCslGh6CY2EcXh_14darwin_metrics8hardware5iokit22___mock_MockIOKit_IOKit25___get_ambient_temperatureNtB5_6Common4with
FN:74,_RNvMs4_NtNtNtNtCslGh6CY2EcXh_14darwin_metrics8hardware5iokit22___mock_MockIOKit_IOKit25___get_ambient_temperatureNtB5_6Common5never
FN:74,_RNvMs4_NtNtNtNtCslGh6CY2EcXh_14darwin_metrics8hardware5iokit22___mock_MockIOKit_IOKit25___get_battery_temperatureNtB5_6Common4with
FN:74,_RNvMs4_NtNtNtNtCslGh6CY2EcXh_14darwin_metrics8hardware5iokit22___mock_MockIOKit_IOKit25___get_battery_temperatureNtB5_6Common5never
FN:74,_RNvMs4_NtNtNtNtCslGh6CY2EcXh_14darwin_metrics8hardware5iokit22___mock_MockIOKit_IOKit26___check_thermal_throttlingNtB5_6Common4with
FN:74,_RNvMs4_NtNtNtNtCslGh6CY2EcXh_14darwin_metrics8hardware5iokit22___mock_MockIOKit_IOKit26___check_thermal_throttlingNtB5_6Common5never
FN:74,_RNvMs4_NtNtNtNtCslGh6CY2EcXh_14darwin_metrics8hardware5iokit22___mock_MockIOKit_IOKit26___get_heatsink_temperatureNtB5_6Common4with
FN:74,_RNvMs4_NtNtNtNtCslGh6CY2EcXh_14darwin_metrics8hardware5iokit22___mock_MockIOKit_IOKit26___get_heatsink_temperatureNtB5_6Common5never
FN:74,_RNvMs4_NtNtNtNtCslGh6CY2EcXh_14darwin_metrics8hardware5iokit22___mock_MockIOKit_IOKit30___io_registry_entry_get_parentNtB5_6Common5never
FN:74,_RNvMs4_NtNtNtNtCslGh6CY2EcXh_14darwin_metrics8hardware5iokit22___mock_MockIOKit_IOKit33___io_service_get_matching_serviceNtB5_6Common5never
FN:74,_RNvMs4_NtNtNtNtCslGh6CY2EcXh_14darwin_metrics8hardware5iokit22___mock_MockIOKit_IOKit40___io_registry_entry_create_cf_propertiesNtB5_6Common5never
FN:74,_RNvMs6_NtNtNtNtCslGh6CY2EcXh_14darwin_metrics8hardware5iokit22___mock_MockIOKit_IOKit13___get_serviceNtB5_11Expectation11in_sequence
FN:74,_RNvMs6_NtNtNtNtCslGh6CY2EcXh_14darwin_metrics8hardware5iokit22___mock_MockIOKit_IOKit13___get_serviceNtB5_11Expectation3new
FN:74,_RNvMs6_NtNtNtNtCslGh6CY2EcXh_14darwin_metrics8hardware5iokit22___mock_MockIOKit_IOKit13___get_serviceNtB5_11Expectation4once
FN:74,_RNvMs6_NtNtNtNtCslGh6CY2EcXh_14darwin_metrics8hardware5iokit22___mock_MockIOKit_IOKit13___get_serviceNtB5_11Expectation5never
FN:74,_RNvMs6_NtNtNtNtCslGh6CY2EcXh_14darwin_metrics8hardware5iokit22___mock_MockIOKit_IOKit14___get_all_fansNtB5_11Expectation11in_sequence
FN:74,_RNvMs6_NtNtNtNtCslGh6CY2EcXh_14darwin_metrics8hardware5iokit22___mock_MockIOKit_IOKit14___get_all_fansNtB5_11Expectation3new
FN:74,_RNvMs6_NtNtNtNtCslGh6CY2EcXh_14darwin_metrics8hardware5iokit22___mock_MockIOKit_IOKit14___get_all_fansNtB5_11Expectation4once
FN:74,_RNvMs6_NtNtNtNtCslGh6CY2EcXh_14darwin_metrics8hardware5iokit22___mock_MockIOKit_IOKit14___get_all_fansNtB5_11Expectation4with
FN:74,_RNvMs6_NtNtNtNtCslGh6CY2EcXh_14darwin_metrics8hardware5iokit22___mock_MockIOKit_IOKit14___get_all_fansNtB5_11Expectation5never
FN:74,_RNvMs6_NtNtNtNtCslGh6CY2EcXh_14darwin_metrics8hardware5iokit22___mock_MockIOKit_IOKit14___get_fan_infoNtB5_11Expectation11in_sequence
FN:74,_RNvMs6_NtNtNtNtCslGh6CY2EcXh_14darwin_metrics8hardware5iokit22___mock_MockIOKit_IOKit14___get_fan_infoNtB5_11Expectation3new
FN:74,_RNvMs6_NtNtNtNtCslGh6CY2EcXh_14darwin_metrics8hardware5iokit22___mock_MockIOKit_IOKit14___get_fan_infoNtB5_11Expectation4once
FN:74,_RNvMs6_NtNtNtNtCslGh6CY2EcXh_14darwin_metrics8hardware5iokit22___mock_MockIOKit_IOKit14___get_fan_infoNtB5_11Expectation5never
FN:74,_RNvMs6_NtNtNtNtCslGh6CY2EcXh_14darwin_metrics8hardware5iokit22___mock_MockIOKit_IOKit14___read_smc_keyNtB5_11Expectation11in_sequence
FN:74,_RNvMs6_NtNtNtNtCslGh6CY2EcXh_14darwin_metrics8hardware5iokit22___mock_MockIOKit_IOKit14___read_smc_keyNtB5_11Expectation3new
FN:74,_RNvMs6_NtNtNtNtCslGh6CY2EcXh_14darwin_metrics8hardware5iokit22___mock_MockIOKit_IOKit14___read_smc_keyNtB5_11Expectation4once
FN:74,_RNvMs6_NtNtNtNtCslGh6CY2EcXh_14darwin_metrics8hardware5iokit22___mock_MockIOKit_IOKit14___read_smc_keyNtB5_11Expectation5never
FN:74,_RNvMs6_NtNtNtNtCslGh6CY2EcXh_14darwin_metrics8hardware5iokit22___mock_MockIOKit_IOKit15___get_cpu_powerNtB5_11Expectation11in_sequence
FN:74,_RNvMs6_NtNtNtNtCslGh6CY2EcXh_14darwin_metrics8hardware5iokit22___mock_MockIOKit_IOKit15___get_cpu_powerNtB5_11Expectation3new
FN:74,_RNvMs6_NtNtNtNtCslGh6CY2EcXh_14darwin_metrics8hardware5iokit22___mock_MockIOKit_IOKit15___get_cpu_powerNtB5_11Expectation4once
FN:74,_RNvMs6_NtNtNtNtCslGh6CY2EcXh_14darwin_metrics8hardware5iokit22___mock_MockIOKit_IOKit15___get_cpu_powerNtB5_11Expectation4with
FN:74,_RNvMs6_NtNtNtNtCslGh6CY2EcXh_14darwin_metrics8hardware5iokit22___mock_MockIOKit_IOKit15___get_cpu_powerNtB5_11Expectation5never
FN:74,_RNvMs6_NtNtNtNtCslGh6CY2EcXh_14darwin_metrics8hardware5iokit22___mock_MockIOKit_IOKit15___get_fan_countNtB5_11Expectation11in_sequence
FN:74,_RNvMs6_NtNtNtNtCslGh6CY2EcXh_14darwin_metrics8hardware5iokit22___mock_MockIOKit_IOKit15___get_fan_countNtB5_11Expectation3new
FN:74,_RNvMs6_NtNtNtNtCslGh6CY2EcXh_14darwin_metrics8hardware5iokit22___mock_MockIOKit_IOKit15___get_fan_countNtB5_11Expectation4once
FN:74,_RNvMs6_NtNtNtNtCslGh6CY2EcXh_14darwin_metrics8hardware5iokit22___mock_MockIOKit_IOKit15___get_fan_countNtB5_11Expectation4with
FN:74,_RNvMs6_NtNtNtNtCslGh6CY2EcXh_14darwin_metrics8hardware5iokit22___mock_MockIOKit_IOKit15___get_fan_countNtB5_11Expectation5never
FN:74,_RNvMs6_NtNtNtNtCslGh6CY2EcXh_14darwin_metrics8hardware5iokit22___mock_MockIOKit_IOKit15___get_fan_speedNtB5_11Expectation11in_sequence
FN:74,_RNvMs6_NtNtNtNtCslGh6CY2EcXh_14darwin_metrics8hardware5iokit22___mock_MockIOKit_IOKit15___get_fan_speedNtB5_11Expectation3new
FN:74,_RNvMs6_NtNtNtNtCslGh6CY2EcXh_14darwin_metrics8hardware5iokit22___mock_MockIOKit_IOKit15___get_fan_speedNtB5_11Expectation4once
FN:74,_RNvMs6_NtNtNtNtCslGh6CY2EcXh_14darwin_metrics8hardware5iokit22___mock_MockIOKit_IOKit15___get_fan_speedNtB5_11Expectation4with
FN:74,_RNvMs6_NtNtNtNtCslGh6CY2EcXh_14darwin_metrics8hardware5iokit22___mock_MockIOKit_IOKit15___get_fan_speedNtB5_11Expectation5never
FN:74,_RNvMs6_NtNtNtNtCslGh6CY2EcXh_14darwin_metrics8hardware5iokit22___mock_MockIOKit_IOKit15___get_gpu_statsNtB5_11Expectation11in_sequence
FN:74,_RNvMs6_NtNtNtNtCslGh6CY2EcXh_14darwin_metrics8hardware5iokit22___mock_MockIOKit_IOKit15___get_gpu_statsNtB5_11Expectation3new
FN:74,_RNvMs6_NtNtNtNtCslGh6CY2EcXh_14darwin_metrics8hardware5iokit22___mock_MockIOKit_IOKit15___get_gpu_statsNtB5_11Expectation4once
FN:74,_RNvMs6_NtNtNtNtCslGh6CY2EcXh_14darwin_metrics8hardware5iokit22___mock_MockIOKit_IOKit15___get_gpu_statsNtB5_11Expectation4with
FN:74,_RNvMs6_NtNtNtNtCslGh6CY2EcXh_14darwin_metrics8hardware5iokit22___mock_MockIOKit_IOKit15___get_gpu_statsNtB5_11Expectation5never
FN:74,_RNvMs6_NtNtNtNtCslGh6CY2EcXh_14darwin_metrics8hardware5iokit22___mock_MockIOKit_IOKit18___get_thermal_infoNtB5_11Expectation11in_sequence
FN:74,_RNvMs6_NtNtNtNtCslGh6CY2EcXh_14darwin_metrics8hardware5iokit22___mock_MockIOKit_IOKit18___get_thermal_infoNtB5_11Expectation3new
FN:74,_RNvMs6_NtNtNtNtCslGh6CY2EcXh_14darwin_metrics8hardware5iokit22___mock_MockIOKit_IOKit18___get_thermal_infoNtB5_11Expectation4once
FN:74,_RNvMs6_NtNtNtNtCslGh6CY2EcXh_14darwin_metrics8hardware5iokit22___mock_MockIOKit_IOKit18___get_thermal_infoNtB5_11Expectation4with
FN:74,_RNvMs6_NtNtNtNtCslGh6CY2EcXh_14darwin_metrics8hardware5iokit22___mock_MockIOKit_IOKit18___get_thermal_infoNtB5_11Expectation5never
FN:74,_RNvMs6_NtNtNtNtCslGh6CY2EcXh_14darwin_metrics8hardware5iokit22___mock_MockIOKit_IOKit19___get_bool_propertyNtB5_11Expectation11in_sequence
FN:74,_RNvMs6_NtNtNtNtCslGh6CY2EcXh_14darwin_metrics8hardware5iokit22___mock_MockIOKit_IOKit19___get_bool_propertyNtB5_11Expectation3new
FN:74,_RNvMs6_NtNtNtNtCslGh6CY2EcXh_14darwin_metrics8hardware5iokit22___mock_MockIOKit_IOKit19___get_bool_propertyNtB5_11Expectation4once
FN:74,_RNvMs6_NtNtNtNtCslGh6CY2EcXh_14darwin_metrics8hardware5iokit22___mock_MockIOKit_IOKit19___get_bool_propertyNtB5_11Expectation5never
FN:74,_RNvMs6_NtNtNtNtCslGh6CY2EcXh_14darwin_metrics8hardware5iokit22___mock_MockIOKit_IOKit19___get_dict_propertyNtB5_11Expectation11in_sequence
FN:74,_RNvMs6_NtNtNtNtCslGh6CY2EcXh_14darwin_metrics8hardware5iokit22___mock_MockIOKit_IOKit19___get_dict_propertyNtB5_11Expectation3new
FN:74,_RNvMs6_NtNtNtNtCslGh6CY2EcXh_14darwin_metrics8hardware5iokit22___mock_MockIOKit_IOKit19___get_dict_propertyNtB5_11Expectation4once
FN:74,_RNvMs6_NtNtNtNtCslGh6CY2EcXh_14darwin_metrics8hardware5iokit22___mock_MockIOKit_IOKit19___get_dict_propertyNtB5_11Expectation5never
FN:74,_RNvMs6_NtNtNtNtCslGh6CY2EcXh_14darwin_metrics8hardware5iokit22___mock_MockIOKit_IOKit19___io_object_releaseNtB5_11Expectation11in_sequence
FN:74,_RNvMs6_NtNtNtNtCslGh6CY2EcXh_14darwin_metrics8hardware5iokit22___mock_MockIOKit_IOKit19___io_object_releaseNtB5_11Expectation3new
FN:74,_RNvMs6_NtNtNtNtCslGh6CY2EcXh_14darwin_metrics8hardware5iokit22___mock_MockIOKit_IOKit19___io_object_releaseNtB5_11Expectation4once
FN:74,_RNvMs6_NtNtNtNtCslGh6CY2EcXh_14darwin_metrics8hardware5iokit22___mock_MockIOKit_IOKit19___io_object_releaseNtB5_11Expectation5never
FN:74,_RNvMs6_NtNtNtNtCslGh6CY2EcXh_14darwin_metrics8hardware5iokit22___mock_MockIOKit_IOKit21___get_cpu_temperatureNtB5_11Expectation11in_sequence
FN:74,_RNvMs6_NtNtNtNtCslGh6CY2EcXh_14darwin_metrics8hardware5iokit22___mock_MockIOKit_IOKit21___get_cpu_temperatureNtB5_11Expectation3new
FN:74,_RNvMs6_NtNtNtNtCslGh6CY2EcXh_14darwin_metrics8hardware5iokit22___mock_MockIOKit_IOKit21___get_cpu_temperatureNtB5_11Expectation4once
FN:74,_RNvMs6_NtNtNtNtCslGh6CY2EcXh_14darwin_metrics8hardware5iokit22___mock_MockIOKit_IOKit21___get_cpu_temperatureNtB5_11Expectation4with
FN:74,_RNvMs6_NtNtNtNtCslGh6CY2EcXh_14darwin_metrics8hardware5iokit22___mock_MockIOKit_IOKit21___get_cpu_temperatureNtB5_11Expectation5never
FN:74,_RNvMs6_NtNtNtNtCslGh6CY2EcXh_14darwin_metrics8hardware5iokit22___mock_MockIOKit_IOKit21___get_gpu_temperatureNtB5_11Expectation11in_sequence
FN:74,_RNvMs6_NtNtNtNtCslGh6CY2EcXh_14darwin_metrics8hardware5iokit22___mock_MockIOKit_IOKit21___get_gpu_temperatureNtB5_11Expectation3new
FN:74,_RNvMs6_NtNtNtNtCslGh6CY2EcXh_14darwin_metrics8hardware5iokit22___mock_MockIOKit_IOKit21___get_gpu_temperatureNtB5_11Expectation4once
FN:74,_RNvMs6_NtNtNtNtCslGh6CY2EcXh_14darwin_metrics8hardware5iokit22___mock_MockIOKit_IOKit21___get_gpu_temperatureNtB5_11Expectation4with
FN:74,_RNvMs6_NtNtNtNtCslGh6CY2EcXh_14darwin_metrics8hardware5iokit22___mock_MockIOKit_IOKit21___get_gpu_temperatureNtB5_11Expectation5never
FN:74,_RNvMs6_NtNtNtNtCslGh6CY2EcXh_14darwin_metrics8hardware5iokit22___mock_MockIOKit_IOKit21___get_number_propertyNtB5_11Expectation11in_sequence
FN:74,_RNvMs6_NtNtNtNtCslGh6CY2EcXh_14darwin_metrics8hardware5iokit22___mock_MockIOKit_IOKit21___get_number_propertyNtB5_11Expectation3new
FN:74,_RNvMs6_NtNtNtNtCslGh6CY2EcXh_14darwin_metrics8hardware5iokit22___mock_MockIOKit_IOKit21___get_number_propertyNtB5_11Expectation4once
FN:74,_RNvMs6_NtNtNtNtCslGh6CY2EcXh_14darwin_metrics8hardware5iokit22___mock_MockIOKit_IOKit21___get_number_propertyNtB5_11Expectation5never
FN:74,_RNvMs6_NtNtNtNtCslGh6CY2EcXh_14darwin_metrics8hardware5iokit22___mock_MockIOKit_IOKit21___get_string_propertyNtB5_11Expectation11in_sequence
FN:74,_RNvMs6_NtNtNtNtCslGh6CY2EcXh_14darwin_metrics8hardware5iokit22___mock_MockIOKit_IOKit21___get_string_propertyNtB5_11Expectation3new
FN:74,_RNvMs6_NtNtNtNtCslGh6CY2EcXh_14darwin_metrics8hardware5iokit22___mock_MockIOKit_IOKit21___get_string_propertyNtB5_11Expectation4once
FN:74,_RNvMs6_NtNtNtNtCslGh6CY2EcXh_14darwin_metrics8hardware5iokit22___mock_MockIOKit_IOKit21___get_string_propertyNtB5_11Expectation5never
FN:74,_RNvMs6_NtNtNtNtCslGh6CY2EcXh_14darwin_metrics8hardware5iokit22___mock_MockIOKit_IOKit21___io_service_matchingNtB5_11Expectation11in_sequence
FN:74,_RNvMs6_NtNtNtNtCslGh6CY2EcXh_14darwin_metrics8hardware5iokit22___mock_MockIOKit_IOKit21___io_service_matchingNtB5_11Expectation3new
FN:74,_RNvMs6_NtNtNtNtCslGh6CY2EcXh_14darwin_metrics8hardware5iokit22___mock_MockIOKit_IOKit21___io_service_matchingNtB5_11Expectation4once
FN:74,_RNvMs6_NtNtNtNtCslGh6CY2EcXh_14darwin_metrics8hardware5iokit22___mock_MockIOKit_IOKit21___io_service_matchingNtB5_11Expectation5never
FN:74,_RNvMs6_NtNtNtNtCslGh6CY2EcXh_14darwin_metrics8hardware5iokit22___mock_MockIOKit_IOKit25___get_ambient_temperatureNtB5_11Expectation11in_sequence
FN:74,_RNvMs6_NtNtNtNtCslGh6CY2EcXh_14darwin_metrics8hardware5iokit22___mock_MockIOKit_IOKit25___get_ambient_temperatureNtB5_11Expectation3new
FN:74,_RNvMs6_NtNtNtNtCslGh6CY2EcXh_14darwin_metrics8hardware5iokit22___mock_MockIOKit_IOKit25___get_ambient_temperatureNtB5_11Expectation4once
FN:74,_RNvMs6_NtNtNtNtCslGh6CY2EcXh_14darwin_metrics8hardware5iokit22___mock_MockIOKit_IOKit25___get_ambient_temperatureNtB5_11Expectation4with
FN:74,_RNvMs6_NtNtNtNtCslGh6CY2EcXh_14darwin_metrics8hardware5iokit22___mock_MockIOKit_IOKit25___get_ambient_temperatureNtB5_11Expectation5never
FN:74,_RNvMs6_NtNtNtNtCslGh6CY2EcXh_14darwin_metrics8hardware5iokit22___mock_MockIOKit_IOKit25___get_battery_temperatureNtB5_11Expectation11in_sequence
FN:74,_RNvMs6_NtNtNtNtCslGh6CY2EcXh_14darwin_metrics8hardware5iokit22___mock_MockIOKit_IOKit25___get_battery_temperatureNtB5_11Expectation3new
FN:74,_RNvMs6_NtNtNtNtCslGh6CY2EcXh_14darwin_metrics8hardware5iokit22___mock_MockIOKit_IOKit25___get_battery_temperatureNtB5_11Expectation4once
FN:74,_RNvMs6_NtNtNtNtCslGh6CY2EcXh_14darwin_metrics8hardware5iokit22___mock_MockIOKit_IOKit25___get_battery_temperatureNtB5_11Expectation4with
FN:74,_RNvMs6_NtNtNtNtCslGh6CY2EcXh_14darwin_metrics8hardware5iokit22___mock_MockIOKit_IOKit25___get_battery_temperatureNtB5_11Expectation5never
FN:74,_RNvMs6_NtNtNtNtCslGh6CY2EcXh_14darwin_metrics8hardware5iokit22___mock_MockIOKit_IOKit26___check_thermal_throttlingNtB5_11Expectation11in_sequence
FN:74,_RNvMs6_NtNtNtNtCslGh6CY2EcXh_14darwin_metrics8hardware5iokit22___mock_MockIOKit_IOKit26___check_thermal_throttlingNtB5_11Expectation3new
FN:74,_RNvMs6_NtNtNtNtCslGh6CY2EcXh_14darwin_metrics8hardware5iokit22___mock_MockIOKit_IOKit26___check_thermal_throttlingNtB5_11Expectation4once
FN:74,_RNvMs6_NtNtNtNtCslGh6CY2EcXh_14darwin_metrics8hardware5iokit22___mock_MockIOKit_IOKit26___check_thermal_throttlingNtB5_11Expectation4with
FN:74,_RNvMs6_NtNtNtNtCslGh6CY2EcXh_14darwin_metrics8hardware5iokit22___mock_MockIOKit_IOKit26___check_thermal_throttlingNtB5_11Expectation5never
FN:74,_RNvMs6_NtNtNtNtCslGh6CY2EcXh_14darwin_metrics8hardware5iokit22___mock_MockIOKit_IOKit26___get_heatsink_temperatureNtB5_11Expectation11in_sequence
FN:74,_RNvMs6_NtNtNtNtCslGh6CY2EcXh_14darwin_metrics8hardware5iokit22___mock_MockIOKit_IOKit26___get_heatsink_temperatureNtB5_11Expectation3new
FN:74,_RNvMs6_NtNtNtNtCslGh6CY2EcXh_14darwin_metrics8hardware5iokit22___mock_MockIOKit_IOKit26___get_heatsink_temperatureNtB5_11Expectation4once
FN:74,_RNvMs6_NtNtNtNtCslGh6CY2EcXh_14darwin_metrics8hardware5iokit22___mock_MockIOKit_IOKit26___get_heatsink_temperatureNtB5_11Expectation4with
FN:74,_RNvMs6_NtNtNtNtCslGh6CY2EcXh_14darwin_metrics8hardware5iokit22___mock_MockIOKit_IOKit26___get_heatsink_temperatureNtB5_11Expectation5never
FN:74,_RNvMs6_NtNtNtNtCslGh6CY2EcXh_14darwin_metrics8hardware5iokit22___mock_MockIOKit_IOKit30___io_registry_entry_get_parentNtB5_11Expectation11in_sequence
FN:74,_RNvMs6_NtNtNtNtCslGh6CY2EcXh_14darwin_metrics8hardware5iokit22___mock_MockIOKit_IOKit30___io_registry_entry_get_parentNtB5_11Expectation3new
FN:74,_RNvMs6_NtNtNtNtCslGh6CY2EcXh_14darwin_metrics8hardware5iokit22___mock_MockIOKit_IOKit30___io_registry_entry_get_parentNtB5_11Expectation4once
FN:74,_RNvMs6_NtNtNtNtCslGh6CY2EcXh_14darwin_metrics8hardware5iokit22___mock_MockIOKit_IOKit30___io_registry_entry_get_parentNtB5_11Expectation5never
FN:74,_RNvMs6_NtNtNtNtCslGh6CY2EcXh_14darwin_metrics8hardware5iokit22___mock_MockIOKit_IOKit33___io_service_get_matching_serviceNtB5_11Expectation11in_sequence
FN:74,_RNvMs6_NtNtNtNtCslGh6CY2EcXh_14darwin_metrics8hardware5iokit22___mock_MockIOKit_IOKit33___io_service_get_matching_serviceNtB5_11Expectation3new
FN:74,_RNvMs6_NtNtNtNtCslGh6CY2EcXh_14darwin_metrics8hardware5iokit22___mock_MockIOKit_IOKit33___io_service_get_matching_serviceNtB5_11Expectation4once
FN:74,_RNvMs6_NtNtNtNtCslGh6CY2EcXh_14darwin_metrics8hardware5iokit22___mock_MockIOKit_IOKit33___io_service_get_matching_serviceNtB5_11Expectation5never
FN:74,_RNvMs6_NtNtNtNtCslGh6CY2EcXh_14darwin_metrics8hardware5iokit22___mock_MockIOKit_IOKit40___io_registry_entry_create_cf_propertiesNtB5_11Expectation11in_sequence
FN:74,_RNvMs6_NtNtNtNtCslGh6CY2EcXh_14darwin_metrics8hardware5iokit22___mock_MockIOKit_IOKit40___io_registry_entry_create_cf_propertiesNtB5_11Expectation3new
FN:74,_RNvMs6_NtNtNtNtCslGh6CY2EcXh_14darwin_metrics8hardware5iokit22___mock_MockIOKit_IOKit40___io_registry_entry_create_cf_propertiesNtB5_11Expectation4once
FN:74,_RNvMs6_NtNtNtNtCslGh6CY2EcXh_14darwin_metrics8hardware5iokit22___mock_MockIOKit_IOKit40___io_registry_entry_create_cf_propertiesNtB5_11Expectation5never
FN:74,_RNvMs8_NtNtNtNtCslGh6CY2EcXh_14darwin_metrics8hardware5iokit22___mock_MockIOKit_IOKit13___get_serviceNtB5_12Expectations10checkpoint
FN:74,_RNvMs8_NtNtNtNtCslGh6CY2EcXh_14darwin_metrics8hardware5iokit22___mock_MockIOKit_IOKit14___get_all_fansNtB5_12Expectations10checkpoint
FN:74,_RNvMs8_NtNtNtNtCslGh6CY2EcXh_14darwin_metrics8hardware5iokit22___mock_MockIOKit_IOKit14___get_fan_infoNtB5_12Expectations10checkpoint
FN:74,_RNvMs8_NtNtNtNtCslGh6CY2EcXh_14darwin_metrics8hardware5iokit22___mock_MockIOKit_IOKit14___read_smc_keyNtB5_12Expectations10checkpoint
FN:74,_RNvMs8_NtNtNtNtCslGh6CY2EcXh_14darwin_metrics8hardware5iokit22___mock_MockIOKit_IOKit15___get_cpu_powerNtB5_12Expectations10checkpoint
FN:74,_RNvMs8_NtNtNtNtCslGh6CY2EcXh_14darwin_metrics8hardware5iokit22___mock_MockIOKit_IOKit15___get_fan_countNtB5_12Expectations10checkpoint
FN:74,_RNvMs8_NtNtNtNtCslGh6CY2EcXh_14darwin_metrics8hardware5iokit22___mock_MockIOKit_IOKit15___get_fan_speedNtB5_12Expectations10checkpoint
FN:74,_RNvMs8_NtNtNtNtCslGh6CY2EcXh_14darwin_metrics8hardware5iokit22___mock_MockIOKit_IOKit15___get_gpu_statsNtB5_12Expectations10checkpoint
FN:74,_RNvMs8_NtNtNtNtCslGh6CY2EcXh_14darwin_metrics8hardware5iokit22___mock_MockIOKit_IOKit18___get_thermal_infoNtB5_12Expectations10checkpoint
FN:74,_RNvMs8_NtNtNtNtCslGh6CY2EcXh_14darwin_metrics8hardware5iokit22___mock_MockIOKit_IOKit19___get_bool_propertyNtB5_12Expectations10checkpoint
FN:74,_RNvMs8_NtNtNtNtCslGh6CY2EcXh_14darwin_metrics8hardware5iokit22___mock_MockIOKit_IOKit19___get_dict_propertyNtB5_12Expectations10checkpoint
FN:74,_RNvMs8_NtNtNtNtCslGh6CY2EcXh_14darwin_metrics8hardware5iokit22___mock_MockIOKit_IOKit19___io_object_releaseNtB5_12Expectations10checkpoint
FN:74,_RNvMs8_NtNtNtNtCslGh6CY2EcXh_14darwin_metrics8hardware5iokit22___mock_MockIOKit_IOKit19___io_object_releaseNtB5_12Expectations6expect
FN:74,_RNvMs8_NtNtNtNtCslGh6CY2EcXh_14darwin_metrics8hardware5iokit22___mock_MockIOKit_IOKit21___get_cpu_temperatureNtB5_12Expectations10checkpoint
FN:74,_RNvMs8_NtNtNtNtCslGh6CY2EcXh_14darwin_metrics8hardware5iokit22___mock_MockIOKit_IOKit21___get_gpu_temperatureNtB5_12Expectations10checkpoint
FN:74,_RNvMs8_NtNtNtNtCslGh6CY2EcXh_14darwin_metrics8hardware5iokit22___mock_MockIOKit_IOKit21___get_number_propertyNtB5_12Expectations10checkpoint
FN:74,_RNvMs8_NtNtNtNtCslGh6CY2EcXh_14darwin_metrics8hardware5iokit22___mock_MockIOKit_IOKit21___get_string_propertyNtB5_12Expectations10checkpoint
FN:74,_RNvMs8_NtNtNtNtCslGh6CY2EcXh_14darwin_metrics8hardware5iokit22___mock_MockIOKit_IOKit21___io_service_matchingNtB5_12Expectations10checkpoint
FN:74,_RNvMs8_NtNtNtNtCslGh6CY2EcXh_14darwin_metrics8hardware5iokit22___mock_MockIOKit_IOKit25___get_ambient_temperatureNtB5_12Expectations10checkpoint
FN:74,_RNvMs8_NtNtNtNtCslGh6CY2EcXh_14darwin_metrics8hardware5iokit22___mock_MockIOKit_IOKit25___get_battery_temperatureNtB5_12Expectations10checkpoint
FN:74,_RNvMs8_NtNtNtNtCslGh6CY2EcXh_14darwin_metrics8hardware5iokit22___mock_MockIOKit_IOKit26___check_thermal_throttlingNtB5_12Expectations10checkpoint
FN:74,_RNvMs8_NtNtNtNtCslGh6CY2EcXh_14darwin_metrics8hardware5iokit22___mock_MockIOKit_IOKit26___get_heatsink_temperatureNtB5_12Expectations10checkpoint
FN:74,_RNvMs8_NtNtNtNtCslGh6CY2EcXh_14darwin_metrics8hardware5iokit22___mock_MockIOKit_IOKit30___io_registry_entry_get_parentNtB5_12Expectations10checkpoint
FN:74,_RNvMs8_NtNtNtNtCslGh6CY2EcXh_14darwin_metrics8hardware5iokit22___mock_MockIOKit_IOKit33___io_service_get_matching_serviceNtB5_12Expectations10checkpoint
FN:74,_RNvMs8_NtNtNtNtCslGh6CY2EcXh_14darwin_metrics8hardware5iokit22___mock_MockIOKit_IOKit40___io_registry_entry_create_cf_propertiesNtB5_12Expectations10checkpoint
FN:74,_RNvMsa_NtNtCslGh6CY2EcXh_14darwin_metrics8hardware5iokitNtB5_15MockIOKit_IOKit10checkpoint
FN:74,_RNvMsb_NtNtCslGh6CY2EcXh_14darwin_metrics8hardware5iokitNtB5_9MockIOKit10checkpoint
FN:74,_RNvMsd_NtNtCslGh6CY2EcXh_14darwin_metrics8hardware5iokitNtB5_9MockIOKit24expect_io_object_release
FN:74,_RNvXs1_NtNtNtNtCslGh6CY2EcXh_14darwin_metrics8hardware5iokit22___mock_MockIOKit_IOKit19___io_object_releaseNtB5_7MatcherNtNtCs4P3ALgZxGbJ_4core7default7Default7default
FN:74,_RNvXs3_NtNtNtNtCslGh6CY2EcXh_14darwin_metrics8hardware5iokit22___mock_MockIOKit_IOKit19___io_object_releaseNtB5_6CommonNtNtCs4P3ALgZxGbJ_4core7default7Default7default
FN:74,_RNvXs7_NtNtNtNtCslGh6CY2EcXh_14darwin_metrics8hardware5iokit22___mock_MockIOKit_IOKit19___io_object_releaseNtB5_11ExpectationNtNtCs4P3ALgZxGbJ_4core7default7Default7default
FN:74,_RNvXs_NtNtNtNtCslGh6CY2EcXh_14darwin_metrics8hardware5iokit22___mock_MockIOKit_IOKit19___io_object_releaseNtB4_5RfuncNtNtCs4P3ALgZxGbJ_4core7default7Default7default
FN:74,_RINvMs6_NtNtNtNtCslGh6CY2EcXh_14darwin_metrics8hardware5iokit22___mock_MockIOKit_IOKit21___get_string_propertyNtB6_11Expectation9returningNCNvNtBa_5testss_24test_get_string_property0EBe_
FN:1083,_RNCNvNtNtNtCslGh6CY2EcXh_14darwin_metrics8hardware5iokit5testss_24test_get_string_property0B9_
FN:74,_RINvMs6_NtNtNtNtCslGh6CY2EcXh_14darwin_metrics8hardware5iokit22___mock_MockIOKit_IOKit25___get_battery_temperatureNtB6_11Expectation9returningNCNvNtBa_5testss_28test_get_battery_temperature0EBe_
FN:1382,_RNCNvNtNtNtCslGh6CY2EcXh_14darwin_metrics8hardware5iokit5testss_28test_get_battery_temperature0B9_
FN:74,_RNCNvMs0_NtNtNtNtCslGh6CY2EcXh_14darwin_metrics8hardware5iokit22___mock_MockIOKit_IOKit19___get_dict_propertyNtB7_7Matcher7matches0Bf_
FN:74,_RNCNvMsa_NtNtNtNtCslGh6CY2EcXh_14darwin_metrics8hardware5iokit22___mock_MockIOKit_IOKit19___get_dict_propertyNtB7_12Expectations4calls_0Bf_
FN:74,_RNvMs4_NtNtNtNtCslGh6CY2EcXh_14darwin_metrics8hardware5iokit22___mock_MockIOKit_IOKit19___get_dict_propertyNtB5_6Common7is_done
FN:74,_RNvMs4_NtNtNtNtCslGh6CY2EcXh_14darwin_metrics8hardware5iokit22___mock_MockIOKit_IOKit19___get_dict_propertyNtB5_6Common7matches
FN:74,_RNvMs6_NtNtNtNtCslGh6CY2EcXh_14darwin_metrics8hardware5iokit22___mock_MockIOKit_IOKit19___get_dict_propertyNtB5_11Expectation7is_done
FN:74,_RNvMs6_NtNtNtNtCslGh6CY2EcXh_14darwin_metrics8hardware5iokit22___mock_MockIOKit_IOKit19___get_dict_propertyNtB5_11Expectation7matches
FN:74,_RNvMs8_NtNtNtNtCslGh6CY2EcXh_14darwin_metrics8hardware5iokit22___mock_MockIOKit_IOKit19___get_dict_propertyNtB5_12Expectations3new
FN:74,_RNvMs8_NtNtNtNtCslGh6CY2EcXh_14darwin_metrics8hardware5iokit22___mock_MockIOKit_IOKit19___get_dict_propertyNtB5_12Expectations6expect
FN:74,_RNvXs1_NtNtNtNtCslGh6CY2EcXh_14darwin_metrics8hardware5iokit22___mock_MockIOKit_IOKit19___get_dict_propertyNtB5_7MatcherNtNtCs4P3ALgZxGbJ_4core7default7Default7default
FN:74,_RNvXs3_NtNtNtNtCslGh6CY2EcXh_14darwin_metrics8hardware5iokit22___mock_MockIOKit_IOKit19___get_dict_propertyNtB5_6CommonNtNtCs4P3ALgZxGbJ_4core7default7Default7default
FN:74,_RNvXs7_NtNtNtNtCslGh6CY2EcXh_14darwin_metrics8hardware5iokit22___mock_MockIOKit_IOKit19___get_dict_propertyNtB5_11ExpectationNtNtCs4P3ALgZxGbJ_4core7default7Default7default
FN:74,_RNvXs9_NtNtNtNtCslGh6CY2EcXh_14darwin_metrics8hardware5iokit22___mock_MockIOKit_IOKit19___get_dict_propertyNtB5_12ExpectationsNtNtCs4P3ALgZxGbJ_4core7default7Default7default
FN:74,_RNvXs_NtNtNtNtCslGh6CY2EcXh_14darwin_metrics8hardware5iokit22___mock_MockIOKit_IOKit19___get_dict_propertyNtB4_5RfuncNtNtCs4P3ALgZxGbJ_4core7default7Default7default
FN:74,_RINvMs6_NtNtNtNtCslGh6CY2EcXh_14darwin_metrics8hardware5iokit22___mock_MockIOKit_IOKit30___io_registry_entry_get_parentNtB6_11Expectation9returningNCNvNtBa_5testss_33test_io_registry_entry_get_parent0EBe_
FN:1301,_RNCNvNtNtNtCslGh6CY2EcXh_14darwin_metrics8hardware5iokit5testss_33test_io_registry_entry_get_parent0B9_
FN:74,_RINvMs6_NtNtNtNtCslGh6CY2EcXh_14darwin_metrics8hardware5iokit22___mock_MockIOKit_IOKit21___io_service_matchingNtB6_11Expectation9returningNCNvNtBa_5testss_24test_io_service_matching0EBe_
FN:1034,_RNCNvNtNtNtCslGh6CY2EcXh_14darwin_metrics8hardware5iokit5testss_24test_io_service_matching0B9_
FN:74,_RNCNvMs0_NtNtNtNtCslGh6CY2EcXh_14darwin_metrics8hardware5iokit22___mock_MockIOKit_IOKit14___get_fan_infoNtB7_7Matcher7matches0Bf_
FN:74,_RNCNvMsa_NtNtNtNtCslGh6CY2EcXh_14darwin_metrics8hardware5iokit22___mock_MockIOKit_IOKit14___get_fan_infoNtB7_12Expectations4calls_0Bf_
FN:74,_RNvMs4_NtNtNtNtCslGh6CY2EcXh_14darwin_metrics8hardware5iokit22___mock_MockIOKit_IOKit14___get_fan_infoNtB5_6Common7is_done
FN:74,_RNvMs4_NtNtNtNtCslGh6CY2EcXh_14darwin_metrics8hardware5iokit22___mock_MockIOKit_IOKit14___get_fan_infoNtB5_6Common7matches
FN:74,_RNvMs6_NtNtNtNtCslGh6CY2EcXh_14darwin_metrics8hardware5iokit22___mock_MockIOKit_IOKit14___get_fan_infoNtB5_11Expectation7is_done
FN:74,_RNvMs6_NtNtNtNtCslGh6CY2EcXh_14darwin_metrics8hardware5iokit22___mock_MockIOKit_IOKit14___get_fan_infoNtB5_11Expectation7matches
FN:74,_RNvMs8_NtNtNtNtCslGh6CY2EcXh_14darwin_metrics8hardware5iokit22___mock_MockIOKit_IOKit14___get_fan_infoNtB5_12Expectations3new
FN:74,_RNvMs8_NtNtNtNtCslGh6CY2EcXh_14darwin_metrics8hardware5iokit22___mock_MockIOKit_IOKit14___get_fan_infoNtB5_12Expectations6expect
FN:74,_RNvXs1_NtNtNtNtCslGh6CY2EcXh_14darwin_metrics8hardware5iokit22___mock_MockIOKit_IOKit14___get_fan_infoNtB5_7MatcherNtNtCs4P3ALgZxGbJ_4core7default7Default7default
FN:74,_RNvXs3_NtNtNtNtCslGh6CY2EcXh_14darwin_metrics8hardware5iokit22___mock_MockIOKit_IOKit14___get_fan_infoNtB5_6CommonNtNtCs4P3ALgZxGbJ_4core7default7Default7default
FN:74,_RNvXs7_NtNtNtNtCslGh6CY2EcXh_14darwin_metrics8hardware5iokit22___mock_MockIOKit_IOKit14___get_fan_infoNtB5_11ExpectationNtNtCs4P3ALgZxGbJ_4core7default7Default7default
FN:74,_RNvXs9_NtNtNtNtCslGh6CY2EcXh_14darwin_metrics8hardware5iokit22___mock_MockIOKit_IOKit14___get_fan_infoNtB5_12ExpectationsNtNtCs4P3ALgZxGbJ_4core7default7Default7default
FN:74,_RNvXs_NtNtNtNtCslGh6CY2EcXh_14darwin_metrics8hardware5iokit22___mock_MockIOKit_IOKit14___get_fan_infoNtB4_5RfuncNtNtCs4P3ALgZxGbJ_4core7default7Default7default
FN:74,_RINvMs6_NtNtNtNtCslGh6CY2EcXh_14darwin_metrics8hardware5iokit22___mock_MockIOKit_IOKit18___get_thermal_infoNtB6_11Expectation9returningNCNvNtBa_5testss_21test_get_thermal_info0EBe_
FN:74,_RINvMs6_NtNtNtNtCslGh6CY2EcXh_14darwin_metrics8hardware5iokit22___mock_MockIOKit_IOKit18___get_thermal_infoNtB6_11Expectation9returningNCNvNtBa_5testss_35test_get_thermal_info_with_failures0EBe_
FN:1186,_RNCNvNtNtNtCslGh6CY2EcXh_14darwin_metrics8hardware5iokit5testss_21test_get_thermal_info0B9_
FN:1217,_RNCNvNtNtNtCslGh6CY2EcXh_14darwin_metrics8hardware5iokit5testss_35test_get_thermal_info_with_failures0B9_
FN:74,_RINvMs6_NtNtNtNtCslGh6CY2EcXh_14darwin_metrics8hardware5iokit22___mock_MockIOKit_IOKit15___get_gpu_statsNtB6_11Expectation9returningNCNvNtBa_5testss_18test_get_gpu_stats0EBe_
FN:1008,_RNCNvNtNtNtCslGh6CY2EcXh_14darwin_metrics8hardware5iokit5testss_18test_get_gpu_stats0B9_
FN:74,_RINvMs6_NtNtNtNtCslGh6CY2EcXh_14darwin_metrics8hardware5iokit22___mock_MockIOKit_IOKit19___get_bool_propertyNtB6_11Expectation9returningNCNvNtBa_5testss_22test_get_bool_property0EBe_
FN:1135,_RNCNvNtNtNtCslGh6CY2EcXh_14darwin_metrics8hardware5iokit5testss_22test_get_bool_property0B9_
FN:74,_RNCNvMs0_NtNtNtNtCslGh6CY2EcXh_14darwin_metrics8hardware5iokit22___mock_MockIOKit_IOKit15___get_fan_countNtB7_7Matcher7matches0Bf_
FN:74,_RNCNvMsa_NtNtNtNtCslGh6CY2EcXh_14darwin_metrics8hardware5iokit22___mock_MockIOKit_IOKit15___get_fan_countNtB7_12Expectations4calls_0Bf_
FN:74,_RNvMs4_NtNtNtNtCslGh6CY2EcXh_14darwin_metrics8hardware5iokit22___mock_MockIOKit_IOKit15___get_fan_countNtB5_6Common7is_done
FN:74,_RNvMs4_NtNtNtNtCslGh6CY2EcXh_14darwin_metrics8hardware5iokit22___mock_MockIOKit_IOKit15___get_fan_countNtB5_6Common7matches
FN:74,_RNvMs6_NtNtNtNtCslGh6CY2EcXh_14darwin_metrics8hardware5iokit22___mock_MockIOKit_IOKit15___get_fan_countNtB5_11Expectation7is_done
FN:74,_RNvMs6_NtNtNtNtCslGh6CY2EcXh_14darwin_metrics8hardware5iokit22___mock_MockIOKit_IOKit15___get_fan_countNtB5_11Expectation7matches
FN:74,_RNvMs8_NtNtNtNtCslGh6CY2EcXh_14darwin_metrics8hardware5iokit22___mock_MockIOKit_IOKit15___get_fan_countNtB5_12Expectations3new
FN:74,_RNvMs8_NtNtNtNtCslGh6CY2EcXh_14darwin_metrics8hardware5iokit22___mock_MockIOKit_IOKit15___get_fan_countNtB5_12Expectations6expect
FN:74,_RNvXs1_NtNtNtNtCslGh6CY2EcXh_14darwin_metrics8hardware5iokit22___mock_MockIOKit_IOKit15___get_fan_countNtB5_7MatcherNtNtCs4P3ALgZxGbJ_4core7default7Default7default
FN:74,_RNvXs3_NtNtNtNtCslGh6CY2EcXh_14darwin_metrics8hardware5iokit22___mock_MockIOKit_IOKit15___get_fan_countNtB5_6CommonNtNtCs4P3ALgZxGbJ_4core7default7Default7default
FN:74,_RNvXs7_NtNtNtNtCslGh6CY2EcXh_14darwin_metrics8hardware5iokit22___mock_MockIOKit_IOKit15___get_fan_countNtB5_11ExpectationNtNtCs4P3ALgZxGbJ_4core7default7Default7default
FN:74,_RNvXs9_NtNtNtNtCslGh6CY2EcXh_14darwin_metrics8hardware5iokit22___mock_MockIOKit_IOKit15___get_fan_countNtB5_12ExpectationsNtNtCs4P3ALgZxGbJ_4core7default7Default7default
FN:74,_RNvXs_NtNtNtNtCslGh6CY2EcXh_14darwin_metrics8hardware5iokit22___mock_MockIOKit_IOKit15___get_fan_countNtB4_5RfuncNtNtCs4P3ALgZxGbJ_4core7default7Default7default
FN:74,_RNCNvMs0_NtNtNtNtCslGh6CY2EcXh_14darwin_metrics8hardware5iokit22___mock_MockIOKit_IOKit25___get_battery_temperatureNtB7_7Matcher7matches0Bf_
FN:74,_RNCNvMsa_NtNtNtNtCslGh6CY2EcXh_14darwin_metrics8hardware5iokit22___mock_MockIOKit_IOKit25___get_battery_temperatureNtB7_12Expectations4calls_0Bf_
FN:74,_RNvMs4_NtNtNtNtCslGh6CY2EcXh_14darwin_metrics8hardware5iokit22___mock_MockIOKit_IOKit25___get_battery_temperatureNtB5_6Common7is_done
FN:74,_RNvMs4_NtNtNtNtCslGh6CY2EcXh_14darwin_metrics8hardware5iokit22___mock_MockIOKit_IOKit25___get_battery_temperatureNtB5_6Common7matches
FN:74,_RNvMs6_NtNtNtNtCslGh6CY2EcXh_14darwin_metrics8hardware5iokit22___mock_MockIOKit_IOKit25___get_battery_temperatureNtB5_11Expectation7is_done
FN:74,_RNvMs6_NtNtNtNtCslGh6CY2EcXh_14darwin_metrics8hardware5iokit22___mock_MockIOKit_IOKit25___get_battery_temperatureNtB5_11Expectation7matches
FN:74,_RNvMs8_NtNtNtNtCslGh6CY2EcXh_14darwin_metrics8hardware5iokit22___mock_MockIOKit_IOKit25___get_battery_temperatureNtB5_12Expectations3new
FN:74,_RNvMs8_NtNtNtNtCslGh6CY2EcXh_14darwin_metrics8hardware5iokit22___mock_MockIOKit_IOKit25___get_battery_temperatureNtB5_12Expectations6expect
FN:74,_RNvXs1_NtNtNtNtCslGh6CY2EcXh_14darwin_metrics8hardware5iokit22___mock_MockIOKit_IOKit25___get_battery_temperatureNtB5_7MatcherNtNtCs4P3ALgZxGbJ_4core7default7Default7default
FN:74,_RNvXs3_NtNtNtNtCslGh6CY2EcXh_14darwin_metrics8hardware5iokit22___mock_MockIOKit_IOKit25___get_battery_temperatureNtB5_6CommonNtNtCs4P3ALgZxGbJ_4core7default7Default7default
FN:74,_RNvXs7_NtNtNtNtCslGh6CY2EcXh_14darwin_metrics8hardware5iokit22___mock_MockIOKit_IOKit25___get_battery_temperatureNtB5_11ExpectationNtNtCs4P3ALgZxGbJ_4core7default7Default7default
FN:74,_RNvXs9_NtNtNtNtCslGh6CY2EcXh_14darwin_metrics8hardware5iokit22___mock_MockIOKit_IOKit25___get_battery_temperatureNtB5_12ExpectationsNtNtCs4P3ALgZxGbJ_4core7default7Default7default
FN:74,_RNvXs_NtNtNtNtCslGh6CY2EcXh_14darwin_metrics8hardware5iokit22___mock_MockIOKit_IOKit25___get_battery_temperatureNtB4_5RfuncNtNtCs4P3ALgZxGbJ_4core7default7Default7default
FN:916,_RNCNCNvXs_NtNtCslGh6CY2EcXh_14darwin_metrics8hardware5iokitNtB8_9IOKitImplNtB8_5IOKit13get_gpu_stats00Bc_
FN:414,_RNCNCNvXs_NtNtCslGh6CY2EcXh_14darwin_metrics8hardware5iokitNtB8_9IOKitImplNtB8_5IOKit38io_registry_entry_create_cf_properties00Bc_
FN:731,_RNCNvXs_NtNtCslGh6CY2EcXh_14darwin_metrics8hardware5iokitNtB6_9IOKitImplNtB6_5IOKit13get_gpu_stats0Ba_
FN:525,_RNCNvXs_NtNtCslGh6CY2EcXh_14darwin_metrics8hardware5iokitNtB6_9IOKitImplNtB6_5IOKit17get_bool_property0Ba_
FN:526,_RNCNvXs_NtNtCslGh6CY2EcXh_14darwin_metrics8hardware5iokitNtB6_9IOKitImplNtB6_5IOKit17get_bool_propertys_0Ba_
FN:483,_RNCNvXs_NtNtCslGh6CY2EcXh_14darwin_metrics8hardware5iokitNtB6_9IOKitImplNtB6_5IOKit19get_number_property0Ba_
FN:438,_RNCNvXs_NtNtCslGh6CY2EcXh_14darwin_metrics8hardware5iokitNtB6_9IOKitImplNtB6_5IOKit19get_string_property0Ba_
FN:311,_RNCNvXs_NtNtCslGh6CY2EcXh_14darwin_metrics8hardware5iokitNtB6_9IOKitImplNtB6_5IOKit19io_service_matching0Ba_
FN:379,_RNCNvXs_NtNtCslGh6CY2EcXh_14darwin_metrics8hardware5iokitNtB6_9IOKitImplNtB6_5IOKit38io_registry_entry_create_cf_properties0Ba_
FN:134,_RNvMNtNtCslGh6CY2EcXh_14darwin_metrics8hardware5iokitNtB2_9IOKitImpl12smc_read_key
FN:271,_RNvMNtNtCslGh6CY2EcXh_14darwin_metrics8hardware5iokitNtB2_9IOKitImpl14parse_smc_data
FN:74,_RNvMsb_NtNtCslGh6CY2EcXh_14darwin_metrics8hardware5iokitNtB5_9MockIOKit3new
FN:74,_RNvMsd_NtNtCslGh6CY2EcXh_14darwin_metrics8hardware5iokitNtB5_9MockIOKit18expect_get_service
FN:74,_RNvMsd_NtNtCslGh6CY2EcXh_14darwin_metrics8hardware5iokitNtB5_9MockIOKit19expect_get_all_fans
FN:74,_RNvMsd_NtNtCslGh6CY2EcXh_14darwin_metrics8hardware5iokitNtB5_9MockIOKit19expect_get_fan_info
FN:74,_RNvMsd_NtNtCslGh6CY2EcXh_14darwin_metrics8hardware5iokitNtB5_9MockIOKit19expect_read_smc_key
FN:74,_RNvMsd_NtNtCslGh6CY2EcXh_14darwin_metrics8hardware5iokitNtB5_9MockIOKit20expect_get_cpu_power
FN:74,_RNvMsd_NtNtCslGh6CY2EcXh_14darwin_metrics8hardware5iokitNtB5_9MockIOKit20expect_get_fan_count
FN:74,_RNvMsd_NtNtCslGh6CY2EcXh_14darwin_metrics8hardware5iokitNtB5_9MockIOKit20expect_get_fan_speed
FN:74,_RNvMsd_NtNtCslGh6CY2EcXh_14darwin_metrics8hardware5iokitNtB5_9MockIOKit20expect_get_gpu_stats
FN:74,_RNvMsd_NtNtCslGh6CY2EcXh_14darwin_metrics8hardware5iokitNtB5_9MockIOKit23expect_get_thermal_info
FN:74,_RNvMsd_NtNtCslGh6CY2EcXh_14darwin_metrics8hardware5iokitNtB5_9MockIOKit24expect_get_bool_property
FN:74,_RNvMsd_NtNtCslGh6CY2EcXh_14darwin_metrics8hardware5iokitNtB5_9MockIOKit24expect_get_dict_property
FN:74,_RNvMsd_NtNtCslGh6CY2EcXh_14darwin_metrics8hardware5iokitNtB5_9MockIOKit26expect_get_cpu_temperature
FN:74,_RNvMsd_NtNtCslGh6CY2EcXh_14darwin_metrics8hardware5iokitNtB5_9MockIOKit26expect_get_gpu_temperature
FN:74,_RNvMsd_NtNtCslGh6CY2EcXh_14darwin_metrics8hardware5iokitNtB5_9MockIOKit26expect_get_number_property
FN:74,_RNvMsd_NtNtCslGh6CY2EcXh_14darwin_metrics8hardware5iokitNtB5_9MockIOKit26expect_get_string_property
FN:74,_RNvMsd_NtNtCslGh6CY2EcXh_14darwin_metrics8hardware5iokitNtB5_9MockIOKit26expect_io_service_matching
FN:74,_RNvMsd_NtNtCslGh6CY2EcXh_14darwin_metrics8hardware5iokitNtB5_9MockIOKit30expect_get_ambient_temperature
FN:74,_RNvMsd_NtNtCslGh6CY2EcXh_14darwin_metrics8hardware5iokitNtB5_9MockIOKit30expect_get_battery_temperature
FN:74,_RNvMsd_NtNtCslGh6CY2EcXh_14darwin_metrics8hardware5iokitNtB5_9MockIOKit31expect_check_thermal_throttling
FN:74,_RNvMsd_NtNtCslGh6CY2EcXh_14darwin_metrics8hardware5iokitNtB5_9MockIOKit31expect_get_heatsink_temperature
FN:74,_RNvMsd_NtNtCslGh6CY2EcXh_14darwin_metrics8hardware5iokitNtB5_9MockIOKit35expect_io_registry_entry_get_parent
FN:74,_RNvMsd_NtNtCslGh6CY2EcXh_14darwin_metrics8hardware5iokitNtB5_9MockIOKit38expect_io_service_get_matching_service
FN:74,_RNvMsd_NtNtCslGh6CY2EcXh_14darwin_metrics8hardware5iokitNtB5_9MockIOKit45expect_io_registry_entry_create_cf_properties
FN:74,_RNvXs7_NtNtCslGh6CY2EcXh_14darwin_metrics8hardware5iokitNtB5_9MockIOKitNtNtCs4P3ALgZxGbJ_4core3fmt5Debug3fmt
FN:74,_RNvXs8_NtNtCslGh6CY2EcXh_14darwin_metrics8hardware5iokitNtB5_9MockIOKitNtNtCs4P3ALgZxGbJ_4core7default7Default7default
FN:74,_RNvXs9_NtNtCslGh6CY2EcXh_14darwin_metrics8hardware5iokitNtB5_15MockIOKit_IOKitNtNtCs4P3ALgZxGbJ_4core7default7Default7default
FN:586,_RNvXs_NtNtCslGh6CY2EcXh_14darwin_metrics8hardware5iokitNtB4_9IOKitImplNtB4_5IOKit11get_service
FN:701,_RNvXs_NtNtCslGh6CY2EcXh_14darwin_metrics8hardware5iokitNtB4_9IOKitImplNtB4_5IOKit12get_all_fans
FN:663,_RNvXs_NtNtCslGh6CY2EcXh_14darwin_metrics8hardware5iokitNtB4_9IOKitImplNtB4_5IOKit12get_fan_info
FN:646,_RNvXs_NtNtCslGh6CY2EcXh_14darwin_metrics8hardware5iokitNtB4_9IOKitImplNtB4_5IOKit12read_smc_key
FN:613,_RNvXs_NtNtCslGh6CY2EcXh_14darwin_metrics8hardware5iokitNtB4_9IOKitImplNtB4_5IOKit13get_cpu_power
FN:658,_RNvXs_NtNtCslGh6CY2EcXh_14darwin_metrics8hardware5iokitNtB4_9IOKitImplNtB4_5IOKit13get_fan_count
FN:652,_RNvXs_NtNtCslGh6CY2EcXh_14darwin_metrics8hardware5iokitNtB4_9IOKitImplNtB4_5IOKit13get_fan_speed
FN:717,_RNvXs_NtNtCslGh6CY2EcXh_14darwin_metrics8hardware5iokitNtB4_9IOKitImplNtB4_5IOKit13get_gpu_stats
FN:623,_RNvXs_NtNtCslGh6CY2EcXh_14darwin_metrics8hardware5iokitNtB4_9IOKitImplNtB4_5IOKit16get_thermal_info
FN:517,_RNvXs_NtNtCslGh6CY2EcXh_14darwin_metrics8hardware5iokitNtB4_9IOKitImplNtB4_5IOKit17get_bool_property
FN:530,_RNvXs_NtNtCslGh6CY2EcXh_14darwin_metrics8hardware5iokitNtB4_9IOKitImplNtB4_5IOKit17get_dict_property
FN:422,_RNvXs_NtNtCslGh6CY2EcXh_14darwin_metrics8hardware5iokitNtB4_9IOKitImplNtB4_5IOKit17io_object_release
FN:593,_RNvXs_NtNtCslGh6CY2EcXh_14darwin_metrics8hardware5iokitNtB4_9IOKitImplNtB4_5IOKit19get_cpu_temperature
FN:597,_RNvXs_NtNtCslGh6CY2EcXh_14darwin_metrics8hardware5iokitNtB4_9IOKitImplNtB4_5IOKit19get_gpu_temperature
FN:472,_RNvXs_NtNtCslGh6CY2EcXh_14darwin_metrics8hardware5iokitNtB4_9IOKitImplNtB4_5IOKit19get_number_property
FN:427,_RNvXs_NtNtCslGh6CY2EcXh_14darwin_metrics8hardware5iokitNtB4_9IOKitImplNtB4_5IOKit19get_string_property
FN:306,_RNvXs_NtNtCslGh6CY2EcXh_14darwin_metrics8hardware5iokitNtB4_9IOKitImplNtB4_5IOKit19io_service_matching
FN:605,_RNvXs_NtNtCslGh6CY2EcXh_14darwin_metrics8hardware5iokitNtB4_9IOKitImplNtB4_5IOKit23get_ambient_temperature
FN:609,_RNvXs_NtNtCslGh6CY2EcXh_14darwin_metrics8hardware5iokitNtB4_9IOKitImplNtB4_5IOKit23get_battery_temperature
FN:617,_RNvXs_NtNtCslGh6CY2EcXh_14darwin_metrics8hardware5iokitNtB4_9IOKitImplNtB4_5IOKit24check_thermal_throttling
FN:601,_RNvXs_NtNtCslGh6CY2EcXh_14darwin_metrics8hardware5iokitNtB4_9IOKitImplNtB4_5IOKit24get_heatsink_temperature
FN:561,_RNvXs_NtNtCslGh6CY2EcXh_14darwin_metrics8hardware5iokitNtB4_9IOKitImplNtB4_5IOKit28io_registry_entry_get_parent
FN:364,_RNvXs_NtNtCslGh6CY2EcXh_14darwin_metrics8hardware5iokitNtB4_9IOKitImplNtB4_5IOKit31io_service_get_matching_service
FN:373,_RNvXs_NtNtCslGh6CY2EcXh_14darwin_metrics8hardware5iokitNtB4_9IOKitImplNtB4_5IOKit38io_registry_entry_create_cf_properties
FN:74,_RNCNvMs0_NtNtNtNtCslGh6CY2EcXh_14darwin_metrics8hardware5iokit22___mock_MockIOKit_IOKit21___io_service_matchingNtB7_7Matcher7matches0Bf_
FN:74,_RNCNvMsa_NtNtNtNtCslGh6CY2EcXh_14darwin_metrics8hardware5iokit22___mock_MockIOKit_IOKit21___io_service_matchingNtB7_12Expectations4calls_0Bf_
FN:74,_RNvMs4_NtNtNtNtCslGh6CY2EcXh_14darwin_metrics8hardware5iokit22___mock_MockIOKit_IOKit21___io_service_matchingNtB5_6Common7is_done
FN:74,_RNvMs4_NtNtNtNtCslGh6CY2EcXh_14darwin_metrics8hardware5iokit22___mock_MockIOKit_IOKit21___io_service_matchingNtB5_6Common7matches
FN:74,_RNvMs6_NtNtNtNtCslGh6CY2EcXh_14darwin_metrics8hardware5iokit22___mock_MockIOKit_IOKit21___io_service_matchingNtB5_11Expectation7is_done
FN:74,_RNvMs6_NtNtNtNtCslGh6CY2EcXh_14darwin_metrics8hardware5iokit22___mock_MockIOKit_IOKit21___io_service_matchingNtB5_11Expectation7matches
FN:74,_RNvMs8_NtNtNtNtCslGh6CY2EcXh_14darwin_metrics8hardware5iokit22___mock_MockIOKit_IOKit21___io_service_matchingNtB5_12Expectations3new
FN:74,_RNvMs8_NtNtNtNtCslGh6CY2EcXh_14darwin_metrics8hardware5iokit22___mock_MockIOKit_IOKit21___io_service_matchingNtB5_12Expectations6expect
FN:74,_RNvXs1_NtNtNtNtCslGh6CY2EcXh_14darwin_metrics8hardware5iokit22___mock_MockIOKit_IOKit21___io_service_matchingNtB5_7MatcherNtNtCs4P3ALgZxGbJ_4core7default7Default7default
FN:74,_RNvXs3_NtNtNtNtCslGh6CY2EcXh_14darwin_metrics8hardware5iokit22___mock_MockIOKit_IOKit21___io_service_matchingNtB5_6CommonNtNtCs4P3ALgZxGbJ_4core7default7Default7default
FN:74,_RNvXs7_NtNtNtNtCslGh6CY2EcXh_14darwin_metrics8hardware5iokit22___mock_MockIOKit_IOKit21___io_service_matchingNtB5_11ExpectationNtNtCs4P3ALgZxGbJ_4core7default7Default7default
FN:74,_RNvXs9_NtNtNtNtCslGh6CY2EcXh_14darwin_metrics8hardware5iokit22___mock_MockIOKit_IOKit21___io_service_matchingNtB5_12ExpectationsNtNtCs4P3ALgZxGbJ_4core7default7Default7default
FN:74,_RNvXs_NtNtNtNtCslGh6CY2EcXh_14darwin_metrics8hardware5iokit22___mock_MockIOKit_IOKit21___io_service_matchingNtB4_5RfuncNtNtCs4P3ALgZxGbJ_4core7default7Default7default
FN:74,_RINvMs6_NtNtNtNtCslGh6CY2EcXh_14darwin_metrics8hardware5iokit22___mock_MockIOKit_IOKit15___get_cpu_powerNtB6_11Expectation9returningNCNvNtBa_5testss_18test_get_cpu_power0EBe_
FN:1397,_RNCNvNtNtNtCslGh6CY2EcXh_14darwin_metrics8hardware5iokit5testss_18test_get_cpu_power0B9_
FN:74,_RINvMs6_NtNtNtNtCslGh6CY2EcXh_14darwin_metrics8hardware5iokit22___mock_MockIOKit_IOKit15___get_fan_countNtB6_11Expectation9returningNCNvNtBa_5testss_18test_get_fan_count0EBe_
FN:74,_RINvMs6_NtNtNtNtCslGh6CY2EcXh_14darwin_metrics8hardware5iokit22___mock_MockIOKit_IOKit15___get_fan_countNtB6_11Expectation9returningNCNvNtBa_5testss_23test_get_all_fans_empty0EBe_
FN:74,_RINvMs6_NtNtNtNtCslGh6CY2EcXh_14darwin_metrics8hardware5iokit22___mock_MockIOKit_IOKit15___get_fan_countNtB6_11Expectation9returningNCNvNtBa_5testss_33test_get_all_fans_partial_failure0EBe_
FN:1451,_RNCNvNtNtNtCslGh6CY2EcXh_14darwin_metrics8hardware5iokit5testss_18test_get_fan_count0B9_
FN:1503,_RNCNvNtNtNtCslGh6CY2EcXh_14darwin_metrics8hardware5iokit5testss_23test_get_all_fans_empty0B9_
FN:1520,_RNCNvNtNtNtCslGh6CY2EcXh_14darwin_metrics8hardware5iokit5testss_33test_get_all_fans_partial_failure0B9_
FN:74,_RNCNvMs0_NtNtNtNtCslGh6CY2EcXh_14darwin_metrics8hardware5iokit22___mock_MockIOKit_IOKit25___get_ambient_temperatureNtB7_7Matcher7matches0Bf_
FN:74,_RNCNvMsa_NtNtNtNtCslGh6CY2EcXh_14darwin_metrics8hardware5iokit22___mock_MockIOKit_IOKit25___get_ambient_temperatureNtB7_12Expectations4calls_0Bf_
FN:74,_RNvMs4_NtNtNtNtCslGh6CY2EcXh_14darwin_metrics8hardware5iokit22___mock_MockIOKit_IOKit25___get_ambient_temperatureNtB5_6Common7is_done
FN:74,_RNvMs4_NtNtNtNtCslGh6CY2EcXh_14darwin_metrics8hardware5iokit22___mock_MockIOKit_IOKit25___get_ambient_temperatureNtB5_6Common7matches
FN:74,_RNvMs6_NtNtNtNtCslGh6CY2EcXh_14darwin_metrics8hardware5iokit22___mock_MockIOKit_IOKit25___get_ambient_temperatureNtB5_11Expectation7is_done
FN:74,_RNvMs6_NtNtNtNtCslGh6CY2EcXh_14darwin_metrics8hardware5iokit22___mock_MockIOKit_IOKit25___get_ambient_temperatureNtB5_11Expectation7matches
FN:74,_RNvMs8_NtNtNtNtCslGh6CY2EcXh_14darwin_metrics8hardware5iokit22___mock_MockIOKit_IOKit25___get_ambient_temperatureNtB5_12Expectations3new
FN:74,_RNvMs8_NtNtNtNtCslGh6CY2EcXh_14darwin_metrics8hardware5iokit22___mock_MockIOKit_IOKit25___get_ambient_temperatureNtB5_12Expectations6expect
FN:74,_RNvXs1_NtNtNtNtCslGh6CY2EcXh_14darwin_metrics8hardware5iokit22___mock_MockIOKit_IOKit25___get_ambient_temperatureNtB5_7MatcherNtNtCs4P3ALgZxGbJ_4core7default7Default7default
FN:74,_RNvXs3_NtNtNtNtCslGh6CY2EcXh_14darwin_metrics8hardware5iokit22___mock_MockIOKit_IOKit25___get_ambient_temperatureNtB5_6CommonNtNtCs4P3ALgZxGbJ_4core7default7Default7default
FN:74,_RNvXs7_NtNtNtNtCslGh6CY2EcXh_14darwin_metrics8hardware5iokit22___mock_MockIOKit_IOKit25___get_ambient_temperatureNtB5_11ExpectationNtNtCs4P3ALgZxGbJ_4core7default7Default7default
FN:74,_RNvXs9_NtNtNtNtCslGh6CY2EcXh_14darwin_metrics8hardware5iokit22___mock_MockIOKit_IOKit25___get_ambient_temperatureNtB5_12ExpectationsNtNtCs4P3ALgZxGbJ_4core7default7Default7default
FN:74,_RNvXs_NtNtNtNtCslGh6CY2EcXh_14darwin_metrics8hardware5iokit22___mock_MockIOKit_IOKit25___get_ambient_temperatureNtB4_5RfuncNtNtCs4P3ALgZxGbJ_4core7default7Default7default
FN:74,_RNCNvMs0_NtNtNtNtCslGh6CY2EcXh_14darwin_metrics8hardware5iokit22___mock_MockIOKit_IOKit15___get_fan_speedNtB7_7Matcher7matches0Bf_
FN:74,_RNCNvMsa_NtNtNtNtCslGh6CY2EcXh_14darwin_metrics8hardware5iokit22___mock_MockIOKit_IOKit15___get_fan_speedNtB7_12Expectations4calls_0Bf_
FN:74,_RNvMs4_NtNtNtNtCslGh6CY2EcXh_14darwin_metrics8hardware5iokit22___mock_MockIOKit_IOKit15___get_fan_speedNtB5_6Common7is_done
FN:74,_RNvMs4_NtNtNtNtCslGh6CY2EcXh_14darwin_metrics8hardware5iokit22___mock_MockIOKit_IOKit15___get_fan_speedNtB5_6Common7matches
FN:74,_RNvMs6_NtNtNtNtCslGh6CY2EcXh_14darwin_metrics8hardware5iokit22___mock_MockIOKit_IOKit15___get_fan_speedNtB5_11Expectation7is_done
FN:74,_RNvMs6_NtNtNtNtCslGh6CY2EcXh_14darwin_metrics8hardware5iokit22___mock_MockIOKit_IOKit15___get_fan_speedNtB5_11Expectation7matches
FN:74,_RNvMs8_NtNtNtNtCslGh6CY2EcXh_14darwin_metrics8hardware5iokit22___mock_MockIOKit_IOKit15___get_fan_speedNtB5_12Expectations3new
FN:74,_RNvMs8_NtNtNtNtCslGh6CY2EcXh_14darwin_metrics8hardware5iokit22___mock_MockIOKit_IOKit15___get_fan_speedNtB5_12Expectations6expect
FN:74,_RNvXs1_NtNtNtNtCslGh6CY2EcXh_14darwin_metrics8hardware5iokit22___mock_MockIOKit_IOKit15___get_fan_speedNtB5_7MatcherNtNtCs4P3ALgZxGbJ_4core7default7Default7default
FN:74,_RNvXs3_NtNtNtNtCslGh6CY2EcXh_14darwin_metrics8hardware5iokit22___mock_MockIOKit_IOKit15___get_fan_speedNtB5_6CommonNtNtCs4P3ALgZxGbJ_4core7default7Default7default
FN:74,_RNvXs7_NtNtNtNtCslGh6CY2EcXh_14darwin_metrics8hardware5iokit22___mock_MockIOKit_IOKit15___get_fan_speedNtB5_11ExpectationNtNtCs4P3ALgZxGbJ_4core7default7Default7default
FN:74,_RNvXs9_NtNtNtNtCslGh6CY2EcXh_14darwin_metrics8hardware5iokit22___mock_MockIOKit_IOKit15___get_fan_speedNtB5_12ExpectationsNtNtCs4P3ALgZxGbJ_4core7default7Default7default
FN:74,_RNvXs_NtNtNtNtCslGh6CY2EcXh_14darwin_metrics8hardware5iokit22___mock_MockIOKit_IOKit15___get_fan_speedNtB4_5RfuncNtNtCs4P3ALgZxGbJ_4core7default7Default7default
FN:74,_RINvMs6_NtNtNtNtCslGh6CY2EcXh_14darwin_metrics8hardware5iokit22___mock_MockIOKit_IOKit26___check_thermal_throttlingNtB6_11Expectation9returningNCNvNtBa_5testss_29test_check_thermal_throttling0EBe_
FN:74,_RINvMs6_NtNtNtNtCslGh6CY2EcXh_14darwin_metrics8hardware5iokit22___mock_MockIOKit_IOKit26___check_thermal_throttlingNtB6_11Expectation9returningNCNvNtBa_5testss_29test_check_thermal_throttlings_0EBe_
FN:1412,_RNCNvNtNtNtCslGh6CY2EcXh_14darwin_metrics8hardware5iokit5testss_29test_check_thermal_throttling0B9_
FN:1422,_RNCNvNtNtNtCslGh6CY2EcXh_14darwin_metrics8hardware5iokit5testss_29test_check_thermal_throttlings_0B9_
FN:74,_RINvMs6_NtNtNtNtCslGh6CY2EcXh_14darwin_metrics8hardware5iokit22___mock_MockIOKit_IOKit21___get_cpu_temperatureNtB6_11Expectation9returningNCNvMNtNtNtBc_3cpu8cpu_impl5testsNtB2j_3CPU13new_with_mock0EBe_
FN:74,_RINvMs6_NtNtNtNtCslGh6CY2EcXh_14darwin_metrics8hardware5iokit22___mock_MockIOKit_IOKit21___get_cpu_temperatureNtB6_11Expectation9returningNCNvNtBa_5testss_24test_get_cpu_temperature0EBe_
FN:978,_RNCNvNtNtNtCslGh6CY2EcXh_14darwin_metrics8hardware5iokit5testss_24test_get_cpu_temperature0B9_
FN:74,_RINvMs6_NtNtNtNtCslGh6CY2EcXh_14darwin_metrics8hardware5iokit22___mock_MockIOKit_IOKit40___io_registry_entry_create_cf_propertiesNtB6_11Expectation9returningNCNvNtBa_5testss_43test_io_registry_entry_create_cf_properties0EBe_
FN:1067,_RNCNvNtNtNtCslGh6CY2EcXh_14darwin_metrics8hardware5iokit5testss_43test_io_registry_entry_create_cf_properties0B9_
FN:74,_RINvMs6_NtNtNtNtCslGh6CY2EcXh_14darwin_metrics8hardware5iokit22___mock_MockIOKit_IOKit21___get_gpu_temperatureNtB6_11Expectation9returningNCNvNtBa_5testss_24test_get_gpu_temperature0EBe_
FN:993,_RNCNvNtNtNtCslGh6CY2EcXh_14darwin_metrics8hardware5iokit5testss_24test_get_gpu_temperature0B9_
FN:74,_RNCNvMs0_NtNtNtNtCslGh6CY2EcXh_14darwin_metrics8hardware5iokit22___mock_MockIOKit_IOKit30___io_registry_entry_get_parentNtB7_7Matcher7matches0Bf_
FN:74,_RNCNvMsa_NtNtNtNtCslGh6CY2EcXh_14darwin_metrics8hardware5iokit22___mock_MockIOKit_IOKit30___io_registry_entry_get_parentNtB7_12Expectations4calls_0Bf_
FN:74,_RNvMs4_NtNtNtNtCslGh6CY2EcXh_14darwin_metrics8hardware5iokit22___mock_MockIOKit_IOKit30___io_registry_entry_get_parentNtB5_6Common7is_done
FN:74,_RNvMs4_NtNtNtNtCslGh6CY2EcXh_14darwin_metrics8hardware5iokit22___mock_MockIOKit_IOKit30___io_registry_entry_get_parentNtB5_6Common7matches
FN:74,_RNvMs6_NtNtNtNtCslGh6CY2EcXh_14darwin_metrics8hardware5iokit22___mock_MockIOKit_IOKit30___io_registry_entry_get_parentNtB5_11Expectation7is_done
FN:74,_RNvMs6_NtNtNtNtCslGh6CY2EcXh_14darwin_metrics8hardware5iokit22___mock_MockIOKit_IOKit30___io_registry_entry_get_parentNtB5_11Expectation7matches
FN:74,_RNvMs8_NtNtNtNtCslGh6CY2EcXh_14darwin_metrics8hardware5iokit22___mock_MockIOKit_IOKit30___io_registry_entry_get_parentNtB5_12Expectations3new
FN:74,_RNvMs8_NtNtNtNtCslGh6CY2EcXh_14darwin_metrics8hardware5iokit22___mock_MockIOKit_IOKit30___io_registry_entry_get_parentNtB5_12Expectations6expect
FN:74,_RNvXs1_NtNtNtNtCslGh6CY2EcXh_14darwin_metrics8hardware5iokit22___mock_MockIOKit_IOKit30___io_registry_entry_get_parentNtB5_7MatcherNtNtCs4P3ALgZxGbJ_4core7default7Default7default
FN:74,_RNvXs3_NtNtNtNtCslGh6CY2EcXh_14darwin_metrics8hardware5iokit22___mock_MockIOKit_IOKit30___io_registry_entry_get_parentNtB5_6CommonNtNtCs4P3ALgZxGbJ_4core7default7Default7default
FN:74,_RNvXs7_NtNtNtNtCslGh6CY2EcXh_14darwin_metrics8hardware5iokit22___mock_MockIOKit_IOKit30___io_registry_entry_get_parentNtB5_11ExpectationNtNtCs4P3ALgZxGbJ_4core7default7Default7default
FN:74,_RNvXs9_NtNtNtNtCslGh6CY2EcXh_14darwin_metrics8hardware5iokit22___mock_MockIOKit_IOKit30___io_registry_entry_get_parentNtB5_12ExpectationsNtNtCs4P3ALgZxGbJ_4core7default7Default7default
FN:74,_RNvXs_NtNtNtNtCslGh6CY2EcXh_14darwin_metrics8hardware5iokit22___mock_MockIOKit_IOKit30___io_registry_entry_get_parentNtB4_5RfuncNtNtCs4P3ALgZxGbJ_4core7default7Default7default
FN:74,_RNCNvMs0_NtNtNtNtCslGh6CY2EcXh_14darwin_metrics8hardware5iokit22___mock_MockIOKit_IOKit15___get_gpu_statsNtB7_7Matcher7matches0Bf_
FN:74,_RNCNvMsa_NtNtNtNtCslGh6CY2EcXh_14darwin_metrics8hardware5iokit22___mock_MockIOKit_IOKit15___get_gpu_statsNtB7_12Expectations4calls_0Bf_
FN:74,_RNvMs4_NtNtNtNtCslGh6CY2EcXh_14darwin_metrics8hardware5iokit22___mock_MockIOKit_IOKit15___get_gpu_statsNtB5_6Common7is_done
FN:74,_RNvMs4_NtNtNtNtCslGh6CY2EcXh_14darwin_metrics8hardware5iokit22___mock_MockIOKit_IOKit15___get_gpu_statsNtB5_6Common7matches
FN:74,_RNvMs6_NtNtNtNtCslGh6CY2EcXh_14darwin_metrics8hardware5iokit22___mock_MockIOKit_IOKit15___get_gpu_statsNtB5_11Expectation7is_done
FN:74,_RNvMs6_NtNtNtNtCslGh6CY2EcXh_14darwin_metrics8hardware5iokit22___mock_MockIOKit_IOKit15___get_gpu_statsNtB5_11Expectation7matches
FN:74,_RNvMs8_NtNtNtNtCslGh6CY2EcXh_14darwin_metrics8hardware5iokit22___mock_MockIOKit_IOKit15___get_gpu_statsNtB5_12Expectations3new
FN:74,_RNvMs8_NtNtNtNtCslGh6CY2EcXh_14darwin_metrics8hardware5iokit22___mock_MockIOKit_IOKit15___get_gpu_statsNtB5_12Expectations6expect
FN:74,_RNvXs1_NtNtNtNtCslGh6CY2EcXh_14darwin_metrics8hardware5iokit22___mock_MockIOKit_IOKit15___get_gpu_statsNtB5_7MatcherNtNtCs4P3ALgZxGbJ_4core7default7Default7default
FN:74,_RNvXs3_NtNtNtNtCslGh6CY2EcXh_14darwin_metrics8hardware5iokit22___mock_MockIOKit_IOKit15___get_gpu_statsNtB5_6CommonNtNtCs4P3ALgZxGbJ_4core7default7Default7default
FN:74,_RNvXs7_NtNtNtNtCslGh6CY2EcXh_14darwin_metrics8hardware5iokit22___mock_MockIOKit_IOKit15___get_gpu_statsNtB5_11ExpectationNtNtCs4P3ALgZxGbJ_4core7default7Default7default
FN:74,_RNvXs9_NtNtNtNtCslGh6CY2EcXh_14darwin_metrics8hardware5iokit22___mock_MockIOKit_IOKit15___get_gpu_statsNtB5_12ExpectationsNtNtCs4P3ALgZxGbJ_4core7default7Default7default
FN:74,_RNvXs_NtNtNtNtCslGh6CY2EcXh_14darwin_metrics8hardware5iokit22___mock_MockIOKit_IOKit15___get_gpu_statsNtB4_5RfuncNtNtCs4P3ALgZxGbJ_4core7default7Default7default
FN:74,_RINvMs6_NtNtNtNtCslGh6CY2EcXh_14darwin_metrics8hardware5iokit22___mock_MockIOKit_IOKit21___get_number_propertyNtB6_11Expectation9returningNCNvNtBa_5testss_24test_get_number_property0EBe_
FN:1109,_RNCNvNtNtNtCslGh6CY2EcXh_14darwin_metrics8hardware5iokit5testss_24test_get_number_property0B9_
FN:916,_RNCNCNvXs_NtNtCsGBPSOZydBW_14darwin_metrics8hardware5iokitNtB8_9IOKitImplNtB8_5IOKit13get_gpu_stats00Bc_
FN:414,_RNCNCNvXs_NtNtCsGBPSOZydBW_14darwin_metrics8hardware5iokitNtB8_9IOKitImplNtB8_5IOKit38io_registry_entry_create_cf_properties00Bc_
FN:731,_RNCNvXs_NtNtCsGBPSOZydBW_14darwin_metrics8hardware5iokitNtB6_9IOKitImplNtB6_5IOKit13get_gpu_stats0Ba_
FN:525,_RNCNvXs_NtNtCsGBPSOZydBW_14darwin_metrics8hardware5iokitNtB6_9IOKitImplNtB6_5IOKit17get_bool_property0Ba_
FN:526,_RNCNvXs_NtNtCsGBPSOZydBW_14darwin_metrics8hardware5iokitNtB6_9IOKitImplNtB6_5IOKit17get_bool_propertys_0Ba_
FN:483,_RNCNvXs_NtNtCsGBPSOZydBW_14darwin_metrics8hardware5iokitNtB6_9IOKitImplNtB6_5IOKit19get_number_property0Ba_
FN:438,_RNCNvXs_NtNtCsGBPSOZydBW_14darwin_metrics8hardware5iokitNtB6_9IOKitImplNtB6_5IOKit19get_string_property0Ba_
FN:311,_RNCNvXs_NtNtCsGBPSOZydBW_14darwin_metrics8hardware5iokitNtB6_9IOKitImplNtB6_5IOKit19io_service_matching0Ba_
FN:379,_RNCNvXs_NtNtCsGBPSOZydBW_14darwin_metrics8hardware5iokitNtB6_9IOKitImplNtB6_5IOKit38io_registry_entry_create_cf_properties0Ba_
FN:134,_RNvMNtNtCsGBPSOZydBW_14darwin_metrics8hardware5iokitNtB2_9IOKitImpl12smc_read_key
FN:586,_RNvXs_NtNtCsGBPSOZydBW_14darwin_metrics8hardware5iokitNtB4_9IOKitImplNtB4_5IOKit11get_service
FN:701,_RNvXs_NtNtCsGBPSOZydBW_14darwin_metrics8hardware5iokitNtB4_9IOKitImplNtB4_5IOKit12get_all_fans
FN:663,_RNvXs_NtNtCsGBPSOZydBW_14darwin_metrics8hardware5iokitNtB4_9IOKitImplNtB4_5IOKit12get_fan_info
FN:646,_RNvXs_NtNtCsGBPSOZydBW_14darwin_metrics8hardware5iokitNtB4_9IOKitImplNtB4_5IOKit12read_smc_key
FN:613,_RNvXs_NtNtCsGBPSOZydBW_14darwin_metrics8hardware5iokitNtB4_9IOKitImplNtB4_5IOKit13get_cpu_power
FN:658,_RNvXs_NtNtCsGBPSOZydBW_14darwin_metrics8hardware5iokitNtB4_9IOKitImplNtB4_5IOKit13get_fan_count
FN:652,_RNvXs_NtNtCsGBPSOZydBW_14darwin_metrics8hardware5iokitNtB4_9IOKitImplNtB4_5IOKit13get_fan_speed
FN:717,_RNvXs_NtNtCsGBPSOZydBW_14darwin_metrics8hardware5iokitNtB4_9IOKitImplNtB4_5IOKit13get_gpu_stats
FN:623,_RNvXs_NtNtCsGBPSOZydBW_14darwin_metrics8hardware5iokitNtB4_9IOKitImplNtB4_5IOKit16get_thermal_info
FN:517,_RNvXs_NtNtCsGBPSOZydBW_14darwin_metrics8hardware5iokitNtB4_9IOKitImplNtB4_5IOKit17get_bool_property
FN:530,_RNvXs_NtNtCsGBPSOZydBW_14darwin_metrics8hardware5iokitNtB4_9IOKitImplNtB4_5IOKit17get_dict_property
FN:422,_RNvXs_NtNtCsGBPSOZydBW_14darwin_metrics8hardware5iokitNtB4_9IOKitImplNtB4_5IOKit17io_object_release
FN:593,_RNvXs_NtNtCsGBPSOZydBW_14darwin_metrics8hardware5iokitNtB4_9IOKitImplNtB4_5IOKit19get_cpu_temperature
FN:597,_RNvXs_NtNtCsGBPSOZydBW_14darwin_metrics8hardware5iokitNtB4_9IOKitImplNtB4_5IOKit19get_gpu_temperature
FN:472,_RNvXs_NtNtCsGBPSOZydBW_14darwin_metrics8hardware5iokitNtB4_9IOKitImplNtB4_5IOKit19get_number_property
FN:427,_RNvXs_NtNtCsGBPSOZydBW_14darwin_metrics8hardware5iokitNtB4_9IOKitImplNtB4_5IOKit19get_string_property
FN:306,_RNvXs_NtNtCsGBPSOZydBW_14darwin_metrics8hardware5iokitNtB4_9IOKitImplNtB4_5IOKit19io_service_matching
FN:605,_RNvXs_NtNtCsGBPSOZydBW_14darwin_metrics8hardware5iokitNtB4_9IOKitImplNtB4_5IOKit23get_ambient_temperature
FN:609,_RNvXs_NtNtCsGBPSOZydBW_14darwin_metrics8hardware5iokitNtB4_9IOKitImplNtB4_5IOKit23get_battery_temperature
FN:617,_RNvXs_NtNtCsGBPSOZydBW_14darwin_metrics8hardware5iokitNtB4_9IOKitImplNtB4_5IOKit24check_thermal_throttling
FN:601,_RNvXs_NtNtCsGBPSOZydBW_14darwin_metrics8hardware5iokitNtB4_9IOKitImplNtB4_5IOKit24get_heatsink_temperature
FN:561,_RNvXs_NtNtCsGBPSOZydBW_14darwin_metrics8hardware5iokitNtB4_9IOKitImplNtB4_5IOKit28io_registry_entry_get_parent
FN:364,_RNvXs_NtNtCsGBPSOZydBW_14darwin_metrics8hardware5iokitNtB4_9IOKitImplNtB4_5IOKit31io_service_get_matching_service
FN:373,_RNvXs_NtNtCsGBPSOZydBW_14darwin_metrics8hardware5iokitNtB4_9IOKitImplNtB4_5IOKit38io_registry_entry_create_cf_properties
FNDA:0,_RNCNvMs0_NtNtNtNtCslGh6CY2EcXh_14darwin_metrics8hardware5iokit22___mock_MockIOKit_IOKit19___io_object_releaseNtB7_7Matcher7matches0Bf_
FNDA:0,_RNCNvMsa_NtNtNtNtCslGh6CY2EcXh_14darwin_metrics8hardware5iokit22___mock_MockIOKit_IOKit19___io_object_releaseNtB7_12Expectations4calls_0Bf_
FNDA:0,_RNvMs4_NtNtNtNtCslGh6CY2EcXh_14darwin_metrics8hardware5iokit22___mock_MockIOKit_IOKit19___io_object_releaseNtB5_6Common7is_done
FNDA:0,_RNvMs4_NtNtNtNtCslGh6CY2EcXh_14darwin_metrics8hardware5iokit22___mock_MockIOKit_IOKit19___io_object_releaseNtB5_6Common7matches
FNDA:0,_RNvMs6_NtNtNtNtCslGh6CY2EcXh_14darwin_metrics8hardware5iokit22___mock_MockIOKit_IOKit19___io_object_releaseNtB5_11Expectation7is_done
FNDA:0,_RNvMs6_NtNtNtNtCslGh6CY2EcXh_14darwin_metrics8hardware5iokit22___mock_MockIOKit_IOKit19___io_object_releaseNtB5_11Expectation7matches
FNDA:32,_RNvMs8_NtNtNtNtCslGh6CY2EcXh_14darwin_metrics8hardware5iokit22___mock_MockIOKit_IOKit19___io_object_releaseNtB5_12Expectations3new
FNDA:32,_RNvXs9_NtNtNtNtCslGh6CY2EcXh_14darwin_metrics8hardware5iokit22___mock_MockIOKit_IOKit19___io_object_releaseNtB5_12ExpectationsNtNtCs4P3ALgZxGbJ_4core7default7Default7default
FNDA:1,_RINvMs6_NtNtNtNtCslGh6CY2EcXh_14darwin_metrics8hardware5iokit22___mock_MockIOKit_IOKit14___get_all_fansNtB6_11Expectation9returningNCNvNtBa_5testss_17test_get_all_fans0EBe_
FNDA:1,_RINvMs6_NtNtNtNtCslGh6CY2EcXh_14darwin_metrics8hardware5iokit22___mock_MockIOKit_IOKit14___get_all_fansNtB6_11Expectation9returningNCNvNtBa_5testss_23test_get_all_fans_emptys_0EBe_
FNDA:1,_RNCNvNtNtNtCslGh6CY2EcXh_14darwin_metrics8hardware5iokit5testss_17test_get_all_fans0B9_
FNDA:1,_RNCNvNtNtNtCslGh6CY2EcXh_14darwin_metrics8hardware5iokit5testss_23test_get_all_fans_emptys_0B9_
FNDA:1,_RINvMs4_NtNtNtNtCslGh6CY2EcXh_14darwin_metrics8hardware5iokit22___mock_MockIOKit_IOKit14___read_smc_keyNtB6_6Common4withINtNtCsgobV6Adt4VM_10predicates3ord11EqPredicateAaj4_EEBe_
FNDA:1,_RINvMs6_NtNtNtNtCslGh6CY2EcXh_14darwin_metrics8hardware5iokit22___mock_MockIOKit_IOKit14___read_smc_keyNtB6_11Expectation4withINtNtCsgobV6Adt4VM_10predicates3ord11EqPredicateAaj4_EEBe_
FNDA:1,_RINvMs6_NtNtNtNtCslGh6CY2EcXh_14darwin_metrics8hardware5iokit22___mock_MockIOKit_IOKit14___read_smc_keyNtB6_11Expectation9returningNCNvNtBa_5testss_17test_read_smc_key0EBe_
FNDA:1,_RNCNvNtNtNtCslGh6CY2EcXh_14darwin_metrics8hardware5iokit5testss_17test_read_smc_key0B9_
FNDA:0,_RNCNvMs0_NtNtNtNtCslGh6CY2EcXh_14darwin_metrics8hardware5iokit22___mock_MockIOKit_IOKit18___get_thermal_infoNtB7_7Matcher7matches0Bf_
FNDA:2,_RNCNvMsa_NtNtNtNtCslGh6CY2EcXh_14darwin_metrics8hardware5iokit22___mock_MockIOKit_IOKit18___get_thermal_infoNtB7_12Expectations4calls_0Bf_
FNDA:2,_RNvMs4_NtNtNtNtCslGh6CY2EcXh_14darwin_metrics8hardware5iokit22___mock_MockIOKit_IOKit18___get_thermal_infoNtB5_6Common7is_done
FNDA:2,_RNvMs4_NtNtNtNtCslGh6CY2EcXh_14darwin_metrics8hardware5iokit22___mock_MockIOKit_IOKit18___get_thermal_infoNtB5_6Common7matches
FNDA:2,_RNvMs6_NtNtNtNtCslGh6CY2EcXh_14darwin_metrics8hardware5iokit22___mock_MockIOKit_IOKit18___get_thermal_infoNtB5_11Expectation7is_done
FNDA:2,_RNvMs6_NtNtNtNtCslGh6CY2EcXh_14darwin_metrics8hardware5iokit22___mock_MockIOKit_IOKit18___get_thermal_infoNtB5_11Expectation7matches
FNDA:32,_RNvMs8_NtNtNtNtCslGh6CY2EcXh_14darwin_metrics8hardware5iokit22___mock_MockIOKit_IOKit18___get_thermal_infoNtB5_12Expectations3new
FNDA:2,_RNvMs8_NtNtNtNtCslGh6CY2EcXh_14darwin_metrics8hardware5iokit22___mock_MockIOKit_IOKit18___get_thermal_infoNtB5_12Expectations6expect
FNDA:2,_RNvXs1_NtNtNtNtCslGh6CY2EcXh_14darwin_metrics8hardware5iokit22___mock_MockIOKit_IOKit18___get_thermal_infoNtB5_7MatcherNtNtCs4P3ALgZxGbJ_4core7default7Default7default
FNDA:2,_RNvXs3_NtNtNtNtCslGh6CY2EcXh_14darwin_metrics8hardware5iokit22___mock_MockIOKit_IOKit18___get_thermal_infoNtB5_6CommonNtNtCs4P3ALgZxGbJ_4core7default7Default7default
FNDA:2,_RNvXs7_NtNtNtNtCslGh6CY2EcXh_14darwin_metrics8hardware5iokit22___mock_MockIOKit_IOKit18___get_thermal_infoNtB5_11ExpectationNtNtCs4P3ALgZxGbJ_4core7default7Default7default
FNDA:32,_RNvXs9_NtNtNtNtCslGh6CY2EcXh_14darwin_metrics8hardware5iokit22___mock_MockIOKit_IOKit18___get_thermal_infoNtB5_12ExpectationsNtNtCs4P3ALgZxGbJ_4core7default7Default7default
FNDA:2,_RNvXs_NtNtNtNtCslGh6CY2EcXh_14darwin_metrics8hardware5iokit22___mock_MockIOKit_IOKit18___get_thermal_infoNtB4_5RfuncNtNtCs4P3ALgZxGbJ_4core7default7Default7default
FNDA:1,_RINvMs6_NtNtNtNtCslGh6CY2EcXh_14darwin_metrics8hardware5iokit22___mock_MockIOKit_IOKit15___get_fan_speedNtB6_11Expectation9returningNCNvNtBa_5testss_18test_get_fan_speed0EBe_
FNDA:1,_RNCNvNtNtNtCslGh6CY2EcXh_14darwin_metrics8hardware5iokit5testss_18test_get_fan_speed0B9_
FNDA:4,_RINvMs4_NtNtNtNtCslGh6CY2EcXh_14darwin_metrics8hardware5iokit22___mock_MockIOKit_IOKit14___get_fan_infoNtB6_6Common4withINtNtCsgobV6Adt4VM_10predicates3ord11EqPredicatemEEBe_
FNDA:4,_RINvMs6_NtNtNtNtCslGh6CY2EcXh_14darwin_metrics8hardware5iokit22___mock_MockIOKit_IOKit14___get_fan_infoNtB6_11Expectation4withINtNtCsgobV6Adt4VM_10predicates3ord11EqPredicatemEEBe_
FNDA:1,_RINvMs6_NtNtNtNtCslGh6CY2EcXh_14darwin_metrics8hardware5iokit22___mock_MockIOKit_IOKit14___get_fan_infoNtB6_11Expectation9returningNCNvNtBa_5testss_17test_get_fan_info0EBe_
FNDA:1,_RINvMs6_NtNtNtNtCslGh6CY2EcXh_14darwin_metrics8hardware5iokit22___mock_MockIOKit_IOKit14___get_fan_infoNtB6_11Expectation9returningNCNvNtBa_5testss_31test_get_fan_info_min_max_equal0EBe_
FNDA:1,_RINvMs6_NtNtNtNtCslGh6CY2EcXh_14darwin_metrics8hardware5iokit22___mock_MockIOKit_IOKit14___get_fan_infoNtB6_11Expectation9returningNCNvNtBa_5testss_33test_get_all_fans_partial_failures0_0EBe_
FNDA:1,_RINvMs6_NtNtNtNtCslGh6CY2EcXh_14darwin_metrics8hardware5iokit22___mock_MockIOKit_IOKit14___get_fan_infoNtB6_11Expectation9returningNCNvNtBa_5testss_33test_get_all_fans_partial_failures_0EBe_
FNDA:1,_RNCNvNtNtNtCslGh6CY2EcXh_14darwin_metrics8hardware5iokit5testss_17test_get_fan_info0B9_
FNDA:1,_RNCNvNtNtNtCslGh6CY2EcXh_14darwin_metrics8hardware5iokit5testss_31test_get_fan_info_min_max_equal0B9_
FNDA:1,_RNCNvNtNtNtCslGh6CY2EcXh_14darwin_metrics8hardware5iokit5testss_33test_get_all_fans_partial_failures0_0B9_
FNDA:1,_RNCNvNtNtNtCslGh6CY2EcXh_14darwin_metrics8hardware5iokit5testss_33test_get_all_fans_partial_failures_0B9_
FNDA:0,_RNCNvMs0_NtNtNtNtCslGh6CY2EcXh_14darwin_metrics8hardware5iokit22___mock_MockIOKit_IOKit13___get_serviceNtB7_7Matcher7matches0Bf_
FNDA:1,_RNCNvMsa_NtNtNtNtCslGh6CY2EcXh_14darwin_metrics8hardware5iokit22___mock_MockIOKit_IOKit13___get_serviceNtB7_12Expectations4calls_0Bf_
FNDA:1,_RNvMs4_NtNtNtNtCslGh6CY2EcXh_14darwin_metrics8hardware5iokit22___mock_MockIOKit_IOKit13___get_serviceNtB5_6Common7is_done
FNDA:1,_RNvMs4_NtNtNtNtCslGh6CY2EcXh_14darwin_metrics8hardware5iokit22___mock_MockIOKit_IOKit13___get_serviceNtB5_6Common7matches
FNDA:1,_RNvMs6_NtNtNtNtCslGh6CY2EcXh_14darwin_metrics8hardware5iokit22___mock_MockIOKit_IOKit13___get_serviceNtB5_11Expectation7is_done
FNDA:1,_RNvMs6_NtNtNtNtCslGh6CY2EcXh_14darwin_metrics8hardware5iokit22___mock_MockIOKit_IOKit13___get_serviceNtB5_11Expectation7matches
FNDA:32,_RNvMs8_NtNtNtNtCslGh6CY2EcXh_14darwin_metrics8hardware5iokit22___mock_MockIOKit_IOKit13___get_serviceNtB5_12Expectations3new
FNDA:5,_RNvMs8_NtNtNtNtCslGh6CY2EcXh_14darwin_metrics8hardware5iokit22___mock_MockIOKit_IOKit13___get_serviceNtB5_12Expectations6expect
FNDA:5,_RNvXs1_NtNtNtNtCslGh6CY2EcXh_14darwin_metrics8hardware5iokit22___mock_MockIOKit_IOKit13___get_serviceNtB5_7MatcherNtNtCs4P3ALgZxGbJ_4core7default7Default7default
FNDA:5,_RNvXs3_NtNtNtNtCslGh6CY2EcXh_14darwin_metrics8hardware5iokit22___mock_MockIOKit_IOKit13___get_serviceNtB5_6CommonNtNtCs4P3ALgZxGbJ_4core7default7Default7default
FNDA:5,_RNvXs7_NtNtNtNtCslGh6CY2EcXh_14darwin_metrics8hardware5iokit22___mock_MockIOKit_IOKit13___get_serviceNtB5_11ExpectationNtNtCs4P3ALgZxGbJ_4core7default7Default7default
FNDA:32,_RNvXs9_NtNtNtNtCslGh6CY2EcXh_14darwin_metrics8hardware5iokit22___mock_MockIOKit_IOKit13___get_serviceNtB5_12ExpectationsNtNtCs4P3ALgZxGbJ_4core7default7Default7default
FNDA:5,_RNvXs_NtNtNtNtCslGh6CY2EcXh_14darwin_metrics8hardware5iokit22___mock_MockIOKit_IOKit13___get_serviceNtB4_5RfuncNtNtCs4P3ALgZxGbJ_4core7default7Default7default
FNDA:0,_RNCNvMs0_NtNtNtNtCslGh6CY2EcXh_14darwin_metrics8hardware5iokit22___mock_MockIOKit_IOKit26___get_heatsink_temperatureNtB7_7Matcher7matches0Bf_
FNDA:1,_RNCNvMsa_NtNtNtNtCslGh6CY2EcXh_14darwin_metrics8hardware5iokit22___mock_MockIOKit_IOKit26___get_heatsink_temperatureNtB7_12Expectations4calls_0Bf_
FNDA:1,_RNvMs4_NtNtNtNtCslGh6CY2EcXh_14darwin_metrics8hardware5iokit22___mock_MockIOKit_IOKit26___get_heatsink_temperatureNtB5_6Common7is_done
FNDA:1,_RNvMs4_NtNtNtNtCslGh6CY2EcXh_14darwin_metrics8hardware5iokit22___mock_MockIOKit_IOKit26___get_heatsink_temperatureNtB5_6Common7matches
FNDA:1,_RNvMs6_NtNtNtNtCslGh6CY2EcXh_14darwin_metrics8hardware5iokit22___mock_MockIOKit_IOKit26___get_heatsink_temperatureNtB5_11Expectation7is_done
FNDA:1,_RNvMs6_NtNtNtNtCslGh6CY2EcXh_14darwin_metrics8hardware5iokit22___mock_MockIOKit_IOKit26___get_heatsink_temperatureNtB5_11Expectation7matches
FNDA:32,_RNvMs8_NtNtNtNtCslGh6CY2EcXh_14darwin_metrics8hardware5iokit22___mock_MockIOKit_IOKit26___get_heatsink_temperatureNtB5_12Expectations3new
FNDA:1,_RNvMs8_NtNtNtNtCslGh6CY2EcXh_14darwin_metrics8hardware5iokit22___mock_MockIOKit_IOKit26___get_heatsink_temperatureNtB5_12Expectations6expect
FNDA:1,_RNvXs1_NtNtNtNtCslGh6CY2EcXh_14darwin_metrics8hardware5iokit22___mock_MockIOKit_IOKit26___get_heatsink_temperatureNtB5_7MatcherNtNtCs4P3ALgZxGbJ_4core7default7Default7default
FNDA:1,_RNvXs3_NtNtNtNtCslGh6CY2EcXh_14darwin_metrics8hardware5iokit22___mock_MockIOKit_IOKit26___get_heatsink_temperatureNtB5_6CommonNtNtCs4P3ALgZxGbJ_4core7default7Default7default
FNDA:1,_RNvXs7_NtNtNtNtCslGh6CY2EcXh_14darwin_metrics8hardware5iokit22___mock_MockIOKit_IOKit26___get_heatsink_temperatureNtB5_11ExpectationNtNtCs4P3ALgZxGbJ_4core7default7Default7default
FNDA:32,_RNvXs9_NtNtNtNtCslGh6CY2EcXh_14darwin_metrics8hardware5iokit22___mock_MockIOKit_IOKit26___get_heatsink_temperatureNtB5_12ExpectationsNtNtCs4P3ALgZxGbJ_4core7default7Default7default
FNDA:1,_RNvXs_NtNtNtNtCslGh6CY2EcXh_14darwin_metrics8hardware5iokit22___mock_MockIOKit_IOKit26___get_heatsink_temperatureNtB4_5RfuncNtNtCs4P3ALgZxGbJ_4core7default7Default7default
FNDA:0,_RNCNvMs0_NtNtNtNtCslGh6CY2EcXh_14darwin_metrics8hardware5iokit22___mock_MockIOKit_IOKit14___get_all_fansNtB7_7Matcher7matches0Bf_
FNDA:2,_RNCNvMsa_NtNtNtNtCslGh6CY2EcXh_14darwin_metrics8hardware5iokit22___mock_MockIOKit_IOKit14___get_all_fansNtB7_12Expectations4calls_0Bf_
FNDA:2,_RNvMs4_NtNtNtNtCslGh6CY2EcXh_14darwin_metrics8hardware5iokit22___mock_MockIOKit_IOKit14___get_all_fansNtB5_6Common7is_done
FNDA:2,_RNvMs4_NtNtNtNtCslGh6CY2EcXh_14darwin_metrics8hardware5iokit22___mock_MockIOKit_IOKit14___get_all_fansNtB5_6Common7matches
FNDA:2,_RNvMs6_NtNtNtNtCslGh6CY2EcXh_14darwin_metrics8hardware5iokit22___mock_MockIOKit_IOKit14___get_all_fansNtB5_11Expectation7is_done
FNDA:2,_RNvMs6_NtNtNtNtCslGh6CY2EcXh_14darwin_metrics8hardware5iokit22___mock_MockIOKit_IOKit14___get_all_fansNtB5_11Expectation7matches
FNDA:32,_RNvMs8_NtNtNtNtCslGh6CY2EcXh_14darwin_metrics8hardware5iokit22___mock_MockIOKit_IOKit14___get_all_fansNtB5_12Expectations3new
FNDA:2,_RNvMs8_NtNtNtNtCslGh6CY2EcXh_14darwin_metrics8hardware5iokit22___mock_MockIOKit_IOKit14___get_all_fansNtB5_12Expectations6expect
FNDA:2,_RNvXs1_NtNtNtNtCslGh6CY2EcXh_14darwin_metrics8hardware5iokit22___mock_MockIOKit_IOKit14___get_all_fansNtB5_7MatcherNtNtCs4P3ALgZxGbJ_4core7default7Default7default
FNDA:2,_RNvXs3_NtNtNtNtCslGh6CY2EcXh_14darwin_metrics8hardware5iokit22___mock_MockIOKit_IOKit14___get_all_fansNtB5_6CommonNtNtCs4P3ALgZxGbJ_4core7default7Default7default
FNDA:2,_RNvXs7_NtNtNtNtCslGh6CY2EcXh_14darwin_metrics8hardware5iokit22___mock_MockIOKit_IOKit14___get_all_fansNtB5_11ExpectationNtNtCs4P3ALgZxGbJ_4core7default7Default7default
FNDA:32,_RNvXs9_NtNtNtNtCslGh6CY2EcXh_14darwin_metrics8hardware5iokit22___mock_MockIOKit_IOKit14___get_all_fansNtB5_12ExpectationsNtNtCs4P3ALgZxGbJ_4core7default7Default7default
FNDA:2,_RNvXs_NtNtNtNtCslGh6CY2EcXh_14darwin_metrics8hardware5iokit22___mock_MockIOKit_IOKit14___get_all_fansNtB4_5RfuncNtNtCs4P3ALgZxGbJ_4core7default7Default7default
FNDA:0,_RNCNvMs0_NtNtNtNtCslGh6CY2EcXh_14darwin_metrics8hardware5iokit22___mock_MockIOKit_IOKit26___check_thermal_throttlingNtB7_7Matcher7matches0Bf_
FNDA:2,_RNCNvMsa_NtNtNtNtCslGh6CY2EcXh_14darwin_metrics8hardware5iokit22___mock_MockIOKit_IOKit26___check_thermal_throttlingNtB7_12Expectations4calls_0Bf_
FNDA:2,_RNvMs4_NtNtNtNtCslGh6CY2EcXh_14darwin_metrics8hardware5iokit22___mock_MockIOKit_IOKit26___check_thermal_throttlingNtB5_6Common7is_done
FNDA:2,_RNvMs4_NtNtNtNtCslGh6CY2EcXh_14darwin_metrics8hardware5iokit22___mock_MockIOKit_IOKit26___check_thermal_throttlingNtB5_6Common7matches
FNDA:2,_RNvMs6_NtNtNtNtCslGh6CY2EcXh_14darwin_metrics8hardware5iokit22___mock_MockIOKit_IOKit26___check_thermal_throttlingNtB5_11Expectation7is_done
FNDA:2,_RNvMs6_NtNtNtNtCslGh6CY2EcXh_14darwin_metrics8hardware5iokit22___mock_MockIOKit_IOKit26___check_thermal_throttlingNtB5_11Expectation7matches
FNDA:32,_RNvMs8_NtNtNtNtCslGh6CY2EcXh_14darwin_metrics8hardware5iokit22___mock_MockIOKit_IOKit26___check_thermal_throttlingNtB5_12Expectations3new
FNDA:2,_RNvMs8_NtNtNtNtCslGh6CY2EcXh_14darwin_metrics8hardware5iokit22___mock_MockIOKit_IOKit26___check_thermal_throttlingNtB5_12Expectations6expect
FNDA:2,_RNvXs1_NtNtNtNtCslGh6CY2EcXh_14darwin_metrics8hardware5iokit22___mock_MockIOKit_IOKit26___check_thermal_throttlingNtB5_7MatcherNtNtCs4P3ALgZxGbJ_4core7default7Default7default
FNDA:2,_RNvXs3_NtNtNtNtCslGh6CY2EcXh_14darwin_metrics8hardware5iokit22___mock_MockIOKit_IOKit26___check_thermal_throttlingNtB5_6CommonNtNtCs4P3ALgZxGbJ_4core7default7Default7default
FNDA:2,_RNvXs7_NtNtNtNtCslGh6CY2EcXh_14darwin_metrics8hardware5iokit22___mock_MockIOKit_IOKit26___check_thermal_throttlingNtB5_11ExpectationNtNtCs4P3ALgZxGbJ_4core7default7Default7default
FNDA:32,_RNvXs9_NtNtNtNtCslGh6CY2EcXh_14darwin_metrics8hardware5iokit22___mock_MockIOKit_IOKit26___check_thermal_throttlingNtB5_12ExpectationsNtNtCs4P3ALgZxGbJ_4core7default7Default7default
FNDA:2,_RNvXs_NtNtNtNtCslGh6CY2EcXh_14darwin_metrics8hardware5iokit22___mock_MockIOKit_IOKit26___check_thermal_throttlingNtB4_5RfuncNtNtCs4P3ALgZxGbJ_4core7default7Default7default
FNDA:1,_RNvNtNtNtCslGh6CY2EcXh_14darwin_metrics8hardware5iokit5testss_16test_get_service
FNDA:1,_RNvNtNtNtCslGh6CY2EcXh_14darwin_metrics8hardware5iokit5testss_17test_get_all_fans
FNDA:1,_RNvNtNtNtCslGh6CY2EcXh_14darwin_metrics8hardware5iokit5testss_17test_get_fan_info
FNDA:1,_RNvNtNtNtCslGh6CY2EcXh_14darwin_metrics8hardware5iokit5testss_17test_read_smc_key
FNDA:1,_RNvNtNtNtCslGh6CY2EcXh_14darwin_metrics8hardware5iokit5testss_18test_get_cpu_power
FNDA:1,_RNvNtNtNtCslGh6CY2EcXh_14darwin_metrics8hardware5iokit5testss_18test_get_fan_count
FNDA:1,_RNvNtNtNtCslGh6CY2EcXh_14darwin_metrics8hardware5iokit5testss_18test_get_fan_speed
FNDA:1,_RNvNtNtNtCslGh6CY2EcXh_14darwin_metrics8hardware5iokit5testss_18test_get_gpu_stats
FNDA:1,_RNvNtNtNtCslGh6CY2EcXh_14darwin_metrics8hardware5iokit5testss_19test_fan_info_clone
FNDA:1,_RNvNtNtNtCslGh6CY2EcXh_14darwin_metrics8hardware5iokit5testss_19test_fan_info_debug
FNDA:1,_RNvNtNtNtCslGh6CY2EcXh_14darwin_metrics8hardware5iokit5testss_19test_parse_smc_data
FNDA:1,_RNvNtNtNtCslGh6CY2EcXh_14darwin_metrics8hardware5iokit5testss_20test_create_fan_keys
FNDA:1,_RNvNtNtNtCslGh6CY2EcXh_14darwin_metrics8hardware5iokit5testss_20test_gpu_stats_clone
FNDA:1,_RNvNtNtNtCslGh6CY2EcXh_14darwin_metrics8hardware5iokit5testss_21test_get_thermal_info
FNDA:1,_RNvNtNtNtCslGh6CY2EcXh_14darwin_metrics8hardware5iokit5testss_21test_iokit_impl_debug
FNDA:1,_RNvNtNtNtCslGh6CY2EcXh_14darwin_metrics8hardware5iokit5testss_22test_get_bool_property
FNDA:1,_RNvNtNtNtCslGh6CY2EcXh_14darwin_metrics8hardware5iokit5testss_22test_get_dict_property
FNDA:1,_RNvNtNtNtCslGh6CY2EcXh_14darwin_metrics8hardware5iokit5testss_22test_gpu_stats_default
FNDA:1,_RNvNtNtNtCslGh6CY2EcXh_14darwin_metrics8hardware5iokit5testss_23test_get_all_fans_empty
FNDA:1,_RNvNtNtNtCslGh6CY2EcXh_14darwin_metrics8hardware5iokit5testss_23test_iokit_impl_default
FNDA:1,_RNvNtNtNtCslGh6CY2EcXh_14darwin_metrics8hardware5iokit5testss_23test_smc_key_from_chars
FNDA:1,_RNvNtNtNtCslGh6CY2EcXh_14darwin_metrics8hardware5iokit5testss_23test_smc_read_key_mocks
FNDA:1,_RNvNtNtNtCslGh6CY2EcXh_14darwin_metrics8hardware5iokit5testss_23test_thermal_info_clone
FNDA:1,_RNvNtNtNtCslGh6CY2EcXh_14darwin_metrics8hardware5iokit5testss_23test_thermal_info_debug
FNDA:1,_RNvNtNtNtCslGh6CY2EcXh_14darwin_metrics8hardware5iokit5testss_24test_get_cpu_temperature
FNDA:1,_RNvNtNtNtCslGh6CY2EcXh_14darwin_metrics8hardware5iokit5testss_24test_get_gpu_temperature
FNDA:1,_RNvNtNtNtCslGh6CY2EcXh_14darwin_metrics8hardware5iokit5testss_24test_get_number_property
FNDA:1,_RNvNtNtNtCslGh6CY2EcXh_14darwin_metrics8hardware5iokit5testss_24test_get_string_property
FNDA:1,_RNvNtNtNtCslGh6CY2EcXh_14darwin_metrics8hardware5iokit5testss_24test_io_service_matching
FNDA:1,_RNvNtNtNtCslGh6CY2EcXh_14darwin_metrics8hardware5iokit5testss_26test_fan_percentage_limits
FNDA:1,_RNvNtNtNtCslGh6CY2EcXh_14darwin_metrics8hardware5iokit5testss_28test_get_ambient_temperature
FNDA:1,_RNvNtNtNtCslGh6CY2EcXh_14darwin_metrics8hardware5iokit5testss_28test_get_battery_temperature
FNDA:1,_RNvNtNtNtCslGh6CY2EcXh_14darwin_metrics8hardware5iokit5testss_28test_impl_get_service_safety
FNDA:1,_RNvNtNtNtCslGh6CY2EcXh_14darwin_metrics8hardware5iokit5testss_29test_check_thermal_throttling
FNDA:1,_RNvNtNtNtCslGh6CY2EcXh_14darwin_metrics8hardware5iokit5testss_29test_get_heatsink_temperature
FNDA:1,_RNvNtNtNtCslGh6CY2EcXh_14darwin_metrics8hardware5iokit5testss_31test_fan_percentage_calculation
FNDA:1,_RNvNtNtNtCslGh6CY2EcXh_14darwin_metrics8hardware5iokit5testss_31test_get_fan_info_min_max_equal
FNDA:1,_RNvNtNtNtCslGh6CY2EcXh_14darwin_metrics8hardware5iokit5testss_33test_get_all_fans_partial_failure
FNDA:1,_RNvNtNtNtCslGh6CY2EcXh_14darwin_metrics8hardware5iokit5testss_33test_io_registry_entry_get_parent
FNDA:1,_RNvNtNtNtCslGh6CY2EcXh_14darwin_metrics8hardware5iokit5testss_35test_get_thermal_info_with_failures
FNDA:1,_RNvNtNtNtCslGh6CY2EcXh_14darwin_metrics8hardware5iokit5testss_36test_io_service_get_matching_service
FNDA:1,_RNvNtNtNtCslGh6CY2EcXh_14darwin_metrics8hardware5iokit5testss_43test_io_registry_entry_create_cf_properties
FNDA:1,_RNCNvMs0_NtNtNtNtCslGh6CY2EcXh_14darwin_metrics8hardware5iokit22___mock_MockIOKit_IOKit14___read_smc_keyNtB7_7Matcher7matches0Bf_
FNDA:1,_RNCNvMsa_NtNtNtNtCslGh6CY2EcXh_14darwin_metrics8hardware5iokit22___mock_MockIOKit_IOKit14___read_smc_keyNtB7_12Expectations4calls_0Bf_
FNDA:1,_RNvMs4_NtNtNtNtCslGh6CY2EcXh_14darwin_metrics8hardware5iokit22___mock_MockIOKit_IOKit14___read_smc_keyNtB5_6Common7is_done
FNDA:1,_RNvMs4_NtNtNtNtCslGh6CY2EcXh_14darwin_metrics8hardware5iokit22___mock_MockIOKit_IOKit14___read_smc_keyNtB5_6Common7matches
FNDA:1,_RNvMs6_NtNtNtNtCslGh6CY2EcXh_14darwin_metrics8hardware5iokit22___mock_MockIOKit_IOKit14___read_smc_keyNtB5_11Expectation7is_done
FNDA:1,_RNvMs6_NtNtNtNtCslGh6CY2EcXh_14darwin_metrics8hardware5iokit22___mock_MockIOKit_IOKit14___read_smc_keyNtB5_11Expectation7matches
FNDA:32,_RNvMs8_NtNtNtNtCslGh6CY2EcXh_14darwin_metrics8hardware5iokit22___mock_MockIOKit_IOKit14___read_smc_keyNtB5_12Expectations3new
FNDA:1,_RNvMs8_NtNtNtNtCslGh6CY2EcXh_14darwin_metrics8hardware5iokit22___mock_MockIOKit_IOKit14___read_smc_keyNtB5_12Expectations6expect
FNDA:1,_RNvXs1_NtNtNtNtCslGh6CY2EcXh_14darwin_metrics8hardware5iokit22___mock_MockIOKit_IOKit14___read_smc_keyNtB5_7MatcherNtNtCs4P3ALgZxGbJ_4core7default7Default7default
FNDA:1,_RNvXs3_NtNtNtNtCslGh6CY2EcXh_14darwin_metrics8hardware5iokit22___mock_MockIOKit_IOKit14___read_smc_keyNtB5_6CommonNtNtCs4P3ALgZxGbJ_4core7default7Default7default
FNDA:1,_RNvXs7_NtNtNtNtCslGh6CY2EcXh_14darwin_metrics8hardware5iokit22___mock_MockIOKit_IOKit14___read_smc_keyNtB5_11ExpectationNtNtCs4P3ALgZxGbJ_4core7default7Default7default
FNDA:32,_RNvXs9_NtNtNtNtCslGh6CY2EcXh_14darwin_metrics8hardware5iokit22___mock_MockIOKit_IOKit14___read_smc_keyNtB5_12ExpectationsNtNtCs4P3ALgZxGbJ_4core7default7Default7default
FNDA:1,_RNvXs_NtNtNtNtCslGh6CY2EcXh_14darwin_metrics8hardware5iokit22___mock_MockIOKit_IOKit14___read_smc_keyNtB4_5RfuncNtNtCs4P3ALgZxGbJ_4core7default7Default7default
FNDA:0,_RNCNvMs0_NtNtNtNtCslGh6CY2EcXh_14darwin_metrics8hardware5iokit22___mock_MockIOKit_IOKit19___get_bool_propertyNtB7_7Matcher7matches0Bf_
FNDA:2,_RNCNvMsa_NtNtNtNtCslGh6CY2EcXh_14darwin_metrics8hardware5iokit22___mock_MockIOKit_IOKit19___get_bool_propertyNtB7_12Expectations4calls_0Bf_
FNDA:2,_RNvMs4_NtNtNtNtCslGh6CY2EcXh_14darwin_metrics8hardware5iokit22___mock_MockIOKit_IOKit19___get_bool_propertyNtB5_6Common7is_done
FNDA:2,_RNvMs4_NtNtNtNtCslGh6CY2EcXh_14darwin_metrics8hardware5iokit22___mock_MockIOKit_IOKit19___get_bool_propertyNtB5_6Common7matches
FNDA:2,_RNvMs6_NtNtNtNtCslGh6CY2EcXh_14darwin_metrics8hardware5iokit22___mock_MockIOKit_IOKit19___get_bool_propertyNtB5_11Expectation7is_done
FNDA:2,_RNvMs6_NtNtNtNtCslGh6CY2EcXh_14darwin_metrics8hardware5iokit22___mock_MockIOKit_IOKit19___get_bool_propertyNtB5_11Expectation7matches
FNDA:32,_RNvMs8_NtNtNtNtCslGh6CY2EcXh_14darwin_metrics8hardware5iokit22___mock_MockIOKit_IOKit19___get_bool_propertyNtB5_12Expectations3new
FNDA:1,_RNvMs8_NtNtNtNtCslGh6CY2EcXh_14darwin_metrics8hardware5iokit22___mock_MockIOKit_IOKit19___get_bool_propertyNtB5_12Expectations6expect
FNDA:1,_RNvXs1_NtNtNtNtCslGh6CY2EcXh_14darwin_metrics8hardware5iokit22___mock_MockIOKit_IOKit19___get_bool_propertyNtB5_7MatcherNtNtCs4P3ALgZxGbJ_4core7default7Default7default
FNDA:1,_RNvXs3_NtNtNtNtCslGh6CY2EcXh_14darwin_metrics8hardware5iokit22___mock_MockIOKit_IOKit19___get_bool_propertyNtB5_6CommonNtNtCs4P3ALgZxGbJ_4core7default7Default7default
FNDA:1,_RNvXs7_NtNtNtNtCslGh6CY2EcXh_14darwin_metrics8hardware5iokit22___mock_MockIOKit_IOKit19___get_bool_propertyNtB5_11ExpectationNtNtCs4P3ALgZxGbJ_4core7default7Default7default
FNDA:32,_RNvXs9_NtNtNtNtCslGh6CY2EcXh_14darwin_metrics8hardware5iokit22___mock_MockIOKit_IOKit19___get_bool_propertyNtB5_12ExpectationsNtNtCs4P3ALgZxGbJ_4core7default7Default7default
FNDA:1,_RNvXs_NtNtNtNtCslGh6CY2EcXh_14darwin_metrics8hardware5iokit22___mock_MockIOKit_IOKit19___get_bool_propertyNtB4_5RfuncNtNtCs4P3ALgZxGbJ_4core7default7Default7default
FNDA:0,_RNCNvMs0_NtNtNtNtCslGh6CY2EcXh_14darwin_metrics8hardware5iokit22___mock_MockIOKit_IOKit21___get_gpu_temperatureNtB7_7Matcher7matches0Bf_
FNDA:1,_RNCNvMsa_NtNtNtNtCslGh6CY2EcXh_14darwin_metrics8hardware5iokit22___mock_MockIOKit_IOKit21___get_gpu_temperatureNtB7_12Expectations4calls_0Bf_
FNDA:1,_RNvMs4_NtNtNtNtCslGh6CY2EcXh_14darwin_metrics8hardware5iokit22___mock_MockIOKit_IOKit21___get_gpu_temperatureNtB5_6Common7is_done
FNDA:1,_RNvMs4_NtNtNtNtCslGh6CY2EcXh_14darwin_metrics8hardware5iokit22___mock_MockIOKit_IOKit21___get_gpu_temperatureNtB5_6Common7matches
FNDA:1,_RNvMs6_NtNtNtNtCslGh6CY2EcXh_14darwin_metrics8hardware5iokit22___mock_MockIOKit_IOKit21___get_gpu_temperatureNtB5_11Expectation7is_done
FNDA:1,_RNvMs6_NtNtNtNtCslGh6CY2EcXh_14darwin_metrics8hardware5iokit22___mock_MockIOKit_IOKit21___get_gpu_temperatureNtB5_11Expectation7matches
FNDA:32,_RNvMs8_NtNtNtNtCslGh6CY2EcXh_14darwin_metrics8hardware5iokit22___mock_MockIOKit_IOKit21___get_gpu_temperatureNtB5_12Expectations3new
FNDA:1,_RNvMs8_NtNtNtNtCslGh6CY2EcXh_14darwin_metrics8hardware5iokit22___mock_MockIOKit_IOKit21___get_gpu_temperatureNtB5_12Expectations6expect
FNDA:1,_RNvXs1_NtNtNtNtCslGh6CY2EcXh_14darwin_metrics8hardware5iokit22___mock_MockIOKit_IOKit21___get_gpu_temperatureNtB5_7MatcherNtNtCs4P3ALgZxGbJ_4core7default7Default7default
FNDA:1,_RNvXs3_NtNtNtNtCslGh6CY2EcXh_14darwin_metrics8hardware5iokit22___mock_MockIOKit_IOKit21___get_gpu_temperatureNtB5_6CommonNtNtCs4P3ALgZxGbJ_4core7default7Default7default
FNDA:1,_RNvXs7_NtNtNtNtCslGh6CY2EcXh_14darwin_metrics8hardware5iokit22___mock_MockIOKit_IOKit21___get_gpu_temperatureNtB5_11ExpectationNtNtCs4P3ALgZxGbJ_4core7default7Default7default
FNDA:32,_RNvXs9_NtNtNtNtCslGh6CY2EcXh_14darwin_metrics8hardware5iokit22___mock_MockIOKit_IOKit21___get_gpu_temperatureNtB5_12ExpectationsNtNtCs4P3ALgZxGbJ_4core7default7Default7default
FNDA:1,_RNvXs_NtNtNtNtCslGh6CY2EcXh_14darwin_metrics8hardware5iokit22___mock_MockIOKit_IOKit21___get_gpu_temperatureNtB4_5RfuncNtNtCs4P3ALgZxGbJ_4core7default7Default7default
FNDA:1,_RINvMs6_NtNtNtNtCslGh6CY2EcXh_14darwin_metrics8hardware5iokit22___mock_MockIOKit_IOKit25___get_ambient_temperatureNtB6_11Expectation9returningNCNvNtBa_5testss_28test_get_ambient_temperature0EBe_
FNDA:1,_RNCNvNtNtNtCslGh6CY2EcXh_14darwin_metrics8hardware5iokit5testss_28test_get_ambient_temperature0B9_
FNDA:0,_RNCNvMs0_NtNtNtNtCslGh6CY2EcXh_14darwin_metrics8hardware5iokit22___mock_MockIOKit_IOKit15___get_cpu_powerNtB7_7Matcher7matches0Bf_
FNDA:1,_RNCNvMsa_NtNtNtNtCslGh6CY2EcXh_14darwin_metrics8hardware5iokit22___mock_MockIOKit_IOKit15___get_cpu_powerNtB7_12Expectations4calls_0Bf_
FNDA:1,_RNvMs4_NtNtNtNtCslGh6CY2EcXh_14darwin_metrics8hardware5iokit22___mock_MockIOKit_IOKit15___get_cpu_powerNtB5_6Common7is_done
FNDA:1,_RNvMs4_NtNtNtNtCslGh6CY2EcXh_14darwin_metrics8hardware5iokit22___mock_MockIOKit_IOKit15___get_cpu_powerNtB5_6Common7matches
FNDA:1,_RNvMs6_NtNtNtNtCslGh6CY2EcXh_14darwin_metrics8hardware5iokit22___mock_MockIOKit_IOKit15___get_cpu_powerNtB5_11Expectation7is_done
FNDA:1,_RNvMs6_NtNtNtNtCslGh6CY2EcXh_14darwin_metrics8hardware5iokit22___mock_MockIOKit_IOKit15___get_cpu_powerNtB5_11Expectation7matches
FNDA:32,_RNvMs8_NtNtNtNtCslGh6CY2EcXh_14darwin_metrics8hardware5iokit22___mock_MockIOKit_IOKit15___get_cpu_powerNtB5_12Expectations3new
FNDA:1,_RNvMs8_NtNtNtNtCslGh6CY2EcXh_14darwin_metrics8hardware5iokit22___mock_MockIOKit_IOKit15___get_cpu_powerNtB5_12Expectations6expect
FNDA:1,_RNvXs1_NtNtNtNtCslGh6CY2EcXh_14darwin_metrics8hardware5iokit22___mock_MockIOKit_IOKit15___get_cpu_powerNtB5_7MatcherNtNtCs4P3ALgZxGbJ_4core7default7Default7default
FNDA:1,_RNvXs3_NtNtNtNtCslGh6CY2EcXh_14darwin_metrics8hardware5iokit22___mock_MockIOKit_IOKit15___get_cpu_powerNtB5_6CommonNtNtCs4P3ALgZxGbJ_4core7default7Default7default
FNDA:1,_RNvXs7_NtNtNtNtCslGh6CY2EcXh_14darwin_metrics8hardware5iokit22___mock_MockIOKit_IOKit15___get_cpu_powerNtB5_11ExpectationNtNtCs4P3ALgZxGbJ_4core7default7Default7default
FNDA:32,_RNvXs9_NtNtNtNtCslGh6CY2EcXh_14darwin_metrics8hardware5iokit22___mock_MockIOKit_IOKit15___get_cpu_powerNtB5_12ExpectationsNtNtCs4P3ALgZxGbJ_4core7default7Default7default
FNDA:1,_RNvXs_NtNtNtNtCslGh6CY2EcXh_14darwin_metrics8hardware5iokit22___mock_MockIOKit_IOKit15___get_cpu_powerNtB4_5RfuncNtNtCs4P3ALgZxGbJ_4core7default7Default7default
FNDA:1,_RINvMs6_NtNtNtNtCslGh6CY2EcXh_14darwin_metrics8hardware5iokit22___mock_MockIOKit_IOKit33___io_service_get_matching_serviceNtB6_11Expectation9returningNCNvNtBa_5testss_36test_io_service_get_matching_service0EBe_
FNDA:1,_RNCNvNtNtNtCslGh6CY2EcXh_14darwin_metrics8hardware5iokit5testss_36test_io_service_get_matching_service0B9_
FNDA:0,_RNCNvMs0_NtNtNtNtCslGh6CY2EcXh_14darwin_metrics8hardware5iokit22___mock_MockIOKit_IOKit21___get_cpu_temperatureNtB7_7Matcher7matches0Bf_
FNDA:1,_RNCNvMsa_NtNtNtNtCslGh6CY2EcXh_14darwin_metrics8hardware5iokit22___mock_MockIOKit_IOKit21___get_cpu_temperatureNtB7_12Expectations4calls_0Bf_
FNDA:1,_RNvMs4_NtNtNtNtCslGh6CY2EcXh_14darwin_metrics8hardware5iokit22___mock_MockIOKit_IOKit21___get_cpu_temperatureNtB5_6Common7is_done
FNDA:1,_RNvMs4_NtNtNtNtCslGh6CY2EcXh_14darwin_metrics8hardware5iokit22___mock_MockIOKit_IOKit21___get_cpu_temperatureNtB5_6Common7matches
FNDA:1,_RNvMs6_NtNtNtNtCslGh6CY2EcXh_14darwin_metrics8hardware5iokit22___mock_MockIOKit_IOKit21___get_cpu_temperatureNtB5_11Expectation7is_done
FNDA:1,_RNvMs6_NtNtNtNtCslGh6CY2EcXh_14darwin_metrics8hardware5iokit22___mock_MockIOKit_IOKit21___get_cpu_temperatureNtB5_11Expectation7matches
FNDA:32,_RNvMs8_NtNtNtNtCslGh6CY2EcXh_14darwin_metrics8hardware5iokit22___mock_MockIOKit_IOKit21___get_cpu_temperatureNtB5_12Expectations3new
FNDA:5,_RNvMs8_NtNtNtNtCslGh6CY2EcXh_14darwin_metrics8hardware5iokit22___mock_MockIOKit_IOKit21___get_cpu_temperatureNtB5_12Expectations6expect
FNDA:5,_RNvXs1_NtNtNtNtCslGh6CY2EcXh_14darwin_metrics8hardware5iokit22___mock_MockIOKit_IOKit21___get_cpu_temperatureNtB5_7MatcherNtNtCs4P3ALgZxGbJ_4core7default7Default7default
FNDA:5,_RNvXs3_NtNtNtNtCslGh6CY2EcXh_14darwin_metrics8hardware5iokit22___mock_MockIOKit_IOKit21___get_cpu_temperatureNtB5_6CommonNtNtCs4P3ALgZxGbJ_4core7default7Default7default
FNDA:5,_RNvXs7_NtNtNtNtCslGh6CY2EcXh_14darwin_metrics8hardware5iokit22___mock_MockIOKit_IOKit21___get_cpu_temperatureNtB5_11ExpectationNtNtCs4P3ALgZxGbJ_4core7default7Default7default
FNDA:32,_RNvXs9_NtNtNtNtCslGh6CY2EcXh_14darwin_metrics8hardware5iokit22___mock_MockIOKit_IOKit21___get_cpu_temperatureNtB5_12ExpectationsNtNtCs4P3ALgZxGbJ_4core7default7Default7default
FNDA:5,_RNvXs_NtNtNtNtCslGh6CY2EcXh_14darwin_metrics8hardware5iokit22___mock_MockIOKit_IOKit21___get_cpu_temperatureNtB4_5RfuncNtNtCs4P3ALgZxGbJ_4core7default7Default7default
FNDA:0,_RNCNvMs0_NtNtNtNtCslGh6CY2EcXh_14darwin_metrics8hardware5iokit22___mock_MockIOKit_IOKit21___get_number_propertyNtB7_7Matcher7matches0Bf_
FNDA:2,_RNCNvMsa_NtNtNtNtCslGh6CY2EcXh_14darwin_metrics8hardware5iokit22___mock_MockIOKit_IOKit21___get_number_propertyNtB7_12Expectations4calls_0Bf_
FNDA:2,_RNvMs4_NtNtNtNtCslGh6CY2EcXh_14darwin_metrics8hardware5iokit22___mock_MockIOKit_IOKit21___get_number_propertyNtB5_6Common7is_done
FNDA:2,_RNvMs4_NtNtNtNtCslGh6CY2EcXh_14darwin_metrics8hardware5iokit22___mock_MockIOKit_IOKit21___get_number_propertyNtB5_6Common7matches
FNDA:2,_RNvMs6_NtNtNtNtCslGh6CY2EcXh_14darwin_metrics8hardware5iokit22___mock_MockIOKit_IOKit21___get_number_propertyNtB5_11Expectation7is_done
FNDA:2,_RNvMs6_NtNtNtNtCslGh6CY2EcXh_14darwin_metrics8hardware5iokit22___mock_MockIOKit_IOKit21___get_number_propertyNtB5_11Expectation7matches
FNDA:32,_RNvMs8_NtNtNtNtCslGh6CY2EcXh_14darwin_metrics8hardware5iokit22___mock_MockIOKit_IOKit21___get_number_propertyNtB5_12Expectations3new
FNDA:1,_RNvMs8_NtNtNtNtCslGh6CY2EcXh_14darwin_metrics8hardware5iokit22___mock_MockIOKit_IOKit21___get_number_propertyNtB5_12Expectations6expect
FNDA:1,_RNvXs1_NtNtNtNtCslGh6CY2EcXh_14darwin_metrics8hardware5iokit22___mock_MockIOKit_IOKit21___get_number_propertyNtB5_7MatcherNtNtCs4P3ALgZxGbJ_4core7default7Default7default
FNDA:1,_RNvXs3_NtNtNtNtCslGh6CY2EcXh_14darwin_metrics8hardware5iokit22___mock_MockIOKit_IOKit21___get_number_propertyNtB5_6CommonNtNtCs4P3ALgZxGbJ_4core7default7Default7default
FNDA:1,_RNvXs7_NtNtNtNtCslGh6CY2EcXh_14darwin_metrics8hardware5iokit22___mock_MockIOKit_IOKit21___get_number_propertyNtB5_11ExpectationNtNtCs4P3ALgZxGbJ_4core7default7Default7default
FNDA:32,_RNvXs9_NtNtNtNtCslGh6CY2EcXh_14darwin_metrics8hardware5iokit22___mock_MockIOKit_IOKit21___get_number_propertyNtB5_12ExpectationsNtNtCs4P3ALgZxGbJ_4core7default7Default7default
FNDA:1,_RNvXs_NtNtNtNtCslGh6CY2EcXh_14darwin_metrics8hardware5iokit22___mock_MockIOKit_IOKit21___get_number_propertyNtB4_5RfuncNtNtCs4P3ALgZxGbJ_4core7default7Default7default
FNDA:1,_RINvMs6_NtNtNtNtCslGh6CY2EcXh_14darwin_metrics8hardware5iokit22___mock_MockIOKit_IOKit26___get_heatsink_temperatureNtB6_11Expectation9returningNCNvNtBa_5testss_29test_get_heatsink_temperature0EBe_
FNDA:1,_RNCNvNtNtNtCslGh6CY2EcXh_14darwin_metrics8hardware5iokit5testss_29test_get_heatsink_temperature0B9_
FNDA:0,_RNCNvMs0_NtNtNtNtCslGh6CY2EcXh_14darwin_metrics8hardware5iokit22___mock_MockIOKit_IOKit40___io_registry_entry_create_cf_propertiesNtB7_7Matcher7matches0Bf_
FNDA:1,_RNCNvMsa_NtNtNtNtCslGh6CY2EcXh_14darwin_metrics8hardware5iokit22___mock_MockIOKit_IOKit40___io_registry_entry_create_cf_propertiesNtB7_12Expectations4calls_0Bf_
FNDA:1,_RNvMs4_NtNtNtNtCslGh6CY2EcXh_14darwin_metrics8hardware5iokit22___mock_MockIOKit_IOKit40___io_registry_entry_create_cf_propertiesNtB5_6Common7is_done
FNDA:1,_RNvMs4_NtNtNtNtCslGh6CY2EcXh_14darwin_metrics8hardware5iokit22___mock_MockIOKit_IOKit40___io_registry_entry_create_cf_propertiesNtB5_6Common7matches
FNDA:1,_RNvMs6_NtNtNtNtCslGh6CY2EcXh_14darwin_metrics8hardware5iokit22___mock_MockIOKit_IOKit40___io_registry_entry_create_cf_propertiesNtB5_11Expectation7is_done
FNDA:1,_RNvMs6_NtNtNtNtCslGh6CY2EcXh_14darwin_metrics8hardware5iokit22___mock_MockIOKit_IOKit40___io_registry_entry_create_cf_propertiesNtB5_11Expectation7matches
FNDA:32,_RNvMs8_NtNtNtNtCslGh6CY2EcXh_14darwin_metrics8hardware5iokit22___mock_MockIOKit_IOKit40___io_registry_entry_create_cf_propertiesNtB5_12Expectations3new
FNDA:1,_RNvMs8_NtNtNtNtCslGh6CY2EcXh_14darwin_metrics8hardware5iokit22___mock_MockIOKit_IOKit40___io_registry_entry_create_cf_propertiesNtB5_12Expectations6expect
FNDA:1,_RNvXs1_NtNtNtNtCslGh6CY2EcXh_14darwin_metrics8hardware5iokit22___mock_MockIOKit_IOKit40___io_registry_entry_create_cf_propertiesNtB5_7MatcherNtNtCs4P3ALgZxGbJ_4core7default7Default7default
FNDA:1,_RNvXs3_NtNtNtNtCslGh6CY2EcXh_14darwin_metrics8hardware5iokit22___mock_MockIOKit_IOKit40___io_registry_entry_create_cf_propertiesNtB5_6CommonNtNtCs4P3ALgZxGbJ_4core7default7Default7default
FNDA:1,_RNvXs7_NtNtNtNtCslGh6CY2EcXh_14darwin_metrics8hardware5iokit22___mock_MockIOKit_IOKit40___io_registry_entry_create_cf_propertiesNtB5_11ExpectationNtNtCs4P3ALgZxGbJ_4core7default7Default7default
FNDA:32,_RNvXs9_NtNtNtNtCslGh6CY2EcXh_14darwin_metrics8hardware5iokit22___mock_MockIOKit_IOKit40___io_registry_entry_create_cf_propertiesNtB5_12ExpectationsNtNtCs4P3ALgZxGbJ_4core7default7Default7default
FNDA:1,_RNvXs_NtNtNtNtCslGh6CY2EcXh_14darwin_metrics8hardware5iokit22___mock_MockIOKit_IOKit40___io_registry_entry_create_cf_propertiesNtB4_5RfuncNtNtCs4P3ALgZxGbJ_4core7default7Default7default
FNDA:1,_RINvMs6_NtNtNtNtCslGh6CY2EcXh_14darwin_metrics8hardware5iokit22___mock_MockIOKit_IOKit19___get_dict_propertyNtB6_11Expectation9returningNCNvNtBa_5testss_22test_get_dict_property0EBe_
FNDA:2,_RNCNvNtNtNtCslGh6CY2EcXh_14darwin_metrics8hardware5iokit5testss_22test_get_dict_property0B9_
FNDA:0,_RNCNvMs0_NtNtNtNtCslGh6CY2EcXh_14darwin_metrics8hardware5iokit22___mock_MockIOKit_IOKit21___get_string_propertyNtB7_7Matcher7matches0Bf_
FNDA:2,_RNCNvMsa_NtNtNtNtCslGh6CY2EcXh_14darwin_metrics8hardware5iokit22___mock_MockIOKit_IOKit21___get_string_propertyNtB7_12Expectations4calls_0Bf_
FNDA:2,_RNvMs4_NtNtNtNtCslGh6CY2EcXh_14darwin_metrics8hardware5iokit22___mock_MockIOKit_IOKit21___get_string_propertyNtB5_6Common7is_done
FNDA:2,_RNvMs4_NtNtNtNtCslGh6CY2EcXh_14darwin_metrics8hardware5iokit22___mock_MockIOKit_IOKit21___get_string_propertyNtB5_6Common7matches
FNDA:2,_RNvMs6_NtNtNtNtCslGh6CY2EcXh_14darwin_metrics8hardware5iokit22___mock_MockIOKit_IOKit21___get_string_propertyNtB5_11Expectation7is_done
FNDA:2,_RNvMs6_NtNtNtNtCslGh6CY2EcXh_14darwin_metrics8hardware5iokit22___mock_MockIOKit_IOKit21___get_string_propertyNtB5_11Expectation7matches
FNDA:32,_RNvMs8_NtNtNtNtCslGh6CY2EcXh_14darwin_metrics8hardware5iokit22___mock_MockIOKit_IOKit21___get_string_propertyNtB5_12Expectations3new
FNDA:1,_RNvMs8_NtNtNtNtCslGh6CY2EcXh_14darwin_metrics8hardware5iokit22___mock_MockIOKit_IOKit21___get_string_propertyNtB5_12Expectations6expect
FNDA:1,_RNvXs1_NtNtNtNtCslGh6CY2EcXh_14darwin_metrics8hardware5iokit22___mock_MockIOKit_IOKit21___get_string_propertyNtB5_7MatcherNtNtCs4P3ALgZxGbJ_4core7default7Default7default
FNDA:1,_RNvXs3_NtNtNtNtCslGh6CY2EcXh_14darwin_metrics8hardware5iokit22___mock_MockIOKit_IOKit21___get_string_propertyNtB5_6CommonNtNtCs4P3ALgZxGbJ_4core7default7Default7default
FNDA:1,_RNvXs7_NtNtNtNtCslGh6CY2EcXh_14darwin_metrics8hardware5iokit22___mock_MockIOKit_IOKit21___get_string_propertyNtB5_11ExpectationNtNtCs4P3ALgZxGbJ_4core7default7Default7default
FNDA:32,_RNvXs9_NtNtNtNtCslGh6CY2EcXh_14darwin_metrics8hardware5iokit22___mock_MockIOKit_IOKit21___get_string_propertyNtB5_12ExpectationsNtNtCs4P3ALgZxGbJ_4core7default7Default7default
FNDA:1,_RNvXs_NtNtNtNtCslGh6CY2EcXh_14darwin_metrics8hardware5iokit22___mock_MockIOKit_IOKit21___get_string_propertyNtB4_5RfuncNtNtCs4P3ALgZxGbJ_4core7default7Default7default
FNDA:4,_RINvMs6_NtNtNtNtCslGh6CY2EcXh_14darwin_metrics8hardware5iokit22___mock_MockIOKit_IOKit13___get_serviceNtB6_11Expectation9returningNCNvMNtNtNtBc_3cpu8cpu_impl5testsNtB2b_3CPU13new_with_mocks_0EBe_
FNDA:1,_RINvMs6_NtNtNtNtCslGh6CY2EcXh_14darwin_metrics8hardware5iokit22___mock_MockIOKit_IOKit13___get_serviceNtB6_11Expectation9returningNCNvNtBa_5testss_16test_get_service0EBe_
FNDA:1,_RNCNvNtNtNtCslGh6CY2EcXh_14darwin_metrics8hardware5iokit5testss_16test_get_service0B9_
FNDA:0,_RNCNvMs0_NtNtNtNtCslGh6CY2EcXh_14darwin_metrics8hardware5iokit22___mock_MockIOKit_IOKit33___io_service_get_matching_serviceNtB7_7Matcher7matches0Bf_
FNDA:1,_RNCNvMsa_NtNtNtNtCslGh6CY2EcXh_14darwin_metrics8hardware5iokit22___mock_MockIOKit_IOKit33___io_service_get_matching_serviceNtB7_12Expectations4calls_0Bf_
FNDA:1,_RNvMs4_NtNtNtNtCslGh6CY2EcXh_14darwin_metrics8hardware5iokit22___mock_MockIOKit_IOKit33___io_service_get_matching_serviceNtB5_6Common7is_done
FNDA:1,_RNvMs4_NtNtNtNtCslGh6CY2EcXh_14darwin_metrics8hardware5iokit22___mock_MockIOKit_IOKit33___io_service_get_matching_serviceNtB5_6Common7matches
FNDA:1,_RNvMs6_NtNtNtNtCslGh6CY2EcXh_14darwin_metrics8hardware5iokit22___mock_MockIOKit_IOKit33___io_service_get_matching_serviceNtB5_11Expectation7is_done
FNDA:1,_RNvMs6_NtNtNtNtCslGh6CY2EcXh_14darwin_metrics8hardware5iokit22___mock_MockIOKit_IOKit33___io_service_get_matching_serviceNtB5_11Expectation7matches
FNDA:32,_RNvMs8_NtNtNtNtCslGh6CY2EcXh_14darwin_metrics8hardware5iokit22___mock_MockIOKit_IOKit33___io_service_get_matching_serviceNtB5_12Expectations3new
FNDA:1,_RNvMs8_NtNtNtNtCslGh6CY2EcXh_14darwin_metrics8hardware5iokit22___mock_MockIOKit_IOKit33___io_service_get_matching_serviceNtB5_12Expectations6expect
FNDA:1,_RNvXs1_NtNtNtNtCslGh6CY2EcXh_14darwin_metrics8hardware5iokit22___mock_MockIOKit_IOKit33___io_service_get_matching_serviceNtB5_7MatcherNtNtCs4P3ALgZxGbJ_4core7default7Default7default
FNDA:1,_RNvXs3_NtNtNtNtCslGh6CY2EcXh_14darwin_metrics8hardware5iokit22___mock_MockIOKit_IOKit33___io_service_get_matching_serviceNtB5_6CommonNtNtCs4P3ALgZxGbJ_4core7default7Default7default
FNDA:1,_RNvXs7_NtNtNtNtCslGh6CY2EcXh_14darwin_metrics8hardware5iokit22___mock_MockIOKit_IOKit33___io_service_get_matching_serviceNtB5_11ExpectationNtNtCs4P3ALgZxGbJ_4core7default7Default7default
FNDA:32,_RNvXs9_NtNtNtNtCslGh6CY2EcXh_14darwin_metrics8hardware5iokit22___mock_MockIOKit_IOKit33___io_service_get_matching_serviceNtB5_12ExpectationsNtNtCs4P3ALgZxGbJ_4core7default7Default7default
FNDA:1,_RNvXs_NtNtNtNtCslGh6CY2EcXh_14darwin_metrics8hardware5iokit22___mock_MockIOKit_IOKit33___io_service_get_matching_serviceNtB4_5RfuncNtNtCs4P3ALgZxGbJ_4core7default7Default7default
FNDA:0,_RINvMs4_NtNtNtNtCslGh6CY2EcXh_14darwin_metrics8hardware5iokit22___mock_MockIOKit_IOKit13___get_serviceNtB6_6Common4withpEBe_
FNDA:0,_RINvMs4_NtNtNtNtCslGh6CY2EcXh_14darwin_metrics8hardware5iokit22___mock_MockIOKit_IOKit13___get_serviceNtB6_6Common5timespEBe_
FNDA:0,_RINvMs4_NtNtNtNtCslGh6CY2EcXh_14darwin_metrics8hardware5iokit22___mock_MockIOKit_IOKit13___get_serviceNtB6_6Common5withfpEBe_
FNDA:0,_RINvMs4_NtNtNtNtCslGh6CY2EcXh_14darwin_metrics8hardware5iokit22___mock_MockIOKit_IOKit13___get_serviceNtB6_6Common8withf_stpEBe_
FNDA:0,_RINvMs4_NtNtNtNtCslGh6CY2EcXh_14darwin_metrics8hardware5iokit22___mock_MockIOKit_IOKit14___get_all_fansNtB6_6Common5timespEBe_
FNDA:0,_RINvMs4_NtNtNtNtCslGh6CY2EcXh_14darwin_metrics8hardware5iokit22___mock_MockIOKit_IOKit14___get_all_fansNtB6_6Common5withfpEBe_
FNDA:0,_RINvMs4_NtNtNtNtCslGh6CY2EcXh_14darwin_metrics8hardware5iokit22___mock_MockIOKit_IOKit14___get_all_fansNtB6_6Common8withf_stpEBe_
FNDA:0,_RINvMs4_NtNtNtNtCslGh6CY2EcXh_14darwin_metrics8hardware5iokit22___mock_MockIOKit_IOKit14___get_fan_infoNtB6_6Common5timespEBe_
FNDA:0,_RINvMs4_NtNtNtNtCslGh6CY2EcXh_14darwin_metrics8hardware5iokit22___mock_MockIOKit_IOKit14___get_fan_infoNtB6_6Common5withfpEBe_
FNDA:0,_RINvMs4_NtNtNtNtCslGh6CY2EcXh_14darwin_metrics8hardware5iokit22___mock_MockIOKit_IOKit14___get_fan_infoNtB6_6Common8withf_stpEBe_
FNDA:0,_RINvMs4_NtNtNtNtCslGh6CY2EcXh_14darwin_metrics8hardware5iokit22___mock_MockIOKit_IOKit14___read_smc_keyNtB6_6Common5timespEBe_
FNDA:0,_RINvMs4_NtNtNtNtCslGh6CY2EcXh_14darwin_metrics8hardware5iokit22___mock_MockIOKit_IOKit14___read_smc_keyNtB6_6Common5withfpEBe_
FNDA:0,_RINvMs4_NtNtNtNtCslGh6CY2EcXh_14darwin_metrics8hardware5iokit22___mock_MockIOKit_IOKit14___read_smc_keyNtB6_6Common8withf_stpEBe_
FNDA:0,_RINvMs4_NtNtNtNtCslGh6CY2EcXh_14darwin_metrics8hardware5iokit22___mock_MockIOKit_IOKit15___get_cpu_powerNtB6_6Common5timespEBe_
FNDA:0,_RINvMs4_NtNtNtNtCslGh6CY2EcXh_14darwin_metrics8hardware5iokit22___mock_MockIOKit_IOKit15___get_cpu_powerNtB6_6Common5withfpEBe_
FNDA:0,_RINvMs4_NtNtNtNtCslGh6CY2EcXh_14darwin_metrics8hardware5iokit22___mock_MockIOKit_IOKit15___get_cpu_powerNtB6_6Common8withf_stpEBe_
FNDA:0,_RINvMs4_NtNtNtNtCslGh6CY2EcXh_14darwin_metrics8hardware5iokit22___mock_MockIOKit_IOKit15___get_fan_countNtB6_6Common5timespEBe_
FNDA:0,_RINvMs4_NtNtNtNtCslGh6CY2EcXh_14darwin_metrics8hardware5iokit22___mock_MockIOKit_IOKit15___get_fan_countNtB6_6Common5withfpEBe_
FNDA:0,_RINvMs4_NtNtNtNtCslGh6CY2EcXh_14darwin_metrics8hardware5iokit22___mock_MockIOKit_IOKit15___get_fan_countNtB6_6Common8withf_stpEBe_
FNDA:0,_RINvMs4_NtNtNtNtCslGh6CY2EcXh_14darwin_metrics8hardware5iokit22___mock_MockIOKit_IOKit15___get_fan_speedNtB6_6Common5timespEBe_
FNDA:0,_RINvMs4_NtNtNtNtCslGh6CY2EcXh_14darwin_metrics8hardware5iokit22___mock_MockIOKit_IOKit15___get_fan_speedNtB6_6Common5withfpEBe_
FNDA:0,_RINvMs4_NtNtNtNtCslGh6CY2EcXh_14darwin_metrics8hardware5iokit22___mock_MockIOKit_IOKit15___get_fan_speedNtB6_6Common8withf_stpEBe_
FNDA:0,_RINvMs4_NtNtNtNtCslGh6CY2EcXh_14darwin_metrics8hardware5iokit22___mock_MockIOKit_IOKit15___get_gpu_statsNtB6_6Common5timespEBe_
FNDA:0,_RINvMs4_NtNtNtNtCslGh6CY2EcXh_14darwin_metrics8hardware5iokit22___mock_MockIOKit_IOKit15___get_gpu_statsNtB6_6Common5withfpEBe_
FNDA:0,_RINvMs4_NtNtNtNtCslGh6CY2EcXh_14darwin_metrics8hardware5iokit22___mock_MockIOKit_IOKit15___get_gpu_statsNtB6_6Common8withf_stpEBe_
FNDA:0,_RINvMs4_NtNtNtNtCslGh6CY2EcXh_14darwin_metrics8hardware5iokit22___mock_MockIOKit_IOKit18___get_thermal_infoNtB6_6Common5timespEBe_
FNDA:0,_RINvMs4_NtNtNtNtCslGh6CY2EcXh_14darwin_metrics8hardware5iokit22___mock_MockIOKit_IOKit18___get_thermal_infoNtB6_6Common5withfpEBe_
FNDA:0,_RINvMs4_NtNtNtNtCslGh6CY2EcXh_14darwin_metrics8hardware5iokit22___mock_MockIOKit_IOKit18___get_thermal_infoNtB6_6Common8withf_stpEBe_
FNDA:0,_RINvMs4_NtNtNtNtCslGh6CY2EcXh_14darwin_metrics8hardware5iokit22___mock_MockIOKit_IOKit19___get_bool_propertyNtB6_6Common4withppEBe_
FNDA:0,_RINvMs4_NtNtNtNtCslGh6CY2EcXh_14darwin_metrics8hardware5iokit22___mock_MockIOKit_IOKit19___get_bool_propertyNtB6_6Common5timespEBe_
FNDA:0,_RINvMs4_NtNtNtNtCslGh6CY2EcXh_14darwin_metrics8hardware5iokit22___mock_MockIOKit_IOKit19___get_bool_propertyNtB6_6Common5withfpEBe_
FNDA:0,_RINvMs4_NtNtNtNtCslGh6CY2EcXh_14darwin_metrics8hardware5iokit22___mock_MockIOKit_IOKit19___get_bool_propertyNtB6_6Common8withf_stpEBe_
FNDA:0,_RINvMs4_NtNtNtNtCslGh6CY2EcXh_14darwin_metrics8hardware5iokit22___mock_MockIOKit_IOKit19___get_dict_propertyNtB6_6Common4withppEBe_
FNDA:0,_RINvMs4_NtNtNtNtCslGh6CY2EcXh_14darwin_metrics8hardware5iokit22___mock_MockIOKit_IOKit19___get_dict_propertyNtB6_6Common5timespEBe_
FNDA:0,_RINvMs4_NtNtNtNtCslGh6CY2EcXh_14darwin_metrics8hardware5iokit22___mock_MockIOKit_IOKit19___get_dict_propertyNtB6_6Common5withfpEBe_
FNDA:0,_RINvMs4_NtNtNtNtCslGh6CY2EcXh_14darwin_metrics8hardware5iokit22___mock_MockIOKit_IOKit19___get_dict_propertyNtB6_6Common8withf_stpEBe_
FNDA:0,_RINvMs4_NtNtNtNtCslGh6CY2EcXh_14darwin_metrics8hardware5iokit22___mock_MockIOKit_IOKit19___io_object_releaseNtB6_6Common4withpEBe_
FNDA:0,_RINvMs4_NtNtNtNtCslGh6CY2EcXh_14darwin_metrics8hardware5iokit22___mock_MockIOKit_IOKit19___io_object_releaseNtB6_6Common5timespEBe_
FNDA:0,_RINvMs4_NtNtNtNtCslGh6CY2EcXh_14darwin_metrics8hardware5iokit22___mock_MockIOKit_IOKit19___io_object_releaseNtB6_6Common5withfpEBe_
FNDA:0,_RINvMs4_NtNtNtNtCslGh6CY2EcXh_14darwin_metrics8hardware5iokit22___mock_MockIOKit_IOKit19___io_object_releaseNtB6_6Common8withf_stpEBe_
FNDA:0,_RINvMs4_NtNtNtNtCslGh6CY2EcXh_14darwin_metrics8hardware5iokit22___mock_MockIOKit_IOKit21___get_cpu_temperatureNtB6_6Common5timespEBe_
FNDA:0,_RINvMs4_NtNtNtNtCslGh6CY2EcXh_14darwin_metrics8hardware5iokit22___mock_MockIOKit_IOKit21___get_cpu_temperatureNtB6_6Common5withfpEBe_
FNDA:0,_RINvMs4_NtNtNtNtCslGh6CY2EcXh_14darwin_metrics8hardware5iokit22___mock_MockIOKit_IOKit21___get_cpu_temperatureNtB6_6Common8withf_stpEBe_
FNDA:0,_RINvMs4_NtNtNtNtCslGh6CY2EcXh_14darwin_metrics8hardware5iokit22___mock_MockIOKit_IOKit21___get_gpu_temperatureNtB6_6Common5timespEBe_
FNDA:0,_RINvMs4_NtNtNtNtCslGh6CY2EcXh_14darwin_metrics8hardware5iokit22___mock_MockIOKit_IOKit21___get_gpu_temperatureNtB6_6Common5withfpEBe_
FNDA:0,_RINvMs4_NtNtNtNtCslGh6CY2EcXh_14darwin_metrics8hardware5iokit22___mock_MockIOKit_IOKit21___get_gpu_temperatureNtB6_6Common8withf_stpEBe_
FNDA:0,_RINvMs4_NtNtNtNtCslGh6CY2EcXh_14darwin_metrics8hardware5iokit22___mock_MockIOKit_IOKit21___get_number_propertyNtB6_6Common4withppEBe_
FNDA:0,_RINvMs4_NtNtNtNtCslGh6CY2EcXh_14darwin_metrics8hardware5iokit22___mock_MockIOKit_IOKit21___get_number_propertyNtB6_6Common5timespEBe_
FNDA:0,_RINvMs4_NtNtNtNtCslGh6CY2EcXh_14darwin_metrics8hardware5iokit22___mock_MockIOKit_IOKit21___get_number_propertyNtB6_6Common5withfpEBe_
FNDA:0,_RINvMs4_NtNtNtNtCslGh6CY2EcXh_14darwin_metrics8hardware5iokit22___mock_MockIOKit_IOKit21___get_number_propertyNtB6_6Common8withf_stpEBe_
FNDA:0,_RINvMs4_NtNtNtNtCslGh6CY2EcXh_14darwin_metrics8hardware5iokit22___mock_MockIOKit_IOKit21___get_string_propertyNtB6_6Common4withppEBe_
FNDA:0,_RINvMs4_NtNtNtNtCslGh6CY2EcXh_14darwin_metrics8hardware5iokit22___mock_MockIOKit_IOKit21___get_string_propertyNtB6_6Common5timespEBe_
FNDA:0,_RINvMs4_NtNtNtNtCslGh6CY2EcXh_14darwin_metrics8hardware5iokit22___mock_MockIOKit_IOKit21___get_string_propertyNtB6_6Common5withfpEBe_
FNDA:0,_RINvMs4_NtNtNtNtCslGh6CY2EcXh_14darwin_metrics8hardware5iokit22___mock_MockIOKit_IOKit21___get_string_propertyNtB6_6Common8withf_stpEBe_
FNDA:0,_RINvMs4_NtNtNtNtCslGh6CY2EcXh_14darwin_metrics8hardware5iokit22___mock_MockIOKit_IOKit21___io_service_matchingNtB6_6Common4withpEBe_
FNDA:0,_RINvMs4_NtNtNtNtCslGh6CY2EcXh_14darwin_metrics8hardware5iokit22___mock_MockIOKit_IOKit21___io_service_matchingNtB6_6Common5timespEBe_
FNDA:0,_RINvMs4_NtNtNtNtCslGh6CY2EcXh_14darwin_metrics8hardware5iokit22___mock_MockIOKit_IOKit21___io_service_matchingNtB6_6Common5withfpEBe_
FNDA:0,_RINvMs4_NtNtNtNtCslGh6CY2EcXh_14darwin_metrics8hardware5iokit22___mock_MockIOKit_IOKit21___io_service_matchingNtB6_6Common8withf_stpEBe_
FNDA:0,_RINvMs4_NtNtNtNtCslGh6CY2EcXh_14darwin_metrics8hardware5iokit22___mock_MockIOKit_IOKit25___get_ambient_temperatureNtB6_6Common5timespEBe_
FNDA:0,_RINvMs4_NtNtNtNtCslGh6CY2EcXh_14darwin_metrics8hardware5iokit22___mock_MockIOKit_IOKit25___get_ambient_temperatureNtB6_6Common5withfpEBe_
FNDA:0,_RINvMs4_NtNtNtNtCslGh6CY2EcXh_14darwin_metrics8hardware5iokit22___mock_MockIOKit_IOKit25___get_ambient_temperatureNtB6_6Common8withf_stpEBe_
FNDA:0,_RINvMs4_NtNtNtNtCslGh6CY2EcXh_14darwin_metrics8hardware5iokit22___mock_MockIOKit_IOKit25___get_battery_temperatureNtB6_6Common5timespEBe_
FNDA:0,_RINvMs4_NtNtNtNtCslGh6CY2EcXh_14darwin_metrics8hardware5iokit22___mock_MockIOKit_IOKit25___get_battery_temperatureNtB6_6Common5withfpEBe_
FNDA:0,_RINvMs4_NtNtNtNtCslGh6CY2EcXh_14darwin_metrics8hardware5iokit22___mock_MockIOKit_IOKit25___get_battery_temperatureNtB6_6Common8withf_stpEBe_
FNDA:0,_RINvMs4_NtNtNtNtCslGh6CY2EcXh_14darwin_metrics8hardware5iokit22___mock_MockIOKit_IOKit26___check_thermal_throttlingNtB6_6Common5timespEBe_
FNDA:0,_RINvMs4_NtNtNtNtCslGh6CY2EcXh_14darwin_metrics8hardware5iokit22___mock_MockIOKit_IOKit26___check_thermal_throttlingNtB6_6Common5withfpEBe_
FNDA:0,_RINvMs4_NtNtNtNtCslGh6CY2EcXh_14darwin_metrics8hardware5iokit22___mock_MockIOKit_IOKit26___check_thermal_throttlingNtB6_6Common8withf_stpEBe_
FNDA:0,_RINvMs4_NtNtNtNtCslGh6CY2EcXh_14darwin_metrics8hardware5iokit22___mock_MockIOKit_IOKit26___get_heatsink_temperatureNtB6_6Common5timespEBe_
FNDA:0,_RINvMs4_NtNtNtNtCslGh6CY2EcXh_14darwin_metrics8hardware5iokit22___mock_MockIOKit_IOKit26___get_heatsink_temperatureNtB6_6Common5withfpEBe_
FNDA:0,_RINvMs4_NtNtNtNtCslGh6CY2EcXh_14darwin_metrics8hardware5iokit22___mock_MockIOKit_IOKit26___get_heatsink_temperatureNtB6_6Common8withf_stpEBe_
FNDA:0,_RINvMs4_NtNtNtNtCslGh6CY2EcXh_14darwin_metrics8hardware5iokit22___mock_MockIOKit_IOKit30___io_registry_entry_get_parentNtB6_6Common4withpEBe_
FNDA:0,_RINvMs4_NtNtNtNtCslGh6CY2EcXh_14darwin_metrics8hardware5iokit22___mock_MockIOKit_IOKit30___io_registry_entry_get_parentNtB6_6Common5timespEBe_
FNDA:0,_RINvMs4_NtNtNtNtCslGh6CY2EcXh_14darwin_metrics8hardware5iokit22___mock_MockIOKit_IOKit30___io_registry_entry_get_parentNtB6_6Common5withfpEBe_
FNDA:0,_RINvMs4_NtNtNtNtCslGh6CY2EcXh_14darwin_metrics8hardware5iokit22___mock_MockIOKit_IOKit30___io_registry_entry_get_parentNtB6_6Common8withf_stpEBe_
FNDA:0,_RINvMs4_NtNtNtNtCslGh6CY2EcXh_14darwin_metrics8hardware5iokit22___mock_MockIOKit_IOKit33___io_service_get_matching_serviceNtB6_6Common4withpEBe_
FNDA:0,_RINvMs4_NtNtNtNtCslGh6CY2EcXh_14darwin_metrics8hardware5iokit22___mock_MockIOKit_IOKit33___io_service_get_matching_serviceNtB6_6Common5timespEBe_
FNDA:0,_RINvMs4_NtNtNtNtCslGh6CY2EcXh_14darwin_metrics8hardware5iokit22___mock_MockIOKit_IOKit33___io_service_get_matching_serviceNtB6_6Common5withfpEBe_
FNDA:0,_RINvMs4_NtNtNtNtCslGh6CY2EcXh_14darwin_metrics8hardware5iokit22___mock_MockIOKit_IOKit33___io_service_get_matching_serviceNtB6_6Common8withf_stpEBe_
FNDA:0,_RINvMs4_NtNtNtNtCslGh6CY2EcXh_14darwin_metrics8hardware5iokit22___mock_MockIOKit_IOKit40___io_registry_entry_create_cf_propertiesNtB6_6Common4withpEBe_
FNDA:0,_RINvMs4_NtNtNtNtCslGh6CY2EcXh_14darwin_metrics8hardware5iokit22___mock_MockIOKit_IOKit40___io_registry_entry_create_cf_propertiesNtB6_6Common5timespEBe_
FNDA:0,_RINvMs4_NtNtNtNtCslGh6CY2EcXh_14darwin_metrics8hardware5iokit22___mock_MockIOKit_IOKit40___io_registry_entry_create_cf_propertiesNtB6_6Common5withfpEBe_
FNDA:0,_RINvMs4_NtNtNtNtCslGh6CY2EcXh_14darwin_metrics8hardware5iokit22___mock_MockIOKit_IOKit40___io_registry_entry_create_cf_propertiesNtB6_6Common8withf_stpEBe_
FNDA:0,_RINvMs6_NtNtNtNtCslGh6CY2EcXh_14darwin_metrics8hardware5iokit22___mock_MockIOKit_IOKit13___get_serviceNtB6_11Expectation11return_oncepEBe_
FNDA:0,_RINvMs6_NtNtNtNtCslGh6CY2EcXh_14darwin_metrics8hardware5iokit22___mock_MockIOKit_IOKit13___get_serviceNtB6_11Expectation12returning_stpEBe_
FNDA:0,_RINvMs6_NtNtNtNtCslGh6CY2EcXh_14darwin_metrics8hardware5iokit22___mock_MockIOKit_IOKit13___get_serviceNtB6_11Expectation14return_once_stpEBe_
FNDA:0,_RINvMs6_NtNtNtNtCslGh6CY2EcXh_14darwin_metrics8hardware5iokit22___mock_MockIOKit_IOKit13___get_serviceNtB6_11Expectation4withpEBe_
FNDA:0,_RINvMs6_NtNtNtNtCslGh6CY2EcXh_14darwin_metrics8hardware5iokit22___mock_MockIOKit_IOKit13___get_serviceNtB6_11Expectation5timespEBe_
FNDA:0,_RINvMs6_NtNtNtNtCslGh6CY2EcXh_14darwin_metrics8hardware5iokit22___mock_MockIOKit_IOKit13___get_serviceNtB6_11Expectation5withfpEBe_
FNDA:0,_RINvMs6_NtNtNtNtCslGh6CY2EcXh_14darwin_metrics8hardware5iokit22___mock_MockIOKit_IOKit13___get_serviceNtB6_11Expectation8withf_stpEBe_
FNDA:0,_RINvMs6_NtNtNtNtCslGh6CY2EcXh_14darwin_metrics8hardware5iokit22___mock_MockIOKit_IOKit14___get_all_fansNtB6_11Expectation11return_oncepEBe_
FNDA:0,_RINvMs6_NtNtNtNtCslGh6CY2EcXh_14darwin_metrics8hardware5iokit22___mock_MockIOKit_IOKit14___get_all_fansNtB6_11Expectation12returning_stpEBe_
FNDA:0,_RINvMs6_NtNtNtNtCslGh6CY2EcXh_14darwin_metrics8hardware5iokit22___mock_MockIOKit_IOKit14___get_all_fansNtB6_11Expectation14return_once_stpEBe_
FNDA:0,_RINvMs6_NtNtNtNtCslGh6CY2EcXh_14darwin_metrics8hardware5iokit22___mock_MockIOKit_IOKit14___get_all_fansNtB6_11Expectation5timespEBe_
FNDA:0,_RINvMs6_NtNtNtNtCslGh6CY2EcXh_14darwin_metrics8hardware5iokit22___mock_MockIOKit_IOKit14___get_all_fansNtB6_11Expectation5withfpEBe_
FNDA:0,_RINvMs6_NtNtNtNtCslGh6CY2EcXh_14darwin_metrics8hardware5iokit22___mock_MockIOKit_IOKit14___get_all_fansNtB6_11Expectation8withf_stpEBe_
FNDA:0,_RINvMs6_NtNtNtNtCslGh6CY2EcXh_14darwin_metrics8hardware5iokit22___mock_MockIOKit_IOKit14___get_fan_infoNtB6_11Expectation11return_oncepEBe_
FNDA:0,_RINvMs6_NtNtNtNtCslGh6CY2EcXh_14darwin_metrics8hardware5iokit22___mock_MockIOKit_IOKit14___get_fan_infoNtB6_11Expectation12returning_stpEBe_
FNDA:0,_RINvMs6_NtNtNtNtCslGh6CY2EcXh_14darwin_metrics8hardware5iokit22___mock_MockIOKit_IOKit14___get_fan_infoNtB6_11Expectation14return_once_stpEBe_
FNDA:0,_RINvMs6_NtNtNtNtCslGh6CY2EcXh_14darwin_metrics8hardware5iokit22___mock_MockIOKit_IOKit14___get_fan_infoNtB6_11Expectation5timespEBe_
FNDA:0,_RINvMs6_NtNtNtNtCslGh6CY2EcXh_14darwin_metrics8hardware5iokit22___mock_MockIOKit_IOKit14___get_fan_infoNtB6_11Expectation5withfpEBe_
FNDA:0,_RINvMs6_NtNtNtNtCslGh6CY2EcXh_14darwin_metrics8hardware5iokit22___mock_MockIOKit_IOKit14___get_fan_infoNtB6_11Expectation8withf_stpEBe_
FNDA:0,_RINvMs6_NtNtNtNtCslGh6CY2EcXh_14darwin_metrics8hardware5iokit22___mock_MockIOKit_IOKit14___read_smc_keyNtB6_11Expectation11return_oncepEBe_
FNDA:0,_RINvMs6_NtNtNtNtCslGh6CY2EcXh_14darwin_metrics8hardware5iokit22___mock_MockIOKit_IOKit14___read_smc_keyNtB6_11Expectation12returning_stpEBe_
FNDA:0,_RINvMs6_NtNtNtNtCslGh6CY2EcXh_14darwin_metrics8hardware5iokit22___mock_MockIOKit_IOKit14___read_smc_keyNtB6_11Expectation14return_once_stpEBe_
FNDA:0,_RINvMs6_NtNtNtNtCslGh6CY2EcXh_14darwin_metrics8hardware5iokit22___mock_MockIOKit_IOKit14___read_smc_keyNtB6_11Expectation5timespEBe_
FNDA:0,_RINvMs6_NtNtNtNtCslGh6CY2EcXh_14darwin_metrics8hardware5iokit22___mock_MockIOKit_IOKit14___read_smc_keyNtB6_11Expectation5withfpEBe_
FNDA:0,_RINvMs6_NtNtNtNtCslGh6CY2EcXh_14darwin_metrics8hardware5iokit22___mock_MockIOKit_IOKit14___read_smc_keyNtB6_11Expectation8withf_stpEBe_
FNDA:0,_RINvMs6_NtNtNtNtCslGh6CY2EcXh_14darwin_metrics8hardware5iokit22___mock_MockIOKit_IOKit15___get_cpu_powerNtB6_11Expectation11return_oncepEBe_
FNDA:0,_RINvMs6_NtNtNtNtCslGh6CY2EcXh_14darwin_metrics8hardware5iokit22___mock_MockIOKit_IOKit15___get_cpu_powerNtB6_11Expectation12returning_stpEBe_
FNDA:0,_RINvMs6_NtNtNtNtCslGh6CY2EcXh_14darwin_metrics8hardware5iokit22___mock_MockIOKit_IOKit15___get_cpu_powerNtB6_11Expectation14return_once_stpEBe_
FNDA:0,_RINvMs6_NtNtNtNtCslGh6CY2EcXh_14darwin_metrics8hardware5iokit22___mock_MockIOKit_IOKit15___get_cpu_powerNtB6_11Expectation5timespEBe_
FNDA:0,_RINvMs6_NtNtNtNtCslGh6CY2EcXh_14darwin_metrics8hardware5iokit22___mock_MockIOKit_IOKit15___get_cpu_powerNtB6_11Expectation5withfpEBe_
FNDA:0,_RINvMs6_NtNtNtNtCslGh6CY2EcXh_14darwin_metrics8hardware5iokit22___mock_MockIOKit_IOKit15___get_cpu_powerNtB6_11Expectation8withf_stpEBe_
FNDA:0,_RINvMs6_NtNtNtNtCslGh6CY2EcXh_14darwin_metrics8hardware5iokit22___mock_MockIOKit_IOKit15___get_fan_countNtB6_11Expectation11return_oncepEBe_
FNDA:0,_RINvMs6_NtNtNtNtCslGh6CY2EcXh_14darwin_metrics8hardware5iokit22___mock_MockIOKit_IOKit15___get_fan_countNtB6_11Expectation12returning_stpEBe_
FNDA:0,_RINvMs6_NtNtNtNtCslGh6CY2EcXh_14darwin_metrics8hardware5iokit22___mock_MockIOKit_IOKit15___get_fan_countNtB6_11Expectation14return_once_stpEBe_
FNDA:0,_RINvMs6_NtNtNtNtCslGh6CY2EcXh_14darwin_metrics8hardware5iokit22___mock_MockIOKit_IOKit15___get_fan_countNtB6_11Expectation5timespEBe_
FNDA:0,_RINvMs6_NtNtNtNtCslGh6CY2EcXh_14darwin_metrics8hardware5iokit22___mock_MockIOKit_IOKit15___get_fan_countNtB6_11Expectation5withfpEBe_
FNDA:0,_RINvMs6_NtNtNtNtCslGh6CY2EcXh_14darwin_metrics8hardware5iokit22___mock_MockIOKit_IOKit15___get_fan_countNtB6_11Expectation8withf_stpEBe_
FNDA:0,_RINvMs6_NtNtNtNtCslGh6CY2EcXh_14darwin_metrics8hardware5iokit22___mock_MockIOKit_IOKit15___get_fan_speedNtB6_11Expectation11return_oncepEBe_
FNDA:0,_RINvMs6_NtNtNtNtCslGh6CY2EcXh_14darwin_metrics8hardware5iokit22___mock_MockIOKit_IOKit15___get_fan_speedNtB6_11Expectation12returning_stpEBe_
FNDA:0,_RINvMs6_NtNtNtNtCslGh6CY2EcXh_14darwin_metrics8hardware5iokit22___mock_MockIOKit_IOKit15___get_fan_speedNtB6_11Expectation14return_once_stpEBe_
FNDA:0,_RINvMs6_NtNtNtNtCslGh6CY2EcXh_14darwin_metrics8hardware5iokit22___mock_MockIOKit_IOKit15___get_fan_speedNtB6_11Expectation5timespEBe_
FNDA:0,_RINvMs6_NtNtNtNtCslGh6CY2EcXh_14darwin_metrics8hardware5iokit22___mock_MockIOKit_IOKit15___get_fan_speedNtB6_11Expectation5withfpEBe_
FNDA:0,_RINvMs6_NtNtNtNtCslGh6CY2EcXh_14darwin_metrics8hardware5iokit22___mock_MockIOKit_IOKit15___get_fan_speedNtB6_11Expectation8withf_stpEBe_
FNDA:0,_RINvMs6_NtNtNtNtCslGh6CY2EcXh_14darwin_metrics8hardware5iokit22___mock_MockIOKit_IOKit15___get_gpu_statsNtB6_11Expectation11return_oncepEBe_
FNDA:0,_RINvMs6_NtNtNtNtCslGh6CY2EcXh_14darwin_metrics8hardware5iokit22___mock_MockIOKit_IOKit15___get_gpu_statsNtB6_11Expectation12returning_stpEBe_
FNDA:0,_RINvMs6_NtNtNtNtCslGh6CY2EcXh_14darwin_metrics8hardware5iokit22___mock_MockIOKit_IOKit15___get_gpu_statsNtB6_11Expectation14return_once_stpEBe_
FNDA:0,_RINvMs6_NtNtNtNtCslGh6CY2EcXh_14darwin_metrics8hardware5iokit22___mock_MockIOKit_IOKit15___get_gpu_statsNtB6_11Expectation5timespEBe_
FNDA:0,_RINvMs6_NtNtNtNtCslGh6CY2EcXh_14darwin_metrics8hardware5iokit22___mock_MockIOKit_IOKit15___get_gpu_statsNtB6_11Expectation5withfpEBe_
FNDA:0,_RINvMs6_NtNtNtNtCslGh6CY2EcXh_14darwin_metrics8hardware5iokit22___mock_MockIOKit_IOKit15___get_gpu_statsNtB6_11Expectation8withf_stpEBe_
FNDA:0,_RINvMs6_NtNtNtNtCslGh6CY2EcXh_14darwin_metrics8hardware5iokit22___mock_MockIOKit_IOKit18___get_thermal_infoNtB6_11Expectation11return_oncepEBe_
FNDA:0,_RINvMs6_NtNtNtNtCslGh6CY2EcXh_14darwin_metrics8hardware5iokit22___mock_MockIOKit_IOKit18___get_thermal_infoNtB6_11Expectation12returning_stpEBe_
FNDA:0,_RINvMs6_NtNtNtNtCslGh6CY2EcXh_14darwin_metrics8hardware5iokit22___mock_MockIOKit_IOKit18___get_thermal_infoNtB6_11Expectation14return_once_stpEBe_
FNDA:0,_RINvMs6_NtNtNtNtCslGh6CY2EcXh_14darwin_metrics8hardware5iokit22___mock_MockIOKit_IOKit18___get_thermal_infoNtB6_11Expectation5timespEBe_
FNDA:0,_RINvMs6_NtNtNtNtCslGh6CY2EcXh_14darwin_metrics8hardware5iokit22___mock_MockIOKit_IOKit18___get_thermal_infoNtB6_11Expectation5withfpEBe_
FNDA:0,_RINvMs6_NtNtNtNtCslGh6CY2EcXh_14darwin_metrics8hardware5iokit22___mock_MockIOKit_IOKit18___get_thermal_infoNtB6_11Expectation8withf_stpEBe_
FNDA:0,_RINvMs6_NtNtNtNtCslGh6CY2EcXh_14darwin_metrics8hardware5iokit22___mock_MockIOKit_IOKit19___get_bool_propertyNtB6_11Expectation11return_oncepEBe_
FNDA:0,_RINvMs6_NtNtNtNtCslGh6CY2EcXh_14darwin_metrics8hardware5iokit22___mock_MockIOKit_IOKit19___get_bool_propertyNtB6_11Expectation12returning_stpEBe_
FNDA:0,_RINvMs6_NtNtNtNtCslGh6CY2EcXh_14darwin_metrics8hardware5iokit22___mock_MockIOKit_IOKit19___get_bool_propertyNtB6_11Expectation14return_once_stpEBe_
FNDA:0,_RINvMs6_NtNtNtNtCslGh6CY2EcXh_14darwin_metrics8hardware5iokit22___mock_MockIOKit_IOKit19___get_bool_propertyNtB6_11Expectation4withppEBe_
FNDA:0,_RINvMs6_NtNtNtNtCslGh6CY2EcXh_14darwin_metrics8hardware5iokit22___mock_MockIOKit_IOKit19___get_bool_propertyNtB6_11Expectation5timespEBe_
FNDA:0,_RINvMs6_NtNtNtNtCslGh6CY2EcXh_14darwin_metrics8hardware5iokit22___mock_MockIOKit_IOKit19___get_bool_propertyNtB6_11Expectation5withfpEBe_
FNDA:0,_RINvMs6_NtNtNtNtCslGh6CY2EcXh_14darwin_metrics8hardware5iokit22___mock_MockIOKit_IOKit19___get_bool_propertyNtB6_11Expectation8withf_stpEBe_
FNDA:0,_RINvMs6_NtNtNtNtCslGh6CY2EcXh_14darwin_metrics8hardware5iokit22___mock_MockIOKit_IOKit19___get_dict_propertyNtB6_11Expectation11return_oncepEBe_
FNDA:0,_RINvMs6_NtNtNtNtCslGh6CY2EcXh_14darwin_metrics8hardware5iokit22___mock_MockIOKit_IOKit19___get_dict_propertyNtB6_11Expectation12returning_stpEBe_
FNDA:0,_RINvMs6_NtNtNtNtCslGh6CY2EcXh_14darwin_metrics8hardware5iokit22___mock_MockIOKit_IOKit19___get_dict_propertyNtB6_11Expectation14return_once_stpEBe_
FNDA:0,_RINvMs6_NtNtNtNtCslGh6CY2EcXh_14darwin_metrics8hardware5iokit22___mock_MockIOKit_IOKit19___get_dict_propertyNtB6_11Expectation4withppEBe_
FNDA:0,_RINvMs6_NtNtNtNtCslGh6CY2EcXh_14darwin_metrics8hardware5iokit22___mock_MockIOKit_IOKit19___get_dict_propertyNtB6_11Expectation5timespEBe_
FNDA:0,_RINvMs6_NtNtNtNtCslGh6CY2EcXh_14darwin_metrics8hardware5iokit22___mock_MockIOKit_IOKit19___get_dict_propertyNtB6_11Expectation5withfpEBe_
FNDA:0,_RINvMs6_NtNtNtNtCslGh6CY2EcXh_14darwin_metrics8hardware5iokit22___mock_MockIOKit_IOKit19___get_dict_propertyNtB6_11Expectation8withf_stpEBe_
FNDA:0,_RINvMs6_NtNtNtNtCslGh6CY2EcXh_14darwin_metrics8hardware5iokit22___mock_MockIOKit_IOKit19___io_object_releaseNtB6_11Expectation11return_oncepEBe_
FNDA:0,_RINvMs6_NtNtNtNtCslGh6CY2EcXh_14darwin_metrics8hardware5iokit22___mock_MockIOKit_IOKit19___io_object_releaseNtB6_11Expectation12returning_stpEBe_
FNDA:0,_RINvMs6_NtNtNtNtCslGh6CY2EcXh_14darwin_metrics8hardware5iokit22___mock_MockIOKit_IOKit19___io_object_releaseNtB6_11Expectation14return_once_stpEBe_
FNDA:0,_RINvMs6_NtNtNtNtCslGh6CY2EcXh_14darwin_metrics8hardware5iokit22___mock_MockIOKit_IOKit19___io_object_releaseNtB6_11Expectation4withpEBe_
FNDA:0,_RINvMs6_NtNtNtNtCslGh6CY2EcXh_14darwin_metrics8hardware5iokit22___mock_MockIOKit_IOKit19___io_object_releaseNtB6_11Expectation5timespEBe_
FNDA:0,_RINvMs6_NtNtNtNtCslGh6CY2EcXh_14darwin_metrics8hardware5iokit22___mock_MockIOKit_IOKit19___io_object_releaseNtB6_11Expectation5withfpEBe_
FNDA:0,_RINvMs6_NtNtNtNtCslGh6CY2EcXh_14darwin_metrics8hardware5iokit22___mock_MockIOKit_IOKit19___io_object_releaseNtB6_11Expectation8withf_stpEBe_
FNDA:0,_RINvMs6_NtNtNtNtCslGh6CY2EcXh_14darwin_metrics8hardware5iokit22___mock_MockIOKit_IOKit19___io_object_releaseNtB6_11Expectation9returningpEBe_
FNDA:0,_RINvMs6_NtNtNtNtCslGh6CY2EcXh_14darwin_metrics8hardware5iokit22___mock_MockIOKit_IOKit21___get_cpu_temperatureNtB6_11Expectation11return_oncepEBe_
FNDA:0,_RINvMs6_NtNtNtNtCslGh6CY2EcXh_14darwin_metrics8hardware5iokit22___mock_MockIOKit_IOKit21___get_cpu_temperatureNtB6_11Expectation12returning_stpEBe_
FNDA:0,_RINvMs6_NtNtNtNtCslGh6CY2EcXh_14darwin_metrics8hardware5iokit22___mock_MockIOKit_IOKit21___get_cpu_temperatureNtB6_11Expectation14return_once_stpEBe_
FNDA:0,_RINvMs6_NtNtNtNtCslGh6CY2EcXh_14darwin_metrics8hardware5iokit22___mock_MockIOKit_IOKit21___get_cpu_temperatureNtB6_11Expectation5timespEBe_
FNDA:0,_RINvMs6_NtNtNtNtCslGh6CY2EcXh_14darwin_metrics8hardware5iokit22___mock_MockIOKit_IOKit21___get_cpu_temperatureNtB6_11Expectation5withfpEBe_
FNDA:0,_RINvMs6_NtNtNtNtCslGh6CY2EcXh_14darwin_metrics8hardware5iokit22___mock_MockIOKit_IOKit21___get_cpu_temperatureNtB6_11Expectation8withf_stpEBe_
FNDA:0,_RINvMs6_NtNtNtNtCslGh6CY2EcXh_14darwin_metrics8hardware5iokit22___mock_MockIOKit_IOKit21___get_gpu_temperatureNtB6_11Expectation11return_oncepEBe_
FNDA:0,_RINvMs6_NtNtNtNtCslGh6CY2EcXh_14darwin_metrics8hardware5iokit22___mock_MockIOKit_IOKit21___get_gpu_temperatureNtB6_11Expectation12returning_stpEBe_
FNDA:0,_RINvMs6_NtNtNtNtCslGh6CY2EcXh_14darwin_metrics8hardware5iokit22___mock_MockIOKit_IOKit21___get_gpu_temperatureNtB6_11Expectation14return_once_stpEBe_
FNDA:0,_RINvMs6_NtNtNtNtCslGh6CY2EcXh_14darwin_metrics8hardware5iokit22___mock_MockIOKit_IOKit21___get_gpu_temperatureNtB6_11Expectation5timespEBe_
FNDA:0,_RINvMs6_NtNtNtNtCslGh6CY2EcXh_14darwin_metrics8hardware5iokit22___mock_MockIOKit_IOKit21___get_gpu_temperatureNtB6_11Expectation5withfpEBe_
FNDA:0,_RINvMs6_NtNtNtNtCslGh6CY2EcXh_14darwin_metrics8hardware5iokit22___mock_MockIOKit_IOKit21___get_gpu_temperatureNtB6_11Expectation8withf_stpEBe_
FNDA:0,_RINvMs6_NtNtNtNtCslGh6CY2EcXh_14darwin_metrics8hardware5iokit22___mock_MockIOKit_IOKit21___get_number_propertyNtB6_11Expectation11return_oncepEBe_
FNDA:0,_RINvMs6_NtNtNtNtCslGh6CY2EcXh_14darwin_metrics8hardware5iokit22___mock_MockIOKit_IOKit21___get_number_propertyNtB6_11Expectation12returning_stpEBe_
FNDA:0,_RINvMs6_NtNtNtNtCslGh6CY2EcXh_14darwin_metrics8hardware5iokit22___mock_MockIOKit_IOKit21___get_number_propertyNtB6_11Expectation14return_once_stpEBe_
FNDA:0,_RINvMs6_NtNtNtNtCslGh6CY2EcXh_14darwin_metrics8hardware5iokit22___mock_MockIOKit_IOKit21___get_number_propertyNtB6_11Expectation4withppEBe_
FNDA:0,_RINvMs6_NtNtNtNtCslGh6CY2EcXh_14darwin_metrics8hardware5iokit22___mock_MockIOKit_IOKit21___get_number_propertyNtB6_11Expectation5timespEBe_
FNDA:0,_RINvMs6_NtNtNtNtCslGh6CY2EcXh_14darwin_metrics8hardware5iokit22___mock_MockIOKit_IOKit21___get_number_propertyNtB6_11Expectation5withfpEBe_
FNDA:0,_RINvMs6_NtNtNtNtCslGh6CY2EcXh_14darwin_metrics8hardware5iokit22___mock_MockIOKit_IOKit21___get_number_propertyNtB6_11Expectation8withf_stpEBe_
FNDA:0,_RINvMs6_NtNtNtNtCslGh6CY2EcXh_14darwin_metrics8hardware5iokit22___mock_MockIOKit_IOKit21___get_string_propertyNtB6_11Expectation11return_oncepEBe_
FNDA:0,_RINvMs6_NtNtNtNtCslGh6CY2EcXh_14darwin_metrics8hardware5iokit22___mock_MockIOKit_IOKit21___get_string_propertyNtB6_11Expectation12returning_stpEBe_
FNDA:0,_RINvMs6_NtNtNtNtCslGh6CY2EcXh_14darwin_metrics8hardware5iokit22___mock_MockIOKit_IOKit21___get_string_propertyNtB6_11Expectation14return_once_stpEBe_
FNDA:0,_RINvMs6_NtNtNtNtCslGh6CY2EcXh_14darwin_metrics8hardware5iokit22___mock_MockIOKit_IOKit21___get_string_propertyNtB6_11Expectation4withppEBe_
FNDA:0,_RINvMs6_NtNtNtNtCslGh6CY2EcXh_14darwin_metrics8hardware5iokit22___mock_MockIOKit_IOKit21___get_string_propertyNtB6_11Expectation5timespEBe_
FNDA:0,_RINvMs6_NtNtNtNtCslGh6CY2EcXh_14darwin_metrics8hardware5iokit22___mock_MockIOKit_IOKit21___get_string_propertyNtB6_11Expectation5withfpEBe_
FNDA:0,_RINvMs6_NtNtNtNtCslGh6CY2EcXh_14darwin_metrics8hardware5iokit22___mock_MockIOKit_IOKit21___get_string_propertyNtB6_11Expectation8withf_stpEBe_
FNDA:0,_RINvMs6_NtNtNtNtCslGh6CY2EcXh_14darwin_metrics8hardware5iokit22___mock_MockIOKit_IOKit21___io_service_matchingNtB6_11Expectation11return_oncepEBe_
FNDA:0,_RINvMs6_NtNtNtNtCslGh6CY2EcXh_14darwin_metrics8hardware5iokit22___mock_MockIOKit_IOKit21___io_service_matchingNtB6_11Expectation12returning_stpEBe_
FNDA:0,_RINvMs6_NtNtNtNtCslGh6CY2EcXh_14darwin_metrics8hardware5iokit22___mock_MockIOKit_IOKit21___io_service_matchingNtB6_11Expectation14return_once_stpEBe_
FNDA:0,_RINvMs6_NtNtNtNtCslGh6CY2EcXh_14darwin_metrics8hardware5iokit22___mock_MockIOKit_IOKit21___io_service_matchingNtB6_11Expectation4withpEBe_
FNDA:0,_RINvMs6_NtNtNtNtCslGh6CY2EcXh_14darwin_metrics8hardware5iokit22___mock_MockIOKit_IOKit21___io_service_matchingNtB6_11Expectation5timespEBe_
FNDA:0,_RINvMs6_NtNtNtNtCslGh6CY2EcXh_14darwin_metrics8hardware5iokit22___mock_MockIOKit_IOKit21___io_service_matchingNtB6_11Expectation5withfpEBe_
FNDA:0,_RINvMs6_NtNtNtNtCslGh6CY2EcXh_14darwin_metrics8hardware5iokit22___mock_MockIOKit_IOKit21___io_service_matchingNtB6_11Expectation8withf_stpEBe_
FNDA:0,_RINvMs6_NtNtNtNtCslGh6CY2EcXh_14darwin_metrics8hardware5iokit22___mock_MockIOKit_IOKit25___get_ambient_temperatureNtB6_11Expectation11return_oncepEBe_
FNDA:0,_RINvMs6_NtNtNtNtCslGh6CY2EcXh_14darwin_metrics8hardware5iokit22___mock_MockIOKit_IOKit25___get_ambient_temperatureNtB6_11Expectation12returning_stpEBe_
FNDA:0,_RINvMs6_NtNtNtNtCslGh6CY2EcXh_14darwin_metrics8hardware5iokit22___mock_MockIOKit_IOKit25___get_ambient_temperatureNtB6_11Expectation14return_once_stpEBe_
FNDA:0,_RINvMs6_NtNtNtNtCslGh6CY2EcXh_14darwin_metrics8hardware5iokit22___mock_MockIOKit_IOKit25___get_ambient_temperatureNtB6_11Expectation5timespEBe_
FNDA:0,_RINvMs6_NtNtNtNtCslGh6CY2EcXh_14darwin_metrics8hardware5iokit22___mock_MockIOKit_IOKit25___get_ambient_temperatureNtB6_11Expectation5withfpEBe_
FNDA:0,_RINvMs6_NtNtNtNtCslGh6CY2EcXh_14darwin_metrics8hardware5iokit22___mock_MockIOKit_IOKit25___get_ambient_temperatureNtB6_11Expectation8withf_stpEBe_
FNDA:0,_RINvMs6_NtNtNtNtCslGh6CY2EcXh_14darwin_metrics8hardware5iokit22___mock_MockIOKit_IOKit25___get_battery_temperatureNtB6_11Expectation11return_oncepEBe_
FNDA:0,_RINvMs6_NtNtNtNtCslGh6CY2EcXh_14darwin_metrics8hardware5iokit22___mock_MockIOKit_IOKit25___get_battery_temperatureNtB6_11Expectation12returning_stpEBe_
FNDA:0,_RINvMs6_NtNtNtNtCslGh6CY2EcXh_14darwin_metrics8hardware5iokit22___mock_MockIOKit_IOKit25___get_battery_temperatureNtB6_11Expectation14return_once_stpEBe_
FNDA:0,_RINvMs6_NtNtNtNtCslGh6CY2EcXh_14darwin_metrics8hardware5iokit22___mock_MockIOKit_IOKit25___get_battery_temperatureNtB6_11Expectation5timespEBe_
FNDA:0,_RINvMs6_NtNtNtNtCslGh6CY2EcXh_14darwin_metrics8hardware5iokit22___mock_MockIOKit_IOKit25___get_battery_temperatureNtB6_11Expectation5withfpEBe_
FNDA:0,_RINvMs6_NtNtNtNtCslGh6CY2EcXh_14darwin_metrics8hardware5iokit22___mock_MockIOKit_IOKit25___get_battery_temperatureNtB6_11Expectation8withf_stpEBe_
FNDA:0,_RINvMs6_NtNtNtNtCslGh6CY2EcXh_14darwin_metrics8hardware5iokit22___mock_MockIOKit_IOKit26___check_thermal_throttlingNtB6_11Expectation11return_oncepEBe_
FNDA:0,_RINvMs6_NtNtNtNtCslGh6CY2EcXh_14darwin_metrics8hardware5iokit22___mock_MockIOKit_IOKit26___check_thermal_throttlingNtB6_11Expectation12returning_stpEBe_
FNDA:0,_RINvMs6_NtNtNtNtCslGh6CY2EcXh_14darwin_metrics8hardware5iokit22___mock_MockIOKit_IOKit26___check_thermal_throttlingNtB6_11Expectation14return_once_stpEBe_
FNDA:0,_RINvMs6_NtNtNtNtCslGh6CY2EcXh_14darwin_metrics8hardware5iokit22___mock_MockIOKit_IOKit26___check_thermal_throttlingNtB6_11Expectation5timespEBe_
FNDA:0,_RINvMs6_NtNtNtNtCslGh6CY2EcXh_14darwin_metrics8hardware5iokit22___mock_MockIOKit_IOKit26___check_thermal_throttlingNtB6_11Expectation5withfpEBe_
FNDA:0,_RINvMs6_NtNtNtNtCslGh6CY2EcXh_14darwin_metrics8hardware5iokit22___mock_MockIOKit_IOKit26___check_thermal_throttlingNtB6_11Expectation8withf_stpEBe_
FNDA:0,_RINvMs6_NtNtNtNtCslGh6CY2EcXh_14darwin_metrics8hardware5iokit22___mock_MockIOKit_IOKit26___get_heatsink_temperatureNtB6_11Expectation11return_oncepEBe_
FNDA:0,_RINvMs6_NtNtNtNtCslGh6CY2EcXh_14darwin_metrics8hardware5iokit22___mock_MockIOKit_IOKit26___get_heatsink_temperatureNtB6_11Expectation12returning_stpEBe_
FNDA:0,_RINvMs6_NtNtNtNtCslGh6CY2EcXh_14darwin_metrics8hardware5iokit22___mock_MockIOKit_IOKit26___get_heatsink_temperatureNtB6_11Expectation14return_once_stpEBe_
FNDA:0,_RINvMs6_NtNtNtNtCslGh6CY2EcXh_14darwin_metrics8hardware5iokit22___mock_MockIOKit_IOKit26___get_heatsink_temperatureNtB6_11Expectation5timespEBe_
FNDA:0,_RINvMs6_NtNtNtNtCslGh6CY2EcXh_14darwin_metrics8hardware5iokit22___mock_MockIOKit_IOKit26___get_heatsink_temperatureNtB6_11Expectation5withfpEBe_
FNDA:0,_RINvMs6_NtNtNtNtCslGh6CY2EcXh_14darwin_metrics8hardware5iokit22___mock_MockIOKit_IOKit26___get_heatsink_temperatureNtB6_11Expectation8withf_stpEBe_
FNDA:0,_RINvMs6_NtNtNtNtCslGh6CY2EcXh_14darwin_metrics8hardware5iokit22___mock_MockIOKit_IOKit30___io_registry_entry_get_parentNtB6_11Expectation11return_oncepEBe_
FNDA:0,_RINvMs6_NtNtNtNtCslGh6CY2EcXh_14darwin_metrics8hardware5iokit22___mock_MockIOKit_IOKit30___io_registry_entry_get_parentNtB6_11Expectation12returning_stpEBe_
FNDA:0,_RINvMs6_NtNtNtNtCslGh6CY2EcXh_14darwin_metrics8hardware5iokit22___mock_MockIOKit_IOKit30___io_registry_entry_get_parentNtB6_11Expectation14return_once_stpEBe_
FNDA:0,_RINvMs6_NtNtNtNtCslGh6CY2EcXh_14darwin_metrics8hardware5iokit22___mock_MockIOKit_IOKit30___io_registry_entry_get_parentNtB6_11Expectation4withpEBe_
FNDA:0,_RINvMs6_NtNtNtNtCslGh6CY2EcXh_14darwin_metrics8hardware5iokit22___mock_MockIOKit_IOKit30___io_registry_entry_get_parentNtB6_11Expectation5timespEBe_
FNDA:0,_RINvMs6_NtNtNtNtCslGh6CY2EcXh_14darwin_metrics8hardware5iokit22___mock_MockIOKit_IOKit30___io_registry_entry_get_parentNtB6_11Expectation5withfpEBe_
FNDA:0,_RINvMs6_NtNtNtNtCslGh6CY2EcXh_14darwin_metrics8hardware5iokit22___mock_MockIOKit_IOKit30___io_registry_entry_get_parentNtB6_11Expectation8withf_stpEBe_
FNDA:0,_RINvMs6_NtNtNtNtCslGh6CY2EcXh_14darwin_metrics8hardware5iokit22___mock_MockIOKit_IOKit33___io_service_get_matching_serviceNtB6_11Expectation11return_oncepEBe_
FNDA:0,_RINvMs6_NtNtNtNtCslGh6CY2EcXh_14darwin_metrics8hardware5iokit22___mock_MockIOKit_IOKit33___io_service_get_matching_serviceNtB6_11Expectation12returning_stpEBe_
FNDA:0,_RINvMs6_NtNtNtNtCslGh6CY2EcXh_14darwin_metrics8hardware5iokit22___mock_MockIOKit_IOKit33___io_service_get_matching_serviceNtB6_11Expectation14return_once_stpEBe_
FNDA:0,_RINvMs6_NtNtNtNtCslGh6CY2EcXh_14darwin_metrics8hardware5iokit22___mock_MockIOKit_IOKit33___io_service_get_matching_serviceNtB6_11Expectation4withpEBe_
FNDA:0,_RINvMs6_NtNtNtNtCslGh6CY2EcXh_14darwin_metrics8hardware5iokit22___mock_MockIOKit_IOKit33___io_service_get_matching_serviceNtB6_11Expectation5timespEBe_
FNDA:0,_RINvMs6_NtNtNtNtCslGh6CY2EcXh_14darwin_metrics8hardware5iokit22___mock_MockIOKit_IOKit33___io_service_get_matching_serviceNtB6_11Expectation5withfpEBe_
FNDA:0,_RINvMs6_NtNtNtNtCslGh6CY2EcXh_14darwin_metrics8hardware5iokit22___mock_MockIOKit_IOKit33___io_service_get_matching_serviceNtB6_11Expectation8withf_stpEBe_
FNDA:0,_RINvMs6_NtNtNtNtCslGh6CY2EcXh_14darwin_metrics8hardware5iokit22___mock_MockIOKit_IOKit40___io_registry_entry_create_cf_propertiesNtB6_11Expectation11return_oncepEBe_
FNDA:0,_RINvMs6_NtNtNtNtCslGh6CY2EcXh_14darwin_metrics8hardware5iokit22___mock_MockIOKit_IOKit40___io_registry_entry_create_cf_propertiesNtB6_11Expectation12returning_stpEBe_
FNDA:0,_RINvMs6_NtNtNtNtCslGh6CY2EcXh_14darwin_metrics8hardware5iokit22___mock_MockIOKit_IOKit40___io_registry_entry_create_cf_propertiesNtB6_11Expectation14return_once_stpEBe_
FNDA:0,_RINvMs6_NtNtNtNtCslGh6CY2EcXh_14darwin_metrics8hardware5iokit22___mock_MockIOKit_IOKit40___io_registry_entry_create_cf_propertiesNtB6_11Expectation4withpEBe_
FNDA:0,_RINvMs6_NtNtNtNtCslGh6CY2EcXh_14darwin_metrics8hardware5iokit22___mock_MockIOKit_IOKit40___io_registry_entry_create_cf_propertiesNtB6_11Expectation5timespEBe_
FNDA:0,_RINvMs6_NtNtNtNtCslGh6CY2EcXh_14darwin_metrics8hardware5iokit22___mock_MockIOKit_IOKit40___io_registry_entry_create_cf_propertiesNtB6_11Expectation5withfpEBe_
FNDA:0,_RINvMs6_NtNtNtNtCslGh6CY2EcXh_14darwin_metrics8hardware5iokit22___mock_MockIOKit_IOKit40___io_registry_entry_create_cf_propertiesNtB6_11Expectation8withf_stpEBe_
FNDA:0,_RNCINvMs6_NtNtNtNtCslGh6CY2EcXh_14darwin_metrics8hardware5iokit22___mock_MockIOKit_IOKit13___get_serviceNtB8_11Expectation12return_constpE0Bg_
FNDA:0,_RNCINvMs6_NtNtNtNtCslGh6CY2EcXh_14darwin_metrics8hardware5iokit22___mock_MockIOKit_IOKit13___get_serviceNtB8_11Expectation15return_const_stpE0Bg_
FNDA:0,_RNCINvMs6_NtNtNtNtCslGh6CY2EcXh_14darwin_metrics8hardware5iokit22___mock_MockIOKit_IOKit14___get_all_fansNtB8_11Expectation12return_constpE0Bg_
FNDA:0,_RNCINvMs6_NtNtNtNtCslGh6CY2EcXh_14darwin_metrics8hardware5iokit22___mock_MockIOKit_IOKit14___get_all_fansNtB8_11Expectation15return_const_stpE0Bg_
FNDA:0,_RNCINvMs6_NtNtNtNtCslGh6CY2EcXh_14darwin_metrics8hardware5iokit22___mock_MockIOKit_IOKit14___get_fan_infoNtB8_11Expectation12return_constpE0Bg_
FNDA:0,_RNCINvMs6_NtNtNtNtCslGh6CY2EcXh_14darwin_metrics8hardware5iokit22___mock_MockIOKit_IOKit14___get_fan_infoNtB8_11Expectation15return_const_stpE0Bg_
FNDA:0,_RNCINvMs6_NtNtNtNtCslGh6CY2EcXh_14darwin_metrics8hardware5iokit22___mock_MockIOKit_IOKit14___read_smc_keyNtB8_11Expectation12return_constpE0Bg_
FNDA:0,_RNCINvMs6_NtNtNtNtCslGh6CY2EcXh_14darwin_metrics8hardware5iokit22___mock_MockIOKit_IOKit14___read_smc_keyNtB8_11Expectation15return_const_stpE0Bg_
FNDA:0,_RNCINvMs6_NtNtNtNtCslGh6CY2EcXh_14darwin_metrics8hardware5iokit22___mock_MockIOKit_IOKit15___get_cpu_powerNtB8_11Expectation12return_constpE0Bg_
FNDA:0,_RNCINvMs6_NtNtNtNtCslGh6CY2EcXh_14darwin_metrics8hardware5iokit22___mock_MockIOKit_IOKit15___get_cpu_powerNtB8_11Expectation15return_const_stpE0Bg_
FNDA:0,_RNCINvMs6_NtNtNtNtCslGh6CY2EcXh_14darwin_metrics8hardware5iokit22___mock_MockIOKit_IOKit15___get_fan_countNtB8_11Expectation12return_constpE0Bg_
FNDA:0,_RNCINvMs6_NtNtNtNtCslGh6CY2EcXh_14darwin_metrics8hardware5iokit22___mock_MockIOKit_IOKit15___get_fan_countNtB8_11Expectation15return_const_stpE0Bg_
FNDA:0,_RNCINvMs6_NtNtNtNtCslGh6CY2EcXh_14darwin_metrics8hardware5iokit22___mock_MockIOKit_IOKit15___get_fan_speedNtB8_11Expectation12return_constpE0Bg_
FNDA:0,_RNCINvMs6_NtNtNtNtCslGh6CY2EcXh_14darwin_metrics8hardware5iokit22___mock_MockIOKit_IOKit15___get_fan_speedNtB8_11Expectation15return_const_stpE0Bg_
FNDA:0,_RNCINvMs6_NtNtNtNtCslGh6CY2EcXh_14darwin_metrics8hardware5iokit22___mock_MockIOKit_IOKit15___get_gpu_statsNtB8_11Expectation12return_constpE0Bg_
FNDA:0,_RNCINvMs6_NtNtNtNtCslGh6CY2EcXh_14darwin_metrics8hardware5iokit22___mock_MockIOKit_IOKit15___get_gpu_statsNtB8_11Expectation15return_const_stpE0Bg_
FNDA:0,_RNCINvMs6_NtNtNtNtCslGh6CY2EcXh_14darwin_metrics8hardware5iokit22___mock_MockIOKit_IOKit18___get_thermal_infoNtB8_11Expectation12return_constpE0Bg_
FNDA:0,_RNCINvMs6_NtNtNtNtCslGh6CY2EcXh_14darwin_metrics8hardware5iokit22___mock_MockIOKit_IOKit18___get_thermal_infoNtB8_11Expectation15return_const_stpE0Bg_
FNDA:0,_RNCINvMs6_NtNtNtNtCslGh6CY2EcXh_14darwin_metrics8hardware5iokit22___mock_MockIOKit_IOKit19___get_bool_propertyNtB8_11Expectation12return_constpE0Bg_
FNDA:0,_RNCINvMs6_NtNtNtNtCslGh6CY2EcXh_14darwin_metrics8hardware5iokit22___mock_MockIOKit_IOKit19___get_bool_propertyNtB8_11Expectation15return_const_stpE0Bg_
FNDA:0,_RNCINvMs6_NtNtNtNtCslGh6CY2EcXh_14darwin_metrics8hardware5iokit22___mock_MockIOKit_IOKit19___get_dict_propertyNtB8_11Expectation12return_constpE0Bg_
FNDA:0,_RNCINvMs6_NtNtNtNtCslGh6CY2EcXh_14darwin_metrics8hardware5iokit22___mock_MockIOKit_IOKit19___get_dict_propertyNtB8_11Expectation15return_const_stpE0Bg_
FNDA:0,_RNCINvMs6_NtNtNtNtCslGh6CY2EcXh_14darwin_metrics8hardware5iokit22___mock_MockIOKit_IOKit19___io_object_releaseNtB8_11Expectation12return_constpE0Bg_
FNDA:0,_RNCINvMs6_NtNtNtNtCslGh6CY2EcXh_14darwin_metrics8hardware5iokit22___mock_MockIOKit_IOKit19___io_object_releaseNtB8_11Expectation15return_const_stpE0Bg_
FNDA:0,_RNCINvMs6_NtNtNtNtCslGh6CY2EcXh_14darwin_metrics8hardware5iokit22___mock_MockIOKit_IOKit21___get_cpu_temperatureNtB8_11Expectation12return_constpE0Bg_
FNDA:0,_RNCINvMs6_NtNtNtNtCslGh6CY2EcXh_14darwin_metrics8hardware5iokit22___mock_MockIOKit_IOKit21___get_cpu_temperatureNtB8_11Expectation15return_const_stpE0Bg_
FNDA:0,_RNCINvMs6_NtNtNtNtCslGh6CY2EcXh_14darwin_metrics8hardware5iokit22___mock_MockIOKit_IOKit21___get_gpu_temperatureNtB8_11Expectation12return_constpE0Bg_
FNDA:0,_RNCINvMs6_NtNtNtNtCslGh6CY2EcXh_14darwin_metrics8hardware5iokit22___mock_MockIOKit_IOKit21___get_gpu_temperatureNtB8_11Expectation15return_const_stpE0Bg_
FNDA:0,_RNCINvMs6_NtNtNtNtCslGh6CY2EcXh_14darwin_metrics8hardware5iokit22___mock_MockIOKit_IOKit21___get_number_propertyNtB8_11Expectation12return_constpE0Bg_
FNDA:0,_RNCINvMs6_NtNtNtNtCslGh6CY2EcXh_14darwin_metrics8hardware5iokit22___mock_MockIOKit_IOKit21___get_number_propertyNtB8_11Expectation15return_const_stpE0Bg_
FNDA:0,_RNCINvMs6_NtNtNtNtCslGh6CY2EcXh_14darwin_metrics8hardware5iokit22___mock_MockIOKit_IOKit21___get_string_propertyNtB8_11Expectation12return_constpE0Bg_
FNDA:0,_RNCINvMs6_NtNtNtNtCslGh6CY2EcXh_14darwin_metrics8hardware5iokit22___mock_MockIOKit_IOKit21___get_string_propertyNtB8_11Expectation15return_const_stpE0Bg_
FNDA:0,_RNCINvMs6_NtNtNtNtCslGh6CY2EcXh_14darwin_metrics8hardware5iokit22___mock_MockIOKit_IOKit21___io_service_matchingNtB8_11Expectation12return_constpE0Bg_
FNDA:0,_RNCINvMs6_NtNtNtNtCslGh6CY2EcXh_14darwin_metrics8hardware5iokit22___mock_MockIOKit_IOKit21___io_service_matchingNtB8_11Expectation15return_const_stpE0Bg_
FNDA:0,_RNCINvMs6_NtNtNtNtCslGh6CY2EcXh_14darwin_metrics8hardware5iokit22___mock_MockIOKit_IOKit25___get_ambient_temperatureNtB8_11Expectation12return_constpE0Bg_
FNDA:0,_RNCINvMs6_NtNtNtNtCslGh6CY2EcXh_14darwin_metrics8hardware5iokit22___mock_MockIOKit_IOKit25___get_ambient_temperatureNtB8_11Expectation15return_const_stpE0Bg_
FNDA:0,_RNCINvMs6_NtNtNtNtCslGh6CY2EcXh_14darwin_metrics8hardware5iokit22___mock_MockIOKit_IOKit25___get_battery_temperatureNtB8_11Expectation12return_constpE0Bg_
FNDA:0,_RNCINvMs6_NtNtNtNtCslGh6CY2EcXh_14darwin_metrics8hardware5iokit22___mock_MockIOKit_IOKit25___get_battery_temperatureNtB8_11Expectation15return_const_stpE0Bg_
FNDA:0,_RNCINvMs6_NtNtNtNtCslGh6CY2EcXh_14darwin_metrics8hardware5iokit22___mock_MockIOKit_IOKit26___check_thermal_throttlingNtB8_11Expectation12return_constpE0Bg_
FNDA:0,_RNCINvMs6_NtNtNtNtCslGh6CY2EcXh_14darwin_metrics8hardware5iokit22___mock_MockIOKit_IOKit26___check_thermal_throttlingNtB8_11Expectation15return_const_stpE0Bg_
FNDA:0,_RNCINvMs6_NtNtNtNtCslGh6CY2EcXh_14darwin_metrics8hardware5iokit22___mock_MockIOKit_IOKit26___get_heatsink_temperatureNtB8_11Expectation12return_constpE0Bg_
FNDA:0,_RNCINvMs6_NtNtNtNtCslGh6CY2EcXh_14darwin_metrics8hardware5iokit22___mock_MockIOKit_IOKit26___get_heatsink_temperatureNtB8_11Expectation15return_const_stpE0Bg_
FNDA:0,_RNCINvMs6_NtNtNtNtCslGh6CY2EcXh_14darwin_metrics8hardware5iokit22___mock_MockIOKit_IOKit30___io_registry_entry_get_parentNtB8_11Expectation12return_constpE0Bg_
FNDA:0,_RNCINvMs6_NtNtNtNtCslGh6CY2EcXh_14darwin_metrics8hardware5iokit22___mock_MockIOKit_IOKit30___io_registry_entry_get_parentNtB8_11Expectation15return_const_stpE0Bg_
FNDA:0,_RNCINvMs6_NtNtNtNtCslGh6CY2EcXh_14darwin_metrics8hardware5iokit22___mock_MockIOKit_IOKit33___io_service_get_matching_serviceNtB8_11Expectation12return_constpE0Bg_
FNDA:0,_RNCINvMs6_NtNtNtNtCslGh6CY2EcXh_14darwin_metrics8hardware5iokit22___mock_MockIOKit_IOKit33___io_service_get_matching_serviceNtB8_11Expectation15return_const_stpE0Bg_
FNDA:0,_RNCINvMs6_NtNtNtNtCslGh6CY2EcXh_14darwin_metrics8hardware5iokit22___mock_MockIOKit_IOKit40___io_registry_entry_create_cf_propertiesNtB8_11Expectation12return_constpE0Bg_
FNDA:0,_RNCINvMs6_NtNtNtNtCslGh6CY2EcXh_14darwin_metrics8hardware5iokit22___mock_MockIOKit_IOKit40___io_registry_entry_create_cf_propertiesNtB8_11Expectation15return_const_stpE0Bg_
FNDA:0,_RNvMs4_NtNtNtNtCslGh6CY2EcXh_14darwin_metrics8hardware5iokit22___mock_MockIOKit_IOKit13___get_serviceNtB5_6Common5never
FNDA:0,_RNvMs4_NtNtNtNtCslGh6CY2EcXh_14darwin_metrics8hardware5iokit22___mock_MockIOKit_IOKit14___get_all_fansNtB5_6Common4with
FNDA:0,_RNvMs4_NtNtNtNtCslGh6CY2EcXh_14darwin_metrics8hardware5iokit22___mock_MockIOKit_IOKit14___get_all_fansNtB5_6Common5never
FNDA:0,_RNvMs4_NtNtNtNtCslGh6CY2EcXh_14darwin_metrics8hardware5iokit22___mock_MockIOKit_IOKit14___get_fan_infoNtB5_6Common5never
FNDA:0,_RNvMs4_NtNtNtNtCslGh6CY2EcXh_14darwin_metrics8hardware5iokit22___mock_MockIOKit_IOKit14___read_smc_keyNtB5_6Common5never
FNDA:0,_RNvMs4_NtNtNtNtCslGh6CY2EcXh_14darwin_metrics8hardware5iokit22___mock_MockIOKit_IOKit15___get_cpu_powerNtB5_6Common4with
FNDA:0,_RNvMs4_NtNtNtNtCslGh6CY2EcXh_14darwin_metrics8hardware5iokit22___mock_MockIOKit_IOKit15___get_cpu_powerNtB5_6Common5never
FNDA:0,_RNvMs4_NtNtNtNtCslGh6CY2EcXh_14darwin_metrics8hardware5iokit22___mock_MockIOKit_IOKit15___get_fan_countNtB5_6Common4with
FNDA:0,_RNvMs4_NtNtNtNtCslGh6CY2EcXh_14darwin_metrics8hardware5iokit22___mock_MockIOKit_IOKit15___get_fan_countNtB5_6Common5never
FNDA:0,_RNvMs4_NtNtNtNtCslGh6CY2EcXh_14darwin_metrics8hardware5iokit22___mock_MockIOKit_IOKit15___get_fan_speedNtB5_6Common4with
FNDA:0,_RNvMs4_NtNtNtNtCslGh6CY2EcXh_14darwin_metrics8hardware5iokit22___mock_MockIOKit_IOKit15___get_fan_speedNtB5_6Common5never
FNDA:0,_RNvMs4_NtNtNtNtCslGh6CY2EcXh_14darwin_metrics8hardware5iokit22___mock_MockIOKit_IOKit15___get_gpu_statsNtB5_6Common4with
FNDA:0,_RNvMs4_NtNtNtNtCslGh6CY2EcXh_14darwin_metrics8hardware5iokit22___mock_MockIOKit_IOKit15___get_gpu_statsNtB5_6Common5never
FNDA:0,_RNvMs4_NtNtNtNtCslGh6CY2EcXh_14darwin_metrics8hardware5iokit22___mock_MockIOKit_IOKit18___get_thermal_infoNtB5_6Common4with
FNDA:0,_RNvMs4_NtNtNtNtCslGh6CY2EcXh_14darwin_metrics8hardware5iokit22___mock_MockIOKit_IOKit18___get_thermal_infoNtB5_6Common5never
FNDA:0,_RNvMs4_NtNtNtNtCslGh6CY2EcXh_14darwin_metrics8hardware5iokit22___mock_MockIOKit_IOKit19___get_bool_propertyNtB5_6Common5never
FNDA:0,_RNvMs4_NtNtNtNtCslGh6CY2EcXh_14darwin_metrics8hardware5iokit22___mock_MockIOKit_IOKit19___get_dict_propertyNtB5_6Common5never
FNDA:0,_RNvMs4_NtNtNtNtCslGh6CY2EcXh_14darwin_metrics8hardware5iokit22___mock_MockIOKit_IOKit19___io_object_releaseNtB5_6Common5never
FNDA:0,_RNvMs4_NtNtNtNtCslGh6CY2EcXh_14darwin_metrics8hardware5iokit22___mock_MockIOKit_IOKit21___get_cpu_temperatureNtB5_6Common4with
FNDA:0,_RNvMs4_NtNtNtNtCslGh6CY2EcXh_14darwin_metrics8hardware5iokit22___mock_MockIOKit_IOKit21___get_cpu_temperatureNtB5_6Common5never
FNDA:0,_RNvMs4_NtNtNtNtCslGh6CY2EcXh_14darwin_metrics8hardware5iokit22___mock_MockIOKit_IOKit21___get_gpu_temperatureNtB5_6Common4with
FNDA:0,_RNvMs4_NtNtNtNtCslGh6CY2EcXh_14darwin_metrics8hardware5iokit22___mock_MockIOKit_IOKit21___get_gpu_temperatureNtB5_6Common5never
FNDA:0,_RNvMs4_NtNtNtNtCslGh6CY2EcXh_14darwin_metrics8hardware5iokit22___mock_MockIOKit_IOKit21___get_number_propertyNtB5_6Common5never
FNDA:0,_RNvMs4_NtNtNtNtCslGh6CY2EcXh_14darwin_metrics8hardware5iokit22___mock_MockIOKit_IOKit21___get_string_propertyNtB5_6Common5never
FNDA:0,_RNvMs4_NtNtNtNtCslGh6CY2EcXh_14darwin_metrics8hardware5iokit22___mock_MockIOKit_IOKit21___io_service_matchingNtB5_6Common5never
FNDA:0,_RNvMs4_NtNtNtNtCslGh6CY2EcXh_14darwin_metrics8hardware5iokit22___mock_MockIOKit_IOKit25___get_ambient_temperatureNtB5_6Common4with
FNDA:0,_RNvMs4_NtNtNtNtCslGh6CY2EcXh_14darwin_metrics8hardware5iokit22___mock_MockIOKit_IOKit25___get_ambient_temperatureNtB5_6Common5never
FNDA:0,_RNvMs4_NtNtNtNtCslGh6CY2EcXh_14darwin_metrics8hardware5iokit22___mock_MockIOKit_IOKit25___get_battery_temperatureNtB5_6Common4with
FNDA:0,_RNvMs4_NtNtNtNtCslGh6CY2EcXh_14darwin_metrics8hardware5iokit22___mock_MockIOKit_IOKit25___get_battery_temperatureNtB5_6Common5never
FNDA:0,_RNvMs4_NtNtNtNtCslGh6CY2EcXh_14darwin_metrics8hardware5iokit22___mock_MockIOKit_IOKit26___check_thermal_throttlingNtB5_6Common4with
FNDA:0,_RNvMs4_NtNtNtNtCslGh6CY2EcXh_14darwin_metrics8hardware5iokit22___mock_MockIOKit_IOKit26___check_thermal_throttlingNtB5_6Common5never
FNDA:0,_RNvMs4_NtNtNtNtCslGh6CY2EcXh_14darwin_metrics8hardware5iokit22___mock_MockIOKit_IOKit26___get_heatsink_temperatureNtB5_6Common4with
FNDA:0,_RNvMs4_NtNtNtNtCslGh6CY2EcXh_14darwin_metrics8hardware5iokit22___mock_MockIOKit_IOKit26___get_heatsink_temperatureNtB5_6Common5never
FNDA:0,_RNvMs4_NtNtNtNtCslGh6CY2EcXh_14darwin_metrics8hardware5iokit22___mock_MockIOKit_IOKit30___io_registry_entry_get_parentNtB5_6Common5never
FNDA:0,_RNvMs4_NtNtNtNtCslGh6CY2EcXh_14darwin_metrics8hardware5iokit22___mock_MockIOKit_IOKit33___io_service_get_matching_serviceNtB5_6Common5never
FNDA:0,_RNvMs4_NtNtNtNtCslGh6CY2EcXh_14darwin_metrics8hardware5iokit22___mock_MockIOKit_IOKit40___io_registry_entry_create_cf_propertiesNtB5_6Common5never
FNDA:0,_RNvMs6_NtNtNtNtCslGh6CY2EcXh_14darwin_metrics8hardware5iokit22___mock_MockIOKit_IOKit13___get_serviceNtB5_11Expectation11in_sequence
FNDA:0,_RNvMs6_NtNtNtNtCslGh6CY2EcXh_14darwin_metrics8hardware5iokit22___mock_MockIOKit_IOKit13___get_serviceNtB5_11Expectation3new
FNDA:0,_RNvMs6_NtNtNtNtCslGh6CY2EcXh_14darwin_metrics8hardware5iokit22___mock_MockIOKit_IOKit13___get_serviceNtB5_11Expectation4once
FNDA:0,_RNvMs6_NtNtNtNtCslGh6CY2EcXh_14darwin_metrics8hardware5iokit22___mock_MockIOKit_IOKit13___get_serviceNtB5_11Expectation5never
FNDA:0,_RNvMs6_NtNtNtNtCslGh6CY2EcXh_14darwin_metrics8hardware5iokit22___mock_MockIOKit_IOKit14___get_all_fansNtB5_11Expectation11in_sequence
FNDA:0,_RNvMs6_NtNtNtNtCslGh6CY2EcXh_14darwin_metrics8hardware5iokit22___mock_MockIOKit_IOKit14___get_all_fansNtB5_11Expectation3new
FNDA:0,_RNvMs6_NtNtNtNtCslGh6CY2EcXh_14darwin_metrics8hardware5iokit22___mock_MockIOKit_IOKit14___get_all_fansNtB5_11Expectation4once
FNDA:0,_RNvMs6_NtNtNtNtCslGh6CY2EcXh_14darwin_metrics8hardware5iokit22___mock_MockIOKit_IOKit14___get_all_fansNtB5_11Expectation4with
FNDA:0,_RNvMs6_NtNtNtNtCslGh6CY2EcXh_14darwin_metrics8hardware5iokit22___mock_MockIOKit_IOKit14___get_all_fansNtB5_11Expectation5never
FNDA:0,_RNvMs6_NtNtNtNtCslGh6CY2EcXh_14darwin_metrics8hardware5iokit22___mock_MockIOKit_IOKit14___get_fan_infoNtB5_11Expectation11in_sequence
FNDA:0,_RNvMs6_NtNtNtNtCslGh6CY2EcXh_14darwin_metrics8hardware5iokit22___mock_MockIOKit_IOKit14___get_fan_infoNtB5_11Expectation3new
FNDA:0,_RNvMs6_NtNtNtNtCslGh6CY2EcXh_14darwin_metrics8hardware5iokit22___mock_MockIOKit_IOKit14___get_fan_infoNtB5_11Expectation4once
FNDA:0,_RNvMs6_NtNtNtNtCslGh6CY2EcXh_14darwin_metrics8hardware5iokit22___mock_MockIOKit_IOKit14___get_fan_infoNtB5_11Expectation5never
FNDA:0,_RNvMs6_NtNtNtNtCslGh6CY2EcXh_14darwin_metrics8hardware5iokit22___mock_MockIOKit_IOKit14___read_smc_keyNtB5_11Expectation11in_sequence
FNDA:0,_RNvMs6_NtNtNtNtCslGh6CY2EcXh_14darwin_metrics8hardware5iokit22___mock_MockIOKit_IOKit14___read_smc_keyNtB5_11Expectation3new
FNDA:0,_RNvMs6_NtNtNtNtCslGh6CY2EcXh_14darwin_metrics8hardware5iokit22___mock_MockIOKit_IOKit14___read_smc_keyNtB5_11Expectation4once
FNDA:0,_RNvMs6_NtNtNtNtCslGh6CY2EcXh_14darwin_metrics8hardware5iokit22___mock_MockIOKit_IOKit14___read_smc_keyNtB5_11Expectation5never
FNDA:0,_RNvMs6_NtNtNtNtCslGh6CY2EcXh_14darwin_metrics8hardware5iokit22___mock_MockIOKit_IOKit15___get_cpu_powerNtB5_11Expectation11in_sequence
FNDA:0,_RNvMs6_NtNtNtNtCslGh6CY2EcXh_14darwin_metrics8hardware5iokit22___mock_MockIOKit_IOKit15___get_cpu_powerNtB5_11Expectation3new
FNDA:0,_RNvMs6_NtNtNtNtCslGh6CY2EcXh_14darwin_metrics8hardware5iokit22___mock_MockIOKit_IOKit15___get_cpu_powerNtB5_11Expectation4once
FNDA:0,_RNvMs6_NtNtNtNtCslGh6CY2EcXh_14darwin_metrics8hardware5iokit22___mock_MockIOKit_IOKit15___get_cpu_powerNtB5_11Expectation4with
FNDA:0,_RNvMs6_NtNtNtNtCslGh6CY2EcXh_14darwin_metrics8hardware5iokit22___mock_MockIOKit_IOKit15___get_cpu_powerNtB5_11Expectation5never
FNDA:0,_RNvMs6_NtNtNtNtCslGh6CY2EcXh_14darwin_metrics8hardware5iokit22___mock_MockIOKit_IOKit15___get_fan_countNtB5_11Expectation11in_sequence
FNDA:0,_RNvMs6_NtNtNtNtCslGh6CY2EcXh_14darwin_metrics8hardware5iokit22___mock_MockIOKit_IOKit15___get_fan_countNtB5_11Expectation3new
FNDA:0,_RNvMs6_NtNtNtNtCslGh6CY2EcXh_14darwin_metrics8hardware5iokit22___mock_MockIOKit_IOKit15___get_fan_countNtB5_11Expectation4once
FNDA:0,_RNvMs6_NtNtNtNtCslGh6CY2EcXh_14darwin_metrics8hardware5iokit22___mock_MockIOKit_IOKit15___get_fan_countNtB5_11Expectation4with
FNDA:0,_RNvMs6_NtNtNtNtCslGh6CY2EcXh_14darwin_metrics8hardware5iokit22___mock_MockIOKit_IOKit15___get_fan_countNtB5_11Expectation5never
FNDA:0,_RNvMs6_NtNtNtNtCslGh6CY2EcXh_14darwin_metrics8hardware5iokit22___mock_MockIOKit_IOKit15___get_fan_speedNtB5_11Expectation11in_sequence
FNDA:0,_RNvMs6_NtNtNtNtCslGh6CY2EcXh_14darwin_metrics8hardware5iokit22___mock_MockIOKit_IOKit15___get_fan_speedNtB5_11Expectation3new
FNDA:0,_RNvMs6_NtNtNtNtCslGh6CY2EcXh_14darwin_metrics8hardware5iokit22___mock_MockIOKit_IOKit15___get_fan_speedNtB5_11Expectation4once
FNDA:0,_RNvMs6_NtNtNtNtCslGh6CY2EcXh_14darwin_metrics8hardware5iokit22___mock_MockIOKit_IOKit15___get_fan_speedNtB5_11Expectation4with
FNDA:0,_RNvMs6_NtNtNtNtCslGh6CY2EcXh_14darwin_metrics8hardware5iokit22___mock_MockIOKit_IOKit15___get_fan_speedNtB5_11Expectation5never
FNDA:0,_RNvMs6_NtNtNtNtCslGh6CY2EcXh_14darwin_metrics8hardware5iokit22___mock_MockIOKit_IOKit15___get_gpu_statsNtB5_11Expectation11in_sequence
FNDA:0,_RNvMs6_NtNtNtNtCslGh6CY2EcXh_14darwin_metrics8hardware5iokit22___mock_MockIOKit_IOKit15___get_gpu_statsNtB5_11Expectation3new
FNDA:0,_RNvMs6_NtNtNtNtCslGh6CY2EcXh_14darwin_metrics8hardware5iokit22___mock_MockIOKit_IOKit15___get_gpu_statsNtB5_11Expectation4once
FNDA:0,_RNvMs6_NtNtNtNtCslGh6CY2EcXh_14darwin_metrics8hardware5iokit22___mock_MockIOKit_IOKit15___get_gpu_statsNtB5_11Expectation4with
FNDA:0,_RNvMs6_NtNtNtNtCslGh6CY2EcXh_14darwin_metrics8hardware5iokit22___mock_MockIOKit_IOKit15___get_gpu_statsNtB5_11Expectation5never
FNDA:0,_RNvMs6_NtNtNtNtCslGh6CY2EcXh_14darwin_metrics8hardware5iokit22___mock_MockIOKit_IOKit18___get_thermal_infoNtB5_11Expectation11in_sequence
FNDA:0,_RNvMs6_NtNtNtNtCslGh6CY2EcXh_14darwin_metrics8hardware5iokit22___mock_MockIOKit_IOKit18___get_thermal_infoNtB5_11Expectation3new
FNDA:0,_RNvMs6_NtNtNtNtCslGh6CY2EcXh_14darwin_metrics8hardware5iokit22___mock_MockIOKit_IOKit18___get_thermal_infoNtB5_11Expectation4once
FNDA:0,_RNvMs6_NtNtNtNtCslGh6CY2EcXh_14darwin_metrics8hardware5iokit22___mock_MockIOKit_IOKit18___get_thermal_infoNtB5_11Expectation4with
FNDA:0,_RNvMs6_NtNtNtNtCslGh6CY2EcXh_14darwin_metrics8hardware5iokit22___mock_MockIOKit_IOKit18___get_thermal_infoNtB5_11Expectation5never
FNDA:0,_RNvMs6_NtNtNtNtCslGh6CY2EcXh_14darwin_metrics8hardware5iokit22___mock_MockIOKit_IOKit19___get_bool_propertyNtB5_11Expectation11in_sequence
FNDA:0,_RNvMs6_NtNtNtNtCslGh6CY2EcXh_14darwin_metrics8hardware5iokit22___mock_MockIOKit_IOKit19___get_bool_propertyNtB5_11Expectation3new
FNDA:0,_RNvMs6_NtNtNtNtCslGh6CY2EcXh_14darwin_metrics8hardware5iokit22___mock_MockIOKit_IOKit19___get_bool_propertyNtB5_11Expectation4once
FNDA:0,_RNvMs6_NtNtNtNtCslGh6CY2EcXh_14darwin_metrics8hardware5iokit22___mock_MockIOKit_IOKit19___get_bool_propertyNtB5_11Expectation5never
FNDA:0,_RNvMs6_NtNtNtNtCslGh6CY2EcXh_14darwin_metrics8hardware5iokit22___mock_MockIOKit_IOKit19___get_dict_propertyNtB5_11Expectation11in_sequence
FNDA:0,_RNvMs6_NtNtNtNtCslGh6CY2EcXh_14darwin_metrics8hardware5iokit22___mock_MockIOKit_IOKit19___get_dict_propertyNtB5_11Expectation3new
FNDA:0,_RNvMs6_NtNtNtNtCslGh6CY2EcXh_14darwin_metrics8hardware5iokit22___mock_MockIOKit_IOKit19___get_dict_propertyNtB5_11Expectation4once
FNDA:0,_RNvMs6_NtNtNtNtCslGh6CY2EcXh_14darwin_metrics8hardware5iokit22___mock_MockIOKit_IOKit19___get_dict_propertyNtB5_11Expectation5never
FNDA:0,_RNvMs6_NtNtNtNtCslGh6CY2EcXh_14darwin_metrics8hardware5iokit22___mock_MockIOKit_IOKit19___io_object_releaseNtB5_11Expectation11in_sequence
FNDA:0,_RNvMs6_NtNtNtNtCslGh6CY2EcXh_14darwin_metrics8hardware5iokit22___mock_MockIOKit_IOKit19___io_object_releaseNtB5_11Expectation3new
FNDA:0,_RNvMs6_NtNtNtNtCslGh6CY2EcXh_14darwin_metrics8hardware5iokit22___mock_MockIOKit_IOKit19___io_object_releaseNtB5_11Expectation4once
FNDA:0,_RNvMs6_NtNtNtNtCslGh6CY2EcXh_14darwin_metrics8hardware5iokit22___mock_MockIOKit_IOKit19___io_object_releaseNtB5_11Expectation5never
FNDA:0,_RNvMs6_NtNtNtNtCslGh6CY2EcXh_14darwin_metrics8hardware5iokit22___mock_MockIOKit_IOKit21___get_cpu_temperatureNtB5_11Expectation11in_sequence
FNDA:0,_RNvMs6_NtNtNtNtCslGh6CY2EcXh_14darwin_metrics8hardware5iokit22___mock_MockIOKit_IOKit21___get_cpu_temperatureNtB5_11Expectation3new
FNDA:0,_RNvMs6_NtNtNtNtCslGh6CY2EcXh_14darwin_metrics8hardware5iokit22___mock_MockIOKit_IOKit21___get_cpu_temperatureNtB5_11Expectation4once
FNDA:0,_RNvMs6_NtNtNtNtCslGh6CY2EcXh_14darwin_metrics8hardware5iokit22___mock_MockIOKit_IOKit21___get_cpu_temperatureNtB5_11Expectation4with
FNDA:0,_RNvMs6_NtNtNtNtCslGh6CY2EcXh_14darwin_metrics8hardware5iokit22___mock_MockIOKit_IOKit21___get_cpu_temperatureNtB5_11Expectation5never
FNDA:0,_RNvMs6_NtNtNtNtCslGh6CY2EcXh_14darwin_metrics8hardware5iokit22___mock_MockIOKit_IOKit21___get_gpu_temperatureNtB5_11Expectation11in_sequence
FNDA:0,_RNvMs6_NtNtNtNtCslGh6CY2EcXh_14darwin_metrics8hardware5iokit22___mock_MockIOKit_IOKit21___get_gpu_temperatureNtB5_11Expectation3new
FNDA:0,_RNvMs6_NtNtNtNtCslGh6CY2EcXh_14darwin_metrics8hardware5iokit22___mock_MockIOKit_IOKit21___get_gpu_temperatureNtB5_11Expectation4once
FNDA:0,_RNvMs6_NtNtNtNtCslGh6CY2EcXh_14darwin_metrics8hardware5iokit22___mock_MockIOKit_IOKit21___get_gpu_temperatureNtB5_11Expectation4with
FNDA:0,_RNvMs6_NtNtNtNtCslGh6CY2EcXh_14darwin_metrics8hardware5iokit22___mock_MockIOKit_IOKit21___get_gpu_temperatureNtB5_11Expectation5never
FNDA:0,_RNvMs6_NtNtNtNtCslGh6CY2EcXh_14darwin_metrics8hardware5iokit22___mock_MockIOKit_IOKit21___get_number_propertyNtB5_11Expectation11in_sequence
FNDA:0,_RNvMs6_NtNtNtNtCslGh6CY2EcXh_14darwin_metrics8hardware5iokit22___mock_MockIOKit_IOKit21___get_number_propertyNtB5_11Expectation3new
FNDA:0,_RNvMs6_NtNtNtNtCslGh6CY2EcXh_14darwin_metrics8hardware5iokit22___mock_MockIOKit_IOKit21___get_number_propertyNtB5_11Expectation4once
FNDA:0,_RNvMs6_NtNtNtNtCslGh6CY2EcXh_14darwin_metrics8hardware5iokit22___mock_MockIOKit_IOKit21___get_number_propertyNtB5_11Expectation5never
FNDA:0,_RNvMs6_NtNtNtNtCslGh6CY2EcXh_14darwin_metrics8hardware5iokit22___mock_MockIOKit_IOKit21___get_string_propertyNtB5_11Expectation11in_sequence
FNDA:0,_RNvMs6_NtNtNtNtCslGh6CY2EcXh_14darwin_metrics8hardware5iokit22___mock_MockIOKit_IOKit21___get_string_propertyNtB5_11Expectation3new
FNDA:0,_RNvMs6_NtNtNtNtCslGh6CY2EcXh_14darwin_metrics8hardware5iokit22___mock_MockIOKit_IOKit21___get_string_propertyNtB5_11Expectation4once
FNDA:0,_RNvMs6_NtNtNtNtCslGh6CY2EcXh_14darwin_metrics8hardware5iokit22___mock_MockIOKit_IOKit21___get_string_propertyNtB5_11Expectation5never
FNDA:0,_RNvMs6_NtNtNtNtCslGh6CY2EcXh_14darwin_metrics8hardware5iokit22___mock_MockIOKit_IOKit21___io_service_matchingNtB5_11Expectation11in_sequence
FNDA:0,_RNvMs6_NtNtNtNtCslGh6CY2EcXh_14darwin_metrics8hardware5iokit22___mock_MockIOKit_IOKit21___io_service_matchingNtB5_11Expectation3new
FNDA:0,_RNvMs6_NtNtNtNtCslGh6CY2EcXh_14darwin_metrics8hardware5iokit22___mock_MockIOKit_IOKit21___io_service_matchingNtB5_11Expectation4once
FNDA:0,_RNvMs6_NtNtNtNtCslGh6CY2EcXh_14darwin_metrics8hardware5iokit22___mock_MockIOKit_IOKit21___io_service_matchingNtB5_11Expectation5never
FNDA:0,_RNvMs6_NtNtNtNtCslGh6CY2EcXh_14darwin_metrics8hardware5iokit22___mock_MockIOKit_IOKit25___get_ambient_temperatureNtB5_11Expectation11in_sequence
FNDA:0,_RNvMs6_NtNtNtNtCslGh6CY2EcXh_14darwin_metrics8hardware5iokit22___mock_MockIOKit_IOKit25___get_ambient_temperatureNtB5_11Expectation3new
FNDA:0,_RNvMs6_NtNtNtNtCslGh6CY2EcXh_14darwin_metrics8hardware5iokit22___mock_MockIOKit_IOKit25___get_ambient_temperatureNtB5_11Expectation4once
FNDA:0,_RNvMs6_NtNtNtNtCslGh6CY2EcXh_14darwin_metrics8hardware5iokit22___mock_MockIOKit_IOKit25___get_ambient_temperatureNtB5_11Expectation4with
FNDA:0,_RNvMs6_NtNtNtNtCslGh6CY2EcXh_14darwin_metrics8hardware5iokit22___mock_MockIOKit_IOKit25___get_ambient_temperatureNtB5_11Expectation5never
FNDA:0,_RNvMs6_NtNtNtNtCslGh6CY2EcXh_14darwin_metrics8hardware5iokit22___mock_MockIOKit_IOKit25___get_battery_temperatureNtB5_11Expectation11in_sequence
FNDA:0,_RNvMs6_NtNtNtNtCslGh6CY2EcXh_14darwin_metrics8hardware5iokit22___mock_MockIOKit_IOKit25___get_battery_temperatureNtB5_11Expectation3new
FNDA:0,_RNvMs6_NtNtNtNtCslGh6CY2EcXh_14darwin_metrics8hardware5iokit22___mock_MockIOKit_IOKit25___get_battery_temperatureNtB5_11Expectation4once
FNDA:0,_RNvMs6_NtNtNtNtCslGh6CY2EcXh_14darwin_metrics8hardware5iokit22___mock_MockIOKit_IOKit25___get_battery_temperatureNtB5_11Expectation4with
FNDA:0,_RNvMs6_NtNtNtNtCslGh6CY2EcXh_14darwin_metrics8hardware5iokit22___mock_MockIOKit_IOKit25___get_battery_temperatureNtB5_11Expectation5never
FNDA:0,_RNvMs6_NtNtNtNtCslGh6CY2EcXh_14darwin_metrics8hardware5iokit22___mock_MockIOKit_IOKit26___check_thermal_throttlingNtB5_11Expectation11in_sequence
FNDA:0,_RNvMs6_NtNtNtNtCslGh6CY2EcXh_14darwin_metrics8hardware5iokit22___mock_MockIOKit_IOKit26___check_thermal_throttlingNtB5_11Expectation3new
FNDA:0,_RNvMs6_NtNtNtNtCslGh6CY2EcXh_14darwin_metrics8hardware5iokit22___mock_MockIOKit_IOKit26___check_thermal_throttlingNtB5_11Expectation4once
FNDA:0,_RNvMs6_NtNtNtNtCslGh6CY2EcXh_14darwin_metrics8hardware5iokit22___mock_MockIOKit_IOKit26___check_thermal_throttlingNtB5_11Expectation4with
FNDA:0,_RNvMs6_NtNtNtNtCslGh6CY2EcXh_14darwin_metrics8hardware5iokit22___mock_MockIOKit_IOKit26___check_thermal_throttlingNtB5_11Expectation5never
FNDA:0,_RNvMs6_NtNtNtNtCslGh6CY2EcXh_14darwin_metrics8hardware5iokit22___mock_MockIOKit_IOKit26___get_heatsink_temperatureNtB5_11Expectation11in_sequence
FNDA:0,_RNvMs6_NtNtNtNtCslGh6CY2EcXh_14darwin_metrics8hardware5iokit22___mock_MockIOKit_IOKit26___get_heatsink_temperatureNtB5_11Expectation3new
FNDA:0,_RNvMs6_NtNtNtNtCslGh6CY2EcXh_14darwin_metrics8hardware5iokit22___mock_MockIOKit_IOKit26___get_heatsink_temperatureNtB5_11Expectation4once
FNDA:0,_RNvMs6_NtNtNtNtCslGh6CY2EcXh_14darwin_metrics8hardware5iokit22___mock_MockIOKit_IOKit26___get_heatsink_temperatureNtB5_11Expectation4with
FNDA:0,_RNvMs6_NtNtNtNtCslGh6CY2EcXh_14darwin_metrics8hardware5iokit22___mock_MockIOKit_IOKit26___get_heatsink_temperatureNtB5_11Expectation5never
FNDA:0,_RNvMs6_NtNtNtNtCslGh6CY2EcXh_14darwin_metrics8hardware5iokit22___mock_MockIOKit_IOKit30___io_registry_entry_get_parentNtB5_11Expectation11in_sequence
FNDA:0,_RNvMs6_NtNtNtNtCslGh6CY2EcXh_14darwin_metrics8hardware5iokit22___mock_MockIOKit_IOKit30___io_registry_entry_get_parentNtB5_11Expectation3new
FNDA:0,_RNvMs6_NtNtNtNtCslGh6CY2EcXh_14darwin_metrics8hardware5iokit22___mock_MockIOKit_IOKit30___io_registry_entry_get_parentNtB5_11Expectation4once
FNDA:0,_RNvMs6_NtNtNtNtCslGh6CY2EcXh_14darwin_metrics8hardware5iokit22___mock_MockIOKit_IOKit30___io_registry_entry_get_parentNtB5_11Expectation5never
FNDA:0,_RNvMs6_NtNtNtNtCslGh6CY2EcXh_14darwin_metrics8hardware5iokit22___mock_MockIOKit_IOKit33___io_service_get_matching_serviceNtB5_11Expectation11in_sequence
FNDA:0,_RNvMs6_NtNtNtNtCslGh6CY2EcXh_14darwin_metrics8hardware5iokit22___mock_MockIOKit_IOKit33___io_service_get_matching_serviceNtB5_11Expectation3new
FNDA:0,_RNvMs6_NtNtNtNtCslGh6CY2EcXh_14darwin_metrics8hardware5iokit22___mock_MockIOKit_IOKit33___io_service_get_matching_serviceNtB5_11Expectation4once
FNDA:0,_RNvMs6_NtNtNtNtCslGh6CY2EcXh_14darwin_metrics8hardware5iokit22___mock_MockIOKit_IOKit33___io_service_get_matching_serviceNtB5_11Expectation5never
FNDA:0,_RNvMs6_NtNtNtNtCslGh6CY2EcXh_14darwin_metrics8hardware5iokit22___mock_MockIOKit_IOKit40___io_registry_entry_create_cf_propertiesNtB5_11Expectation11in_sequence
FNDA:0,_RNvMs6_NtNtNtNtCslGh6CY2EcXh_14darwin_metrics8hardware5iokit22___mock_MockIOKit_IOKit40___io_registry_entry_create_cf_propertiesNtB5_11Expectation3new
FNDA:0,_RNvMs6_NtNtNtNtCslGh6CY2EcXh_14darwin_metrics8hardware5iokit22___mock_MockIOKit_IOKit40___io_registry_entry_create_cf_propertiesNtB5_11Expectation4once
FNDA:0,_RNvMs6_NtNtNtNtCslGh6CY2EcXh_14darwin_metrics8hardware5iokit22___mock_MockIOKit_IOKit40___io_registry_entry_create_cf_propertiesNtB5_11Expectation5never
FNDA:0,_RNvMs8_NtNtNtNtCslGh6CY2EcXh_14darwin_metrics8hardware5iokit22___mock_MockIOKit_IOKit13___get_serviceNtB5_12Expectations10checkpoint
FNDA:0,_RNvMs8_NtNtNtNtCslGh6CY2EcXh_14darwin_metrics8hardware5iokit22___mock_MockIOKit_IOKit14___get_all_fansNtB5_12Expectations10checkpoint
FNDA:0,_RNvMs8_NtNtNtNtCslGh6CY2EcXh_14darwin_metrics8hardware5iokit22___mock_MockIOKit_IOKit14___get_fan_infoNtB5_12Expectations10checkpoint
FNDA:0,_RNvMs8_NtNtNtNtCslGh6CY2EcXh_14darwin_metrics8hardware5iokit22___mock_MockIOKit_IOKit14___read_smc_keyNtB5_12Expectations10checkpoint
FNDA:0,_RNvMs8_NtNtNtNtCslGh6CY2EcXh_14darwin_metrics8hardware5iokit22___mock_MockIOKit_IOKit15___get_cpu_powerNtB5_12Expectations10checkpoint
FNDA:0,_RNvMs8_NtNtNtNtCslGh6CY2EcXh_14darwin_metrics8hardware5iokit22___mock_MockIOKit_IOKit15___get_fan_countNtB5_12Expectations10checkpoint
FNDA:0,_RNvMs8_NtNtNtNtCslGh6CY2EcXh_14darwin_metrics8hardware5iokit22___mock_MockIOKit_IOKit15___get_fan_speedNtB5_12Expectations10checkpoint
FNDA:0,_RNvMs8_NtNtNtNtCslGh6CY2EcXh_14darwin_metrics8hardware5iokit22___mock_MockIOKit_IOKit15___get_gpu_statsNtB5_12Expectations10checkpoint
FNDA:0,_RNvMs8_NtNtNtNtCslGh6CY2EcXh_14darwin_metrics8hardware5iokit22___mock_MockIOKit_IOKit18___get_thermal_infoNtB5_12Expectations10checkpoint
FNDA:0,_RNvMs8_NtNtNtNtCslGh6CY2EcXh_14darwin_metrics8hardware5iokit22___mock_MockIOKit_IOKit19___get_bool_propertyNtB5_12Expectations10checkpoint
FNDA:0,_RNvMs8_NtNtNtNtCslGh6CY2EcXh_14darwin_metrics8hardware5iokit22___mock_MockIOKit_IOKit19___get_dict_propertyNtB5_12Expectations10checkpoint
FNDA:0,_RNvMs8_NtNtNtNtCslGh6CY2EcXh_14darwin_metrics8hardware5iokit22___mock_MockIOKit_IOKit19___io_object_releaseNtB5_12Expectations10checkpoint
FNDA:0,_RNvMs8_NtNtNtNtCslGh6CY2EcXh_14darwin_metrics8hardware5iokit22___mock_MockIOKit_IOKit19___io_object_releaseNtB5_12Expectations6expect
FNDA:0,_RNvMs8_NtNtNtNtCslGh6CY2EcXh_14darwin_metrics8hardware5iokit22___mock_MockIOKit_IOKit21___get_cpu_temperatureNtB5_12Expectations10checkpoint
FNDA:0,_RNvMs8_NtNtNtNtCslGh6CY2EcXh_14darwin_metrics8hardware5iokit22___mock_MockIOKit_IOKit21___get_gpu_temperatureNtB5_12Expectations10checkpoint
FNDA:0,_RNvMs8_NtNtNtNtCslGh6CY2EcXh_14darwin_metrics8hardware5iokit22___mock_MockIOKit_IOKit21___get_number_propertyNtB5_12Expectations10checkpoint
FNDA:0,_RNvMs8_NtNtNtNtCslGh6CY2EcXh_14darwin_metrics8hardware5iokit22___mock_MockIOKit_IOKit21___get_string_propertyNtB5_12Expectations10checkpoint
FNDA:0,_RNvMs8_NtNtNtNtCslGh6CY2EcXh_14darwin_metrics8hardware5iokit22___mock_MockIOKit_IOKit21___io_service_matchingNtB5_12Expectations10checkpoint
FNDA:0,_RNvMs8_NtNtNtNtCslGh6CY2EcXh_14darwin_metrics8hardware5iokit22___mock_MockIOKit_IOKit25___get_ambient_temperatureNtB5_12Expectations10checkpoint
FNDA:0,_RNvMs8_NtNtNtNtCslGh6CY2EcXh_14darwin_metrics8hardware5iokit22___mock_MockIOKit_IOKit25___get_battery_temperatureNtB5_12Expectations10checkpoint
FNDA:0,_RNvMs8_NtNtNtNtCslGh6CY2EcXh_14darwin_metrics8hardware5iokit22___mock_MockIOKit_IOKit26___check_thermal_throttlingNtB5_12Expectations10checkpoint
FNDA:0,_RNvMs8_NtNtNtNtCslGh6CY2EcXh_14darwin_metrics8hardware5iokit22___mock_MockIOKit_IOKit26___get_heatsink_temperatureNtB5_12Expectations10checkpoint
FNDA:0,_RNvMs8_NtNtNtNtCslGh6CY2EcXh_14darwin_metrics8hardware5iokit22___mock_MockIOKit_IOKit30___io_registry_entry_get_parentNtB5_12Expectations10checkpoint
FNDA:0,_RNvMs8_NtNtNtNtCslGh6CY2EcXh_14darwin_metrics8hardware5iokit22___mock_MockIOKit_IOKit33___io_service_get_matching_serviceNtB5_12Expectations10checkpoint
FNDA:0,_RNvMs8_NtNtNtNtCslGh6CY2EcXh_14darwin_metrics8hardware5iokit22___mock_MockIOKit_IOKit40___io_registry_entry_create_cf_propertiesNtB5_12Expectations10checkpoint
FNDA:0,_RNvMsa_NtNtCslGh6CY2EcXh_14darwin_metrics8hardware5iokitNtB5_15MockIOKit_IOKit10checkpoint
FNDA:0,_RNvMsb_NtNtCslGh6CY2EcXh_14darwin_metrics8hardware5iokitNtB5_9MockIOKit10checkpoint
FNDA:0,_RNvMsd_NtNtCslGh6CY2EcXh_14darwin_metrics8hardware5iokitNtB5_9MockIOKit24expect_io_object_release
FNDA:0,_RNvXs1_NtNtNtNtCslGh6CY2EcXh_14darwin_metrics8hardware5iokit22___mock_MockIOKit_IOKit19___io_object_releaseNtB5_7MatcherNtNtCs4P3ALgZxGbJ_4core7default7Default7default
FNDA:0,_RNvXs3_NtNtNtNtCslGh6CY2EcXh_14darwin_metrics8hardware5iokit22___mock_MockIOKit_IOKit19___io_object_releaseNtB5_6CommonNtNtCs4P3ALgZxGbJ_4core7default7Default7default
FNDA:0,_RNvXs7_NtNtNtNtCslGh6CY2EcXh_14darwin_metrics8hardware5iokit22___mock_MockIOKit_IOKit19___io_object_releaseNtB5_11ExpectationNtNtCs4P3ALgZxGbJ_4core7default7Default7default
FNDA:0,_RNvXs_NtNtNtNtCslGh6CY2EcXh_14darwin_metrics8hardware5iokit22___mock_MockIOKit_IOKit19___io_object_releaseNtB4_5RfuncNtNtCs4P3ALgZxGbJ_4core7default7Default7default
FNDA:1,_RINvMs6_NtNtNtNtCslGh6CY2EcXh_14darwin_metrics8hardware5iokit22___mock_MockIOKit_IOKit21___get_string_propertyNtB6_11Expectation9returningNCNvNtBa_5testss_24test_get_string_property0EBe_
FNDA:2,_RNCNvNtNtNtCslGh6CY2EcXh_14darwin_metrics8hardware5iokit5testss_24test_get_string_property0B9_
FNDA:1,_RINvMs6_NtNtNtNtCslGh6CY2EcXh_14darwin_metrics8hardware5iokit22___mock_MockIOKit_IOKit25___get_battery_temperatureNtB6_11Expectation9returningNCNvNtBa_5testss_28test_get_battery_temperature0EBe_
FNDA:1,_RNCNvNtNtNtCslGh6CY2EcXh_14darwin_metrics8hardware5iokit5testss_28test_get_battery_temperature0B9_
FNDA:0,_RNCNvMs0_NtNtNtNtCslGh6CY2EcXh_14darwin_metrics8hardware5iokit22___mock_MockIOKit_IOKit19___get_dict_propertyNtB7_7Matcher7matches0Bf_
FNDA:2,_RNCNvMsa_NtNtNtNtCslGh6CY2EcXh_14darwin_metrics8hardware5iokit22___mock_MockIOKit_IOKit19___get_dict_propertyNtB7_12Expectations4calls_0Bf_
FNDA:2,_RNvMs4_NtNtNtNtCslGh6CY2EcXh_14darwin_metrics8hardware5iokit22___mock_MockIOKit_IOKit19___get_dict_propertyNtB5_6Common7is_done
FNDA:2,_RNvMs4_NtNtNtNtCslGh6CY2EcXh_14darwin_metrics8hardware5iokit22___mock_MockIOKit_IOKit19___get_dict_propertyNtB5_6Common7matches
FNDA:2,_RNvMs6_NtNtNtNtCslGh6CY2EcXh_14darwin_metrics8hardware5iokit22___mock_MockIOKit_IOKit19___get_dict_propertyNtB5_11Expectation7is_done
FNDA:2,_RNvMs6_NtNtNtNtCslGh6CY2EcXh_14darwin_metrics8hardware5iokit22___mock_MockIOKit_IOKit19___get_dict_propertyNtB5_11Expectation7matches
FNDA:32,_RNvMs8_NtNtNtNtCslGh6CY2EcXh_14darwin_metrics8hardware5iokit22___mock_MockIOKit_IOKit19___get_dict_propertyNtB5_12Expectations3new
FNDA:1,_RNvMs8_NtNtNtNtCslGh6CY2EcXh_14darwin_metrics8hardware5iokit22___mock_MockIOKit_IOKit19___get_dict_propertyNtB5_12Expectations6expect
FNDA:1,_RNvXs1_NtNtNtNtCslGh6CY2EcXh_14darwin_metrics8hardware5iokit22___mock_MockIOKit_IOKit19___get_dict_propertyNtB5_7MatcherNtNtCs4P3ALgZxGbJ_4core7default7Default7default
FNDA:1,_RNvXs3_NtNtNtNtCslGh6CY2EcXh_14darwin_metrics8hardware5iokit22___mock_MockIOKit_IOKit19___get_dict_propertyNtB5_6CommonNtNtCs4P3ALgZxGbJ_4core7default7Default7default
FNDA:1,_RNvXs7_NtNtNtNtCslGh6CY2EcXh_14darwin_metrics8hardware5iokit22___mock_MockIOKit_IOKit19___get_dict_propertyNtB5_11ExpectationNtNtCs4P3ALgZxGbJ_4core7default7Default7default
FNDA:32,_RNvXs9_NtNtNtNtCslGh6CY2EcXh_14darwin_metrics8hardware5iokit22___mock_MockIOKit_IOKit19___get_dict_propertyNtB5_12ExpectationsNtNtCs4P3ALgZxGbJ_4core7default7Default7default
FNDA:1,_RNvXs_NtNtNtNtCslGh6CY2EcXh_14darwin_metrics8hardware5iokit22___mock_MockIOKit_IOKit19___get_dict_propertyNtB4_5RfuncNtNtCs4P3ALgZxGbJ_4core7default7Default7default
FNDA:1,_RINvMs6_NtNtNtNtCslGh6CY2EcXh_14darwin_metrics8hardware5iokit22___mock_MockIOKit_IOKit30___io_registry_entry_get_parentNtB6_11Expectation9returningNCNvNtBa_5testss_33test_io_registry_entry_get_parent0EBe_
FNDA:1,_RNCNvNtNtNtCslGh6CY2EcXh_14darwin_metrics8hardware5iokit5testss_33test_io_registry_entry_get_parent0B9_
FNDA:1,_RINvMs6_NtNtNtNtCslGh6CY2EcXh_14darwin_metrics8hardware5iokit22___mock_MockIOKit_IOKit21___io_service_matchingNtB6_11Expectation9returningNCNvNtBa_5testss_24test_io_service_matching0EBe_
FNDA:1,_RNCNvNtNtNtCslGh6CY2EcXh_14darwin_metrics8hardware5iokit5testss_24test_io_service_matching0B9_
FNDA:5,_RNCNvMs0_NtNtNtNtCslGh6CY2EcXh_14darwin_metrics8hardware5iokit22___mock_MockIOKit_IOKit14___get_fan_infoNtB7_7Matcher7matches0Bf_
FNDA:4,_RNCNvMsa_NtNtNtNtCslGh6CY2EcXh_14darwin_metrics8hardware5iokit22___mock_MockIOKit_IOKit14___get_fan_infoNtB7_12Expectations4calls_0Bf_
FNDA:4,_RNvMs4_NtNtNtNtCslGh6CY2EcXh_14darwin_metrics8hardware5iokit22___mock_MockIOKit_IOKit14___get_fan_infoNtB5_6Common7is_done
FNDA:5,_RNvMs4_NtNtNtNtCslGh6CY2EcXh_14darwin_metrics8hardware5iokit22___mock_MockIOKit_IOKit14___get_fan_infoNtB5_6Common7matches
FNDA:4,_RNvMs6_NtNtNtNtCslGh6CY2EcXh_14darwin_metrics8hardware5iokit22___mock_MockIOKit_IOKit14___get_fan_infoNtB5_11Expectation7is_done
FNDA:5,_RNvMs6_NtNtNtNtCslGh6CY2EcXh_14darwin_metrics8hardware5iokit22___mock_MockIOKit_IOKit14___get_fan_infoNtB5_11Expectation7matches
FNDA:32,_RNvMs8_NtNtNtNtCslGh6CY2EcXh_14darwin_metrics8hardware5iokit22___mock_MockIOKit_IOKit14___get_fan_infoNtB5_12Expectations3new
FNDA:4,_RNvMs8_NtNtNtNtCslGh6CY2EcXh_14darwin_metrics8hardware5iokit22___mock_MockIOKit_IOKit14___get_fan_infoNtB5_12Expectations6expect
FNDA:4,_RNvXs1_NtNtNtNtCslGh6CY2EcXh_14darwin_metrics8hardware5iokit22___mock_MockIOKit_IOKit14___get_fan_infoNtB5_7MatcherNtNtCs4P3ALgZxGbJ_4core7default7Default7default
FNDA:4,_RNvXs3_NtNtNtNtCslGh6CY2EcXh_14darwin_metrics8hardware5iokit22___mock_MockIOKit_IOKit14___get_fan_infoNtB5_6CommonNtNtCs4P3ALgZxGbJ_4core7default7Default7default
FNDA:4,_RNvXs7_NtNtNtNtCslGh6CY2EcXh_14darwin_metrics8hardware5iokit22___mock_MockIOKit_IOKit14___get_fan_infoNtB5_11ExpectationNtNtCs4P3ALgZxGbJ_4core7default7Default7default
FNDA:32,_RNvXs9_NtNtNtNtCslGh6CY2EcXh_14darwin_metrics8hardware5iokit22___mock_MockIOKit_IOKit14___get_fan_infoNtB5_12ExpectationsNtNtCs4P3ALgZxGbJ_4core7default7Default7default
FNDA:4,_RNvXs_NtNtNtNtCslGh6CY2EcXh_14darwin_metrics8hardware5iokit22___mock_MockIOKit_IOKit14___get_fan_infoNtB4_5RfuncNtNtCs4P3ALgZxGbJ_4core7default7Default7default
FNDA:1,_RINvMs6_NtNtNtNtCslGh6CY2EcXh_14darwin_metrics8hardware5iokit22___mock_MockIOKit_IOKit18___get_thermal_infoNtB6_11Expectation9returningNCNvNtBa_5testss_21test_get_thermal_info0EBe_
FNDA:1,_RINvMs6_NtNtNtNtCslGh6CY2EcXh_14darwin_metrics8hardware5iokit22___mock_MockIOKit_IOKit18___get_thermal_infoNtB6_11Expectation9returningNCNvNtBa_5testss_35test_get_thermal_info_with_failures0EBe_
FNDA:1,_RNCNvNtNtNtCslGh6CY2EcXh_14darwin_metrics8hardware5iokit5testss_21test_get_thermal_info0B9_
FNDA:1,_RNCNvNtNtNtCslGh6CY2EcXh_14darwin_metrics8hardware5iokit5testss_35test_get_thermal_info_with_failures0B9_
FNDA:1,_RINvMs6_NtNtNtNtCslGh6CY2EcXh_14darwin_metrics8hardware5iokit22___mock_MockIOKit_IOKit15___get_gpu_statsNtB6_11Expectation9returningNCNvNtBa_5testss_18test_get_gpu_stats0EBe_
FNDA:1,_RNCNvNtNtNtCslGh6CY2EcXh_14darwin_metrics8hardware5iokit5testss_18test_get_gpu_stats0B9_
FNDA:1,_RINvMs6_NtNtNtNtCslGh6CY2EcXh_14darwin_metrics8hardware5iokit22___mock_MockIOKit_IOKit19___get_bool_propertyNtB6_11Expectation9returningNCNvNtBa_5testss_22test_get_bool_property0EBe_
FNDA:2,_RNCNvNtNtNtCslGh6CY2EcXh_14darwin_metrics8hardware5iokit5testss_22test_get_bool_property0B9_
FNDA:0,_RNCNvMs0_NtNtNtNtCslGh6CY2EcXh_14darwin_metrics8hardware5iokit22___mock_MockIOKit_IOKit15___get_fan_countNtB7_7Matcher7matches0Bf_
FNDA:2,_RNCNvMsa_NtNtNtNtCslGh6CY2EcXh_14darwin_metrics8hardware5iokit22___mock_MockIOKit_IOKit15___get_fan_countNtB7_12Expectations4calls_0Bf_
FNDA:2,_RNvMs4_NtNtNtNtCslGh6CY2EcXh_14darwin_metrics8hardware5iokit22___mock_MockIOKit_IOKit15___get_fan_countNtB5_6Common7is_done
FNDA:2,_RNvMs4_NtNtNtNtCslGh6CY2EcXh_14darwin_metrics8hardware5iokit22___mock_MockIOKit_IOKit15___get_fan_countNtB5_6Common7matches
FNDA:2,_RNvMs6_NtNtNtNtCslGh6CY2EcXh_14darwin_metrics8hardware5iokit22___mock_MockIOKit_IOKit15___get_fan_countNtB5_11Expectation7is_done
FNDA:2,_RNvMs6_NtNtNtNtCslGh6CY2EcXh_14darwin_metrics8hardware5iokit22___mock_MockIOKit_IOKit15___get_fan_countNtB5_11Expectation7matches
FNDA:32,_RNvMs8_NtNtNtNtCslGh6CY2EcXh_14darwin_metrics8hardware5iokit22___mock_MockIOKit_IOKit15___get_fan_countNtB5_12Expectations3new
FNDA:3,_RNvMs8_NtNtNtNtCslGh6CY2EcXh_14darwin_metrics8hardware5iokit22___mock_MockIOKit_IOKit15___get_fan_countNtB5_12Expectations6expect
FNDA:3,_RNvXs1_NtNtNtNtCslGh6CY2EcXh_14darwin_metrics8hardware5iokit22___mock_MockIOKit_IOKit15___get_fan_countNtB5_7MatcherNtNtCs4P3ALgZxGbJ_4core7default7Default7default
FNDA:3,_RNvXs3_NtNtNtNtCslGh6CY2EcXh_14darwin_metrics8hardware5iokit22___mock_MockIOKit_IOKit15___get_fan_countNtB5_6CommonNtNtCs4P3ALgZxGbJ_4core7default7Default7default
FNDA:3,_RNvXs7_NtNtNtNtCslGh6CY2EcXh_14darwin_metrics8hardware5iokit22___mock_MockIOKit_IOKit15___get_fan_countNtB5_11ExpectationNtNtCs4P3ALgZxGbJ_4core7default7Default7default
FNDA:32,_RNvXs9_NtNtNtNtCslGh6CY2EcXh_14darwin_metrics8hardware5iokit22___mock_MockIOKit_IOKit15___get_fan_countNtB5_12ExpectationsNtNtCs4P3ALgZxGbJ_4core7default7Default7default
FNDA:3,_RNvXs_NtNtNtNtCslGh6CY2EcXh_14darwin_metrics8hardware5iokit22___mock_MockIOKit_IOKit15___get_fan_countNtB4_5RfuncNtNtCs4P3ALgZxGbJ_4core7default7Default7default
FNDA:0,_RNCNvMs0_NtNtNtNtCslGh6CY2EcXh_14darwin_metrics8hardware5iokit22___mock_MockIOKit_IOKit25___get_battery_temperatureNtB7_7Matcher7matches0Bf_
FNDA:1,_RNCNvMsa_NtNtNtNtCslGh6CY2EcXh_14darwin_metrics8hardware5iokit22___mock_MockIOKit_IOKit25___get_battery_temperatureNtB7_12Expectations4calls_0Bf_
FNDA:1,_RNvMs4_NtNtNtNtCslGh6CY2EcXh_14darwin_metrics8hardware5iokit22___mock_MockIOKit_IOKit25___get_battery_temperatureNtB5_6Common7is_done
FNDA:1,_RNvMs4_NtNtNtNtCslGh6CY2EcXh_14darwin_metrics8hardware5iokit22___mock_MockIOKit_IOKit25___get_battery_temperatureNtB5_6Common7matches
FNDA:1,_RNvMs6_NtNtNtNtCslGh6CY2EcXh_14darwin_metrics8hardware5iokit22___mock_MockIOKit_IOKit25___get_battery_temperatureNtB5_11Expectation7is_done
FNDA:1,_RNvMs6_NtNtNtNtCslGh6CY2EcXh_14darwin_metrics8hardware5iokit22___mock_MockIOKit_IOKit25___get_battery_temperatureNtB5_11Expectation7matches
FNDA:32,_RNvMs8_NtNtNtNtCslGh6CY2EcXh_14darwin_metrics8hardware5iokit22___mock_MockIOKit_IOKit25___get_battery_temperatureNtB5_12Expectations3new
FNDA:1,_RNvMs8_NtNtNtNtCslGh6CY2EcXh_14darwin_metrics8hardware5iokit22___mock_MockIOKit_IOKit25___get_battery_temperatureNtB5_12Expectations6expect
FNDA:1,_RNvXs1_NtNtNtNtCslGh6CY2EcXh_14darwin_metrics8hardware5iokit22___mock_MockIOKit_IOKit25___get_battery_temperatureNtB5_7MatcherNtNtCs4P3ALgZxGbJ_4core7default7Default7default
FNDA:1,_RNvXs3_NtNtNtNtCslGh6CY2EcXh_14darwin_metrics8hardware5iokit22___mock_MockIOKit_IOKit25___get_battery_temperatureNtB5_6CommonNtNtCs4P3ALgZxGbJ_4core7default7Default7default
FNDA:1,_RNvXs7_NtNtNtNtCslGh6CY2EcXh_14darwin_metrics8hardware5iokit22___mock_MockIOKit_IOKit25___get_battery_temperatureNtB5_11ExpectationNtNtCs4P3ALgZxGbJ_4core7default7Default7default
FNDA:32,_RNvXs9_NtNtNtNtCslGh6CY2EcXh_14darwin_metrics8hardware5iokit22___mock_MockIOKit_IOKit25___get_battery_temperatureNtB5_12ExpectationsNtNtCs4P3ALgZxGbJ_4core7default7Default7default
FNDA:1,_RNvXs_NtNtNtNtCslGh6CY2EcXh_14darwin_metrics8hardware5iokit22___mock_MockIOKit_IOKit25___get_battery_temperatureNtB4_5RfuncNtNtCs4P3ALgZxGbJ_4core7default7Default7default
FNDA:0,_RNCNCNvXs_NtNtCslGh6CY2EcXh_14darwin_metrics8hardware5iokitNtB8_9IOKitImplNtB8_5IOKit13get_gpu_stats00Bc_
FNDA:0,_RNCNCNvXs_NtNtCslGh6CY2EcXh_14darwin_metrics8hardware5iokitNtB8_9IOKitImplNtB8_5IOKit38io_registry_entry_create_cf_properties00Bc_
FNDA:0,_RNCNvXs_NtNtCslGh6CY2EcXh_14darwin_metrics8hardware5iokitNtB6_9IOKitImplNtB6_5IOKit13get_gpu_stats0Ba_
FNDA:0,_RNCNvXs_NtNtCslGh6CY2EcXh_14darwin_metrics8hardware5iokitNtB6_9IOKitImplNtB6_5IOKit17get_bool_property0Ba_
FNDA:0,_RNCNvXs_NtNtCslGh6CY2EcXh_14darwin_metrics8hardware5iokitNtB6_9IOKitImplNtB6_5IOKit17get_bool_propertys_0Ba_
FNDA:0,_RNCNvXs_NtNtCslGh6CY2EcXh_14darwin_metrics8hardware5iokitNtB6_9IOKitImplNtB6_5IOKit19get_number_property0Ba_
FNDA:0,_RNCNvXs_NtNtCslGh6CY2EcXh_14darwin_metrics8hardware5iokitNtB6_9IOKitImplNtB6_5IOKit19get_string_property0Ba_
FNDA:0,_RNCNvXs_NtNtCslGh6CY2EcXh_14darwin_metrics8hardware5iokitNtB6_9IOKitImplNtB6_5IOKit19io_service_matching0Ba_
FNDA:0,_RNCNvXs_NtNtCslGh6CY2EcXh_14darwin_metrics8hardware5iokitNtB6_9IOKitImplNtB6_5IOKit38io_registry_entry_create_cf_properties0Ba_
FNDA:7,_RNvMNtNtCslGh6CY2EcXh_14darwin_metrics8hardware5iokitNtB2_9IOKitImpl12smc_read_key
FNDA:5,_RNvMNtNtCslGh6CY2EcXh_14darwin_metrics8hardware5iokitNtB2_9IOKitImpl14parse_smc_data
FNDA:32,_RNvMsb_NtNtCslGh6CY2EcXh_14darwin_metrics8hardware5iokitNtB5_9MockIOKit3new
FNDA:5,_RNvMsd_NtNtCslGh6CY2EcXh_14darwin_metrics8hardware5iokitNtB5_9MockIOKit18expect_get_service
FNDA:2,_RNvMsd_NtNtCslGh6CY2EcXh_14darwin_metrics8hardware5iokitNtB5_9MockIOKit19expect_get_all_fans
FNDA:4,_RNvMsd_NtNtCslGh6CY2EcXh_14darwin_metrics8hardware5iokitNtB5_9MockIOKit19expect_get_fan_info
FNDA:1,_RNvMsd_NtNtCslGh6CY2EcXh_14darwin_metrics8hardware5iokitNtB5_9MockIOKit19expect_read_smc_key
FNDA:1,_RNvMsd_NtNtCslGh6CY2EcXh_14darwin_metrics8hardware5iokitNtB5_9MockIOKit20expect_get_cpu_power
FNDA:3,_RNvMsd_NtNtCslGh6CY2EcXh_14darwin_metrics8hardware5iokitNtB5_9MockIOKit20expect_get_fan_count
FNDA:1,_RNvMsd_NtNtCslGh6CY2EcXh_14darwin_metrics8hardware5iokitNtB5_9MockIOKit20expect_get_fan_speed
FNDA:1,_RNvMsd_NtNtCslGh6CY2EcXh_14darwin_metrics8hardware5iokitNtB5_9MockIOKit20expect_get_gpu_stats
FNDA:2,_RNvMsd_NtNtCslGh6CY2EcXh_14darwin_metrics8hardware5iokitNtB5_9MockIOKit23expect_get_thermal_info
FNDA:1,_RNvMsd_NtNtCslGh6CY2EcXh_14darwin_metrics8hardware5iokitNtB5_9MockIOKit24expect_get_bool_property
FNDA:1,_RNvMsd_NtNtCslGh6CY2EcXh_14darwin_metrics8hardware5iokitNtB5_9MockIOKit24expect_get_dict_property
FNDA:5,_RNvMsd_NtNtCslGh6CY2EcXh_14darwin_metrics8hardware5iokitNtB5_9MockIOKit26expect_get_cpu_temperature
FNDA:1,_RNvMsd_NtNtCslGh6CY2EcXh_14darwin_metrics8hardware5iokitNtB5_9MockIOKit26expect_get_gpu_temperature
FNDA:1,_RNvMsd_NtNtCslGh6CY2EcXh_14darwin_metrics8hardware5iokitNtB5_9MockIOKit26expect_get_number_property
FNDA:1,_RNvMsd_NtNtCslGh6CY2EcXh_14darwin_metrics8hardware5iokitNtB5_9MockIOKit26expect_get_string_property
FNDA:1,_RNvMsd_NtNtCslGh6CY2EcXh_14darwin_metrics8hardware5iokitNtB5_9MockIOKit26expect_io_service_matching
FNDA:1,_RNvMsd_NtNtCslGh6CY2EcXh_14darwin_metrics8hardware5iokitNtB5_9MockIOKit30expect_get_ambient_temperature
FNDA:1,_RNvMsd_NtNtCslGh6CY2EcXh_14darwin_metrics8hardware5iokitNtB5_9MockIOKit30expect_get_battery_temperature
FNDA:2,_RNvMsd_NtNtCslGh6CY2EcXh_14darwin_metrics8hardware5iokitNtB5_9MockIOKit31expect_check_thermal_throttling
FNDA:1,_RNvMsd_NtNtCslGh6CY2EcXh_14darwin_metrics8hardware5iokitNtB5_9MockIOKit31expect_get_heatsink_temperature
FNDA:1,_RNvMsd_NtNtCslGh6CY2EcXh_14darwin_metrics8hardware5iokitNtB5_9MockIOKit35expect_io_registry_entry_get_parent
FNDA:1,_RNvMsd_NtNtCslGh6CY2EcXh_14darwin_metrics8hardware5iokitNtB5_9MockIOKit38expect_io_service_get_matching_service
FNDA:1,_RNvMsd_NtNtCslGh6CY2EcXh_14darwin_metrics8hardware5iokitNtB5_9MockIOKit45expect_io_registry_entry_create_cf_properties
FNDA:0,_RNvXs7_NtNtCslGh6CY2EcXh_14darwin_metrics8hardware5iokitNtB5_9MockIOKitNtNtCs4P3ALgZxGbJ_4core3fmt5Debug3fmt
FNDA:32,_RNvXs8_NtNtCslGh6CY2EcXh_14darwin_metrics8hardware5iokitNtB5_9MockIOKitNtNtCs4P3ALgZxGbJ_4core7default7Default7default
FNDA:32,_RNvXs9_NtNtCslGh6CY2EcXh_14darwin_metrics8hardware5iokitNtB5_15MockIOKit_IOKitNtNtCs4P3ALgZxGbJ_4core7default7Default7default
FNDA:1,_RNvXs_NtNtCslGh6CY2EcXh_14darwin_metrics8hardware5iokitNtB4_9IOKitImplNtB4_5IOKit11get_service
FNDA:0,_RNvXs_NtNtCslGh6CY2EcXh_14darwin_metrics8hardware5iokitNtB4_9IOKitImplNtB4_5IOKit12get_all_fans
FNDA:0,_RNvXs_NtNtCslGh6CY2EcXh_14darwin_metrics8hardware5iokitNtB4_9IOKitImplNtB4_5IOKit12get_fan_info
FNDA:0,_RNvXs_NtNtCslGh6CY2EcXh_14darwin_metrics8hardware5iokitNtB4_9IOKitImplNtB4_5IOKit12read_smc_key
FNDA:0,_RNvXs_NtNtCslGh6CY2EcXh_14darwin_metrics8hardware5iokitNtB4_9IOKitImplNtB4_5IOKit13get_cpu_power
FNDA:0,_RNvXs_NtNtCslGh6CY2EcXh_14darwin_metrics8hardware5iokitNtB4_9IOKitImplNtB4_5IOKit13get_fan_count
FNDA:0,_RNvXs_NtNtCslGh6CY2EcXh_14darwin_metrics8hardware5iokitNtB4_9IOKitImplNtB4_5IOKit13get_fan_speed
FNDA:0,_RNvXs_NtNtCslGh6CY2EcXh_14darwin_metrics8hardware5iokitNtB4_9IOKitImplNtB4_5IOKit13get_gpu_stats
FNDA:0,_RNvXs_NtNtCslGh6CY2EcXh_14darwin_metrics8hardware5iokitNtB4_9IOKitImplNtB4_5IOKit16get_thermal_info
FNDA:0,_RNvXs_NtNtCslGh6CY2EcXh_14darwin_metrics8hardware5iokitNtB4_9IOKitImplNtB4_5IOKit17get_bool_property
FNDA:0,_RNvXs_NtNtCslGh6CY2EcXh_14darwin_metrics8hardware5iokitNtB4_9IOKitImplNtB4_5IOKit17get_dict_property
FNDA:0,_RNvXs_NtNtCslGh6CY2EcXh_14darwin_metrics8hardware5iokitNtB4_9IOKitImplNtB4_5IOKit17io_object_release
FNDA:0,_RNvXs_NtNtCslGh6CY2EcXh_14darwin_metrics8hardware5iokitNtB4_9IOKitImplNtB4_5IOKit19get_cpu_temperature
FNDA:0,_RNvXs_NtNtCslGh6CY2EcXh_14darwin_metrics8hardware5iokitNtB4_9IOKitImplNtB4_5IOKit19get_gpu_temperature
FNDA:0,_RNvXs_NtNtCslGh6CY2EcXh_14darwin_metrics8hardware5iokitNtB4_9IOKitImplNtB4_5IOKit19get_number_property
FNDA:0,_RNvXs_NtNtCslGh6CY2EcXh_14darwin_metrics8hardware5iokitNtB4_9IOKitImplNtB4_5IOKit19get_string_property
FNDA:0,_RNvXs_NtNtCslGh6CY2EcXh_14darwin_metrics8hardware5iokitNtB4_9IOKitImplNtB4_5IOKit19io_service_matching
FNDA:0,_RNvXs_NtNtCslGh6CY2EcXh_14darwin_metrics8hardware5iokitNtB4_9IOKitImplNtB4_5IOKit23get_ambient_temperature
FNDA:0,_RNvXs_NtNtCslGh6CY2EcXh_14darwin_metrics8hardware5iokitNtB4_9IOKitImplNtB4_5IOKit23get_battery_temperature
FNDA:0,_RNvXs_NtNtCslGh6CY2EcXh_14darwin_metrics8hardware5iokitNtB4_9IOKitImplNtB4_5IOKit24check_thermal_throttling
FNDA:0,_RNvXs_NtNtCslGh6CY2EcXh_14darwin_metrics8hardware5iokitNtB4_9IOKitImplNtB4_5IOKit24get_heatsink_temperature
FNDA:0,_RNvXs_NtNtCslGh6CY2EcXh_14darwin_metrics8hardware5iokitNtB4_9IOKitImplNtB4_5IOKit28io_registry_entry_get_parent
FNDA:0,_RNvXs_NtNtCslGh6CY2EcXh_14darwin_metrics8hardware5iokitNtB4_9IOKitImplNtB4_5IOKit31io_service_get_matching_service
FNDA:0,_RNvXs_NtNtCslGh6CY2EcXh_14darwin_metrics8hardware5iokitNtB4_9IOKitImplNtB4_5IOKit38io_registry_entry_create_cf_properties
FNDA:0,_RNCNvMs0_NtNtNtNtCslGh6CY2EcXh_14darwin_metrics8hardware5iokit22___mock_MockIOKit_IOKit21___io_service_matchingNtB7_7Matcher7matches0Bf_
FNDA:1,_RNCNvMsa_NtNtNtNtCslGh6CY2EcXh_14darwin_metrics8hardware5iokit22___mock_MockIOKit_IOKit21___io_service_matchingNtB7_12Expectations4calls_0Bf_
FNDA:1,_RNvMs4_NtNtNtNtCslGh6CY2EcXh_14darwin_metrics8hardware5iokit22___mock_MockIOKit_IOKit21___io_service_matchingNtB5_6Common7is_done
FNDA:1,_RNvMs4_NtNtNtNtCslGh6CY2EcXh_14darwin_metrics8hardware5iokit22___mock_MockIOKit_IOKit21___io_service_matchingNtB5_6Common7matches
FNDA:1,_RNvMs6_NtNtNtNtCslGh6CY2EcXh_14darwin_metrics8hardware5iokit22___mock_MockIOKit_IOKit21___io_service_matchingNtB5_11Expectation7is_done
FNDA:1,_RNvMs6_NtNtNtNtCslGh6CY2EcXh_14darwin_metrics8hardware5iokit22___mock_MockIOKit_IOKit21___io_service_matchingNtB5_11Expectation7matches
FNDA:32,_RNvMs8_NtNtNtNtCslGh6CY2EcXh_14darwin_metrics8hardware5iokit22___mock_MockIOKit_IOKit21___io_service_matchingNtB5_12Expectations3new
FNDA:1,_RNvMs8_NtNtNtNtCslGh6CY2EcXh_14darwin_metrics8hardware5iokit22___mock_MockIOKit_IOKit21___io_service_matchingNtB5_12Expectations6expect
FNDA:1,_RNvXs1_NtNtNtNtCslGh6CY2EcXh_14darwin_metrics8hardware5iokit22___mock_MockIOKit_IOKit21___io_service_matchingNtB5_7MatcherNtNtCs4P3ALgZxGbJ_4core7default7Default7default
FNDA:1,_RNvXs3_NtNtNtNtCslGh6CY2EcXh_14darwin_metrics8hardware5iokit22___mock_MockIOKit_IOKit21___io_service_matchingNtB5_6CommonNtNtCs4P3ALgZxGbJ_4core7default7Default7default
FNDA:1,_RNvXs7_NtNtNtNtCslGh6CY2EcXh_14darwin_metrics8hardware5iokit22___mock_MockIOKit_IOKit21___io_service_matchingNtB5_11ExpectationNtNtCs4P3ALgZxGbJ_4core7default7Default7default
FNDA:32,_RNvXs9_NtNtNtNtCslGh6CY2EcXh_14darwin_metrics8hardware5iokit22___mock_MockIOKit_IOKit21___io_service_matchingNtB5_12ExpectationsNtNtCs4P3ALgZxGbJ_4core7default7Default7default
FNDA:1,_RNvXs_NtNtNtNtCslGh6CY2EcXh_14darwin_metrics8hardware5iokit22___mock_MockIOKit_IOKit21___io_service_matchingNtB4_5RfuncNtNtCs4P3ALgZxGbJ_4core7default7Default7default
FNDA:1,_RINvMs6_NtNtNtNtCslGh6CY2EcXh_14darwin_metrics8hardware5iokit22___mock_MockIOKit_IOKit15___get_cpu_powerNtB6_11Expectation9returningNCNvNtBa_5testss_18test_get_cpu_power0EBe_
FNDA:1,_RNCNvNtNtNtCslGh6CY2EcXh_14darwin_metrics8hardware5iokit5testss_18test_get_cpu_power0B9_
FNDA:1,_RINvMs6_NtNtNtNtCslGh6CY2EcXh_14darwin_metrics8hardware5iokit22___mock_MockIOKit_IOKit15___get_fan_countNtB6_11Expectation9returningNCNvNtBa_5testss_18test_get_fan_count0EBe_
FNDA:1,_RINvMs6_NtNtNtNtCslGh6CY2EcXh_14darwin_metrics8hardware5iokit22___mock_MockIOKit_IOKit15___get_fan_countNtB6_11Expectation9returningNCNvNtBa_5testss_23test_get_all_fans_empty0EBe_
FNDA:1,_RINvMs6_NtNtNtNtCslGh6CY2EcXh_14darwin_metrics8hardware5iokit22___mock_MockIOKit_IOKit15___get_fan_countNtB6_11Expectation9returningNCNvNtBa_5testss_33test_get_all_fans_partial_failure0EBe_
FNDA:1,_RNCNvNtNtNtCslGh6CY2EcXh_14darwin_metrics8hardware5iokit5testss_18test_get_fan_count0B9_
FNDA:0,_RNCNvNtNtNtCslGh6CY2EcXh_14darwin_metrics8hardware5iokit5testss_23test_get_all_fans_empty0B9_
FNDA:1,_RNCNvNtNtNtCslGh6CY2EcXh_14darwin_metrics8hardware5iokit5testss_33test_get_all_fans_partial_failure0B9_
FNDA:0,_RNCNvMs0_NtNtNtNtCslGh6CY2EcXh_14darwin_metrics8hardware5iokit22___mock_MockIOKit_IOKit25___get_ambient_temperatureNtB7_7Matcher7matches0Bf_
FNDA:1,_RNCNvMsa_NtNtNtNtCslGh6CY2EcXh_14darwin_metrics8hardware5iokit22___mock_MockIOKit_IOKit25___get_ambient_temperatureNtB7_12Expectations4calls_0Bf_
FNDA:1,_RNvMs4_NtNtNtNtCslGh6CY2EcXh_14darwin_metrics8hardware5iokit22___mock_MockIOKit_IOKit25___get_ambient_temperatureNtB5_6Common7is_done
FNDA:1,_RNvMs4_NtNtNtNtCslGh6CY2EcXh_14darwin_metrics8hardware5iokit22___mock_MockIOKit_IOKit25___get_ambient_temperatureNtB5_6Common7matches
FNDA:1,_RNvMs6_NtNtNtNtCslGh6CY2EcXh_14darwin_metrics8hardware5iokit22___mock_MockIOKit_IOKit25___get_ambient_temperatureNtB5_11Expectation7is_done
FNDA:1,_RNvMs6_NtNtNtNtCslGh6CY2EcXh_14darwin_metrics8hardware5iokit22___mock_MockIOKit_IOKit25___get_ambient_temperatureNtB5_11Expectation7matches
FNDA:32,_RNvMs8_NtNtNtNtCslGh6CY2EcXh_14darwin_metrics8hardware5iokit22___mock_MockIOKit_IOKit25___get_ambient_temperatureNtB5_12Expectations3new
FNDA:1,_RNvMs8_NtNtNtNtCslGh6CY2EcXh_14darwin_metrics8hardware5iokit22___mock_MockIOKit_IOKit25___get_ambient_temperatureNtB5_12Expectations6expect
FNDA:1,_RNvXs1_NtNtNtNtCslGh6CY2EcXh_14darwin_metrics8hardware5iokit22___mock_MockIOKit_IOKit25___get_ambient_temperatureNtB5_7MatcherNtNtCs4P3ALgZxGbJ_4core7default7Default7default
FNDA:1,_RNvXs3_NtNtNtNtCslGh6CY2EcXh_14darwin_metrics8hardware5iokit22___mock_MockIOKit_IOKit25___get_ambient_temperatureNtB5_6CommonNtNtCs4P3ALgZxGbJ_4core7default7Default7default
FNDA:1,_RNvXs7_NtNtNtNtCslGh6CY2EcXh_14darwin_metrics8hardware5iokit22___mock_MockIOKit_IOKit25___get_ambient_temperatureNtB5_11ExpectationNtNtCs4P3ALgZxGbJ_4core7default7Default7default
FNDA:32,_RNvXs9_NtNtNtNtCslGh6CY2EcXh_14darwin_metrics8hardware5iokit22___mock_MockIOKit_IOKit25___get_ambient_temperatureNtB5_12ExpectationsNtNtCs4P3ALgZxGbJ_4core7default7Default7default
FNDA:1,_RNvXs_NtNtNtNtCslGh6CY2EcXh_14darwin_metrics8hardware5iokit22___mock_MockIOKit_IOKit25___get_ambient_temperatureNtB4_5RfuncNtNtCs4P3ALgZxGbJ_4core7default7Default7default
FNDA:0,_RNCNvMs0_NtNtNtNtCslGh6CY2EcXh_14darwin_metrics8hardware5iokit22___mock_MockIOKit_IOKit15___get_fan_speedNtB7_7Matcher7matches0Bf_
FNDA:1,_RNCNvMsa_NtNtNtNtCslGh6CY2EcXh_14darwin_metrics8hardware5iokit22___mock_MockIOKit_IOKit15___get_fan_speedNtB7_12Expectations4calls_0Bf_
FNDA:1,_RNvMs4_NtNtNtNtCslGh6CY2EcXh_14darwin_metrics8hardware5iokit22___mock_MockIOKit_IOKit15___get_fan_speedNtB5_6Common7is_done
FNDA:1,_RNvMs4_NtNtNtNtCslGh6CY2EcXh_14darwin_metrics8hardware5iokit22___mock_MockIOKit_IOKit15___get_fan_speedNtB5_6Common7matches
FNDA:1,_RNvMs6_NtNtNtNtCslGh6CY2EcXh_14darwin_metrics8hardware5iokit22___mock_MockIOKit_IOKit15___get_fan_speedNtB5_11Expectation7is_done
FNDA:1,_RNvMs6_NtNtNtNtCslGh6CY2EcXh_14darwin_metrics8hardware5iokit22___mock_MockIOKit_IOKit15___get_fan_speedNtB5_11Expectation7matches
FNDA:32,_RNvMs8_NtNtNtNtCslGh6CY2EcXh_14darwin_metrics8hardware5iokit22___mock_MockIOKit_IOKit15___get_fan_speedNtB5_12Expectations3new
FNDA:1,_RNvMs8_NtNtNtNtCslGh6CY2EcXh_14darwin_metrics8hardware5iokit22___mock_MockIOKit_IOKit15___get_fan_speedNtB5_12Expectations6expect
FNDA:1,_RNvXs1_NtNtNtNtCslGh6CY2EcXh_14darwin_metrics8hardware5iokit22___mock_MockIOKit_IOKit15___get_fan_speedNtB5_7MatcherNtNtCs4P3ALgZxGbJ_4core7default7Default7default
FNDA:1,_RNvXs3_NtNtNtNtCslGh6CY2EcXh_14darwin_metrics8hardware5iokit22___mock_MockIOKit_IOKit15___get_fan_speedNtB5_6CommonNtNtCs4P3ALgZxGbJ_4core7default7Default7default
FNDA:1,_RNvXs7_NtNtNtNtCslGh6CY2EcXh_14darwin_metrics8hardware5iokit22___mock_MockIOKit_IOKit15___get_fan_speedNtB5_11ExpectationNtNtCs4P3ALgZxGbJ_4core7default7Default7default
FNDA:32,_RNvXs9_NtNtNtNtCslGh6CY2EcXh_14darwin_metrics8hardware5iokit22___mock_MockIOKit_IOKit15___get_fan_speedNtB5_12ExpectationsNtNtCs4P3ALgZxGbJ_4core7default7Default7default
FNDA:1,_RNvXs_NtNtNtNtCslGh6CY2EcXh_14darwin_metrics8hardware5iokit22___mock_MockIOKit_IOKit15___get_fan_speedNtB4_5RfuncNtNtCs4P3ALgZxGbJ_4core7default7Default7default
FNDA:1,_RINvMs6_NtNtNtNtCslGh6CY2EcXh_14darwin_metrics8hardware5iokit22___mock_MockIOKit_IOKit26___check_thermal_throttlingNtB6_11Expectation9returningNCNvNtBa_5testss_29test_check_thermal_throttling0EBe_
FNDA:1,_RINvMs6_NtNtNtNtCslGh6CY2EcXh_14darwin_metrics8hardware5iokit22___mock_MockIOKit_IOKit26___check_thermal_throttlingNtB6_11Expectation9returningNCNvNtBa_5testss_29test_check_thermal_throttlings_0EBe_
FNDA:1,_RNCNvNtNtNtCslGh6CY2EcXh_14darwin_metrics8hardware5iokit5testss_29test_check_thermal_throttling0B9_
FNDA:1,_RNCNvNtNtNtCslGh6CY2EcXh_14darwin_metrics8hardware5iokit5testss_29test_check_thermal_throttlings_0B9_
FNDA:4,_RINvMs6_NtNtNtNtCslGh6CY2EcXh_14darwin_metrics8hardware5iokit22___mock_MockIOKit_IOKit21___get_cpu_temperatureNtB6_11Expectation9returningNCNvMNtNtNtBc_3cpu8cpu_impl5testsNtB2j_3CPU13new_with_mock0EBe_
FNDA:1,_RINvMs6_NtNtNtNtCslGh6CY2EcXh_14darwin_metrics8hardware5iokit22___mock_MockIOKit_IOKit21___get_cpu_temperatureNtB6_11Expectation9returningNCNvNtBa_5testss_24test_get_cpu_temperature0EBe_
FNDA:1,_RNCNvNtNtNtCslGh6CY2EcXh_14darwin_metrics8hardware5iokit5testss_24test_get_cpu_temperature0B9_
FNDA:1,_RINvMs6_NtNtNtNtCslGh6CY2EcXh_14darwin_metrics8hardware5iokit22___mock_MockIOKit_IOKit40___io_registry_entry_create_cf_propertiesNtB6_11Expectation9returningNCNvNtBa_5testss_43test_io_registry_entry_create_cf_properties0EBe_
FNDA:1,_RNCNvNtNtNtCslGh6CY2EcXh_14darwin_metrics8hardware5iokit5testss_43test_io_registry_entry_create_cf_properties0B9_
FNDA:1,_RINvMs6_NtNtNtNtCslGh6CY2EcXh_14darwin_metrics8hardware5iokit22___mock_MockIOKit_IOKit21___get_gpu_temperatureNtB6_11Expectation9returningNCNvNtBa_5testss_24test_get_gpu_temperature0EBe_
FNDA:1,_RNCNvNtNtNtCslGh6CY2EcXh_14darwin_metrics8hardware5iokit5testss_24test_get_gpu_temperature0B9_
FNDA:0,_RNCNvMs0_NtNtNtNtCslGh6CY2EcXh_14darwin_metrics8hardware5iokit22___mock_MockIOKit_IOKit30___io_registry_entry_get_parentNtB7_7Matcher7matches0Bf_
FNDA:1,_RNCNvMsa_NtNtNtNtCslGh6CY2EcXh_14darwin_metrics8hardware5iokit22___mock_MockIOKit_IOKit30___io_registry_entry_get_parentNtB7_12Expectations4calls_0Bf_
FNDA:1,_RNvMs4_NtNtNtNtCslGh6CY2EcXh_14darwin_metrics8hardware5iokit22___mock_MockIOKit_IOKit30___io_registry_entry_get_parentNtB5_6Common7is_done
FNDA:1,_RNvMs4_NtNtNtNtCslGh6CY2EcXh_14darwin_metrics8hardware5iokit22___mock_MockIOKit_IOKit30___io_registry_entry_get_parentNtB5_6Common7matches
FNDA:1,_RNvMs6_NtNtNtNtCslGh6CY2EcXh_14darwin_metrics8hardware5iokit22___mock_MockIOKit_IOKit30___io_registry_entry_get_parentNtB5_11Expectation7is_done
FNDA:1,_RNvMs6_NtNtNtNtCslGh6CY2EcXh_14darwin_metrics8hardware5iokit22___mock_MockIOKit_IOKit30___io_registry_entry_get_parentNtB5_11Expectation7matches
FNDA:32,_RNvMs8_NtNtNtNtCslGh6CY2EcXh_14darwin_metrics8hardware5iokit22___mock_MockIOKit_IOKit30___io_registry_entry_get_parentNtB5_12Expectations3new
FNDA:1,_RNvMs8_NtNtNtNtCslGh6CY2EcXh_14darwin_metrics8hardware5iokit22___mock_MockIOKit_IOKit30___io_registry_entry_get_parentNtB5_12Expectations6expect
FNDA:1,_RNvXs1_NtNtNtNtCslGh6CY2EcXh_14darwin_metrics8hardware5iokit22___mock_MockIOKit_IOKit30___io_registry_entry_get_parentNtB5_7MatcherNtNtCs4P3ALgZxGbJ_4core7default7Default7default
FNDA:1,_RNvXs3_NtNtNtNtCslGh6CY2EcXh_14darwin_metrics8hardware5iokit22___mock_MockIOKit_IOKit30___io_registry_entry_get_parentNtB5_6CommonNtNtCs4P3ALgZxGbJ_4core7default7Default7default
FNDA:1,_RNvXs7_NtNtNtNtCslGh6CY2EcXh_14darwin_metrics8hardware5iokit22___mock_MockIOKit_IOKit30___io_registry_entry_get_parentNtB5_11ExpectationNtNtCs4P3ALgZxGbJ_4core7default7Default7default
FNDA:32,_RNvXs9_NtNtNtNtCslGh6CY2EcXh_14darwin_metrics8hardware5iokit22___mock_MockIOKit_IOKit30___io_registry_entry_get_parentNtB5_12ExpectationsNtNtCs4P3ALgZxGbJ_4core7default7Default7default
FNDA:1,_RNvXs_NtNtNtNtCslGh6CY2EcXh_14darwin_metrics8hardware5iokit22___mock_MockIOKit_IOKit30___io_registry_entry_get_parentNtB4_5RfuncNtNtCs4P3ALgZxGbJ_4core7default7Default7default
FNDA:0,_RNCNvMs0_NtNtNtNtCslGh6CY2EcXh_14darwin_metrics8hardware5iokit22___mock_MockIOKit_IOKit15___get_gpu_statsNtB7_7Matcher7matches0Bf_
FNDA:1,_RNCNvMsa_NtNtNtNtCslGh6CY2EcXh_14darwin_metrics8hardware5iokit22___mock_MockIOKit_IOKit15___get_gpu_statsNtB7_12Expectations4calls_0Bf_
FNDA:1,_RNvMs4_NtNtNtNtCslGh6CY2EcXh_14darwin_metrics8hardware5iokit22___mock_MockIOKit_IOKit15___get_gpu_statsNtB5_6Common7is_done
FNDA:1,_RNvMs4_NtNtNtNtCslGh6CY2EcXh_14darwin_metrics8hardware5iokit22___mock_MockIOKit_IOKit15___get_gpu_statsNtB5_6Common7matches
FNDA:1,_RNvMs6_NtNtNtNtCslGh6CY2EcXh_14darwin_metrics8hardware5iokit22___mock_MockIOKit_IOKit15___get_gpu_statsNtB5_11Expectation7is_done
FNDA:1,_RNvMs6_NtNtNtNtCslGh6CY2EcXh_14darwin_metrics8hardware5iokit22___mock_MockIOKit_IOKit15___get_gpu_statsNtB5_11Expectation7matches
FNDA:32,_RNvMs8_NtNtNtNtCslGh6CY2EcXh_14darwin_metrics8hardware5iokit22___mock_MockIOKit_IOKit15___get_gpu_statsNtB5_12Expectations3new
FNDA:1,_RNvMs8_NtNtNtNtCslGh6CY2EcXh_14darwin_metrics8hardware5iokit22___mock_MockIOKit_IOKit15___get_gpu_statsNtB5_12Expectations6expect
FNDA:1,_RNvXs1_NtNtNtNtCslGh6CY2EcXh_14darwin_metrics8hardware5iokit22___mock_MockIOKit_IOKit15___get_gpu_statsNtB5_7MatcherNtNtCs4P3ALgZxGbJ_4core7default7Default7default
FNDA:1,_RNvXs3_NtNtNtNtCslGh6CY2EcXh_14darwin_metrics8hardware5iokit22___mock_MockIOKit_IOKit15___get_gpu_statsNtB5_6CommonNtNtCs4P3ALgZxGbJ_4core7default7Default7default
FNDA:1,_RNvXs7_NtNtNtNtCslGh6CY2EcXh_14darwin_metrics8hardware5iokit22___mock_MockIOKit_IOKit15___get_gpu_statsNtB5_11ExpectationNtNtCs4P3ALgZxGbJ_4core7default7Default7default
FNDA:32,_RNvXs9_NtNtNtNtCslGh6CY2EcXh_14darwin_metrics8hardware5iokit22___mock_MockIOKit_IOKit15___get_gpu_statsNtB5_12ExpectationsNtNtCs4P3ALgZxGbJ_4core7default7Default7default
FNDA:1,_RNvXs_NtNtNtNtCslGh6CY2EcXh_14darwin_metrics8hardware5iokit22___mock_MockIOKit_IOKit15___get_gpu_statsNtB4_5RfuncNtNtCs4P3ALgZxGbJ_4core7default7Default7default
FNDA:1,_RINvMs6_NtNtNtNtCslGh6CY2EcXh_14darwin_metrics8hardware5iokit22___mock_MockIOKit_IOKit21___get_number_propertyNtB6_11Expectation9returningNCNvNtBa_5testss_24test_get_number_property0EBe_
FNDA:2,_RNCNvNtNtNtCslGh6CY2EcXh_14darwin_metrics8hardware5iokit5testss_24test_get_number_property0B9_
FNDA:0,_RNCNCNvXs_NtNtCsGBPSOZydBW_14darwin_metrics8hardware5iokitNtB8_9IOKitImplNtB8_5IOKit13get_gpu_stats00Bc_
FNDA:0,_RNCNCNvXs_NtNtCsGBPSOZydBW_14darwin_metrics8hardware5iokitNtB8_9IOKitImplNtB8_5IOKit38io_registry_entry_create_cf_properties00Bc_
FNDA:0,_RNCNvXs_NtNtCsGBPSOZydBW_14darwin_metrics8hardware5iokitNtB6_9IOKitImplNtB6_5IOKit13get_gpu_stats0Ba_
FNDA:0,_RNCNvXs_NtNtCsGBPSOZydBW_14darwin_metrics8hardware5iokitNtB6_9IOKitImplNtB6_5IOKit17get_bool_property0Ba_
FNDA:0,_RNCNvXs_NtNtCsGBPSOZydBW_14darwin_metrics8hardware5iokitNtB6_9IOKitImplNtB6_5IOKit17get_bool_propertys_0Ba_
FNDA:0,_RNCNvXs_NtNtCsGBPSOZydBW_14darwin_metrics8hardware5iokitNtB6_9IOKitImplNtB6_5IOKit19get_number_property0Ba_
FNDA:0,_RNCNvXs_NtNtCsGBPSOZydBW_14darwin_metrics8hardware5iokitNtB6_9IOKitImplNtB6_5IOKit19get_string_property0Ba_
FNDA:0,_RNCNvXs_NtNtCsGBPSOZydBW_14darwin_metrics8hardware5iokitNtB6_9IOKitImplNtB6_5IOKit19io_service_matching0Ba_
FNDA:0,_RNCNvXs_NtNtCsGBPSOZydBW_14darwin_metrics8hardware5iokitNtB6_9IOKitImplNtB6_5IOKit38io_registry_entry_create_cf_properties0Ba_
FNDA:0,_RNvMNtNtCsGBPSOZydBW_14darwin_metrics8hardware5iokitNtB2_9IOKitImpl12smc_read_key
FNDA:0,_RNvXs_NtNtCsGBPSOZydBW_14darwin_metrics8hardware5iokitNtB4_9IOKitImplNtB4_5IOKit11get_service
FNDA:0,_RNvXs_NtNtCsGBPSOZydBW_14darwin_metrics8hardware5iokitNtB4_9IOKitImplNtB4_5IOKit12get_all_fans
FNDA:0,_RNvXs_NtNtCsGBPSOZydBW_14darwin_metrics8hardware5iokitNtB4_9IOKitImplNtB4_5IOKit12get_fan_info
FNDA:0,_RNvXs_NtNtCsGBPSOZydBW_14darwin_metrics8hardware5iokitNtB4_9IOKitImplNtB4_5IOKit12read_smc_key
FNDA:0,_RNvXs_NtNtCsGBPSOZydBW_14darwin_metrics8hardware5iokitNtB4_9IOKitImplNtB4_5IOKit13get_cpu_power
FNDA:0,_RNvXs_NtNtCsGBPSOZydBW_14darwin_metrics8hardware5iokitNtB4_9IOKitImplNtB4_5IOKit13get_fan_count
FNDA:0,_RNvXs_NtNtCsGBPSOZydBW_14darwin_metrics8hardware5iokitNtB4_9IOKitImplNtB4_5IOKit13get_fan_speed
FNDA:0,_RNvXs_NtNtCsGBPSOZydBW_14darwin_metrics8hardware5iokitNtB4_9IOKitImplNtB4_5IOKit13get_gpu_stats
FNDA:0,_RNvXs_NtNtCsGBPSOZydBW_14darwin_metrics8hardware5iokitNtB4_9IOKitImplNtB4_5IOKit16get_thermal_info
FNDA:0,_RNvXs_NtNtCsGBPSOZydBW_14darwin_metrics8hardware5iokitNtB4_9IOKitImplNtB4_5IOKit17get_bool_property
FNDA:0,_RNvXs_NtNtCsGBPSOZydBW_14darwin_metrics8hardware5iokitNtB4_9IOKitImplNtB4_5IOKit17get_dict_property
FNDA:0,_RNvXs_NtNtCsGBPSOZydBW_14darwin_metrics8hardware5iokitNtB4_9IOKitImplNtB4_5IOKit17io_object_release
FNDA:0,_RNvXs_NtNtCsGBPSOZydBW_14darwin_metrics8hardware5iokitNtB4_9IOKitImplNtB4_5IOKit19get_cpu_temperature
FNDA:0,_RNvXs_NtNtCsGBPSOZydBW_14darwin_metrics8hardware5iokitNtB4_9IOKitImplNtB4_5IOKit19get_gpu_temperature
FNDA:0,_RNvXs_NtNtCsGBPSOZydBW_14darwin_metrics8hardware5iokitNtB4_9IOKitImplNtB4_5IOKit19get_number_property
FNDA:0,_RNvXs_NtNtCsGBPSOZydBW_14darwin_metrics8hardware5iokitNtB4_9IOKitImplNtB4_5IOKit19get_string_property
FNDA:0,_RNvXs_NtNtCsGBPSOZydBW_14darwin_metrics8hardware5iokitNtB4_9IOKitImplNtB4_5IOKit19io_service_matching
FNDA:0,_RNvXs_NtNtCsGBPSOZydBW_14darwin_metrics8hardware5iokitNtB4_9IOKitImplNtB4_5IOKit23get_ambient_temperature
FNDA:0,_RNvXs_NtNtCsGBPSOZydBW_14darwin_metrics8hardware5iokitNtB4_9IOKitImplNtB4_5IOKit23get_battery_temperature
FNDA:0,_RNvXs_NtNtCsGBPSOZydBW_14darwin_metrics8hardware5iokitNtB4_9IOKitImplNtB4_5IOKit24check_thermal_throttling
FNDA:0,_RNvXs_NtNtCsGBPSOZydBW_14darwin_metrics8hardware5iokitNtB4_9IOKitImplNtB4_5IOKit24get_heatsink_temperature
FNDA:0,_RNvXs_NtNtCsGBPSOZydBW_14darwin_metrics8hardware5iokitNtB4_9IOKitImplNtB4_5IOKit28io_registry_entry_get_parent
FNDA:0,_RNvXs_NtNtCsGBPSOZydBW_14darwin_metrics8hardware5iokitNtB4_9IOKitImplNtB4_5IOKit31io_service_get_matching_service
FNDA:0,_RNvXs_NtNtCsGBPSOZydBW_14darwin_metrics8hardware5iokitNtB4_9IOKitImplNtB4_5IOKit38io_registry_entry_create_cf_properties
FNF:109
FNH:76
DA:74,2093
DA:134,7
DA:135,7
DA:136,7
DA:137,7
DA:138,7
DA:139,7
DA:140,2
DA:141,5
DA:142,1
DA:143,4
DA:144,1
DA:145,3
DA:146,1
DA:147,2
DA:148,1
DA:150,1
DA:266,7
DA:271,5
DA:272,5
DA:274,1
DA:275,4
DA:276,1
DA:277,1
DA:278,1
DA:281,1
DA:282,3
DA:283,1
DA:284,1
DA:285,1
DA:288,1
DA:289,2
DA:290,1
DA:291,1
DA:292,1
DA:295,1
DA:296,1
DA:297,1
DA:298,1
DA:299,1
DA:300,1
DA:301,1
DA:302,5
DA:306,0
DA:307,0
DA:308,0
DA:309,0
DA:310,0
DA:311,0
DA:312,0
DA:313,0
DA:314,0
DA:315,0
DA:316,0
DA:317,0
DA:318,0
DA:319,0
DA:320,0
DA:321,0
DA:322,0
DA:323,0
DA:324,0
DA:326,0
DA:327,0
DA:328,0
DA:332,0
DA:333,0
DA:334,0
DA:335,0
DA:336,0
DA:337,0
DA:338,0
DA:339,0
DA:340,0
DA:341,0
DA:342,0
DA:343,0
DA:344,0
DA:345,0
DA:346,0
DA:347,0
DA:348,0
DA:349,0
DA:350,0
DA:351,0
DA:354,0
DA:355,0
DA:357,0
DA:358,0
DA:364,0
DA:365,0
DA:366,0
DA:367,0
DA:368,0
DA:369,0
DA:370,0
DA:371,0
DA:373,0
DA:374,0
DA:375,0
DA:376,0
DA:377,0
DA:378,0
DA:379,0
DA:380,0
DA:381,0
DA:382,0
DA:383,0
DA:384,0
DA:385,0
DA:386,0
DA:387,0
DA:388,0
DA:389,0
DA:390,0
DA:391,0
DA:392,0
DA:393,0
DA:394,0
DA:395,0
DA:396,0
DA:397,0
DA:398,0
DA:399,0
DA:400,0
DA:401,0
DA:402,0
DA:403,0
DA:404,0
DA:405,0
DA:406,0
DA:407,0
DA:408,0
DA:409,0
DA:410,0
DA:411,0
DA:412,0
DA:413,0
DA:414,0
DA:415,0
DA:416,0
DA:417,0
DA:419,0
DA:420,0
DA:422,0
DA:423,0
DA:424,0
DA:425,0
DA:427,0
DA:428,0
DA:429,0
DA:430,0
DA:431,0
DA:432,0
DA:433,0
DA:434,0
DA:435,0
DA:436,0
DA:437,0
DA:438,0
DA:439,0
DA:440,0
DA:441,0
DA:442,0
DA:444,0
DA:445,0
DA:447,0
DA:448,0
DA:449,0
DA:450,0
DA:451,0
DA:452,0
DA:453,0
DA:454,0
DA:456,0
DA:457,0
DA:459,0
DA:460,0
DA:461,0
DA:462,0
DA:463,0
DA:464,0
DA:465,0
DA:466,0
DA:467,0
DA:468,0
DA:469,0
DA:470,0
DA:472,0
DA:473,0
DA:474,0
DA:475,0
DA:476,0
DA:477,0
DA:478,0
DA:479,0
DA:480,0
DA:481,0
DA:482,0
DA:483,0
DA:484,0
DA:485,0
DA:486,0
DA:487,0
DA:489,0
DA:490,0
DA:492,0
DA:493,0
DA:494,0
DA:495,0
DA:496,0
DA:497,0
DA:498,0
DA:499,0
DA:501,0
DA:502,0
DA:504,0
DA:505,0
DA:506,0
DA:507,0
DA:508,0
DA:509,0
DA:510,0
DA:511,0
DA:512,0
DA:513,0
DA:514,0
DA:515,0
DA:517,0
DA:518,0
DA:519,0
DA:520,0
DA:521,0
DA:522,0
DA:523,0
DA:524,0
DA:525,0
DA:526,0
DA:527,0
DA:528,0
DA:530,0
DA:531,0
DA:532,0
DA:533,0
DA:534,0
DA:535,0
DA:537,0
DA:539,0
DA:540,0
DA:541,0
DA:542,0
DA:545,0
DA:546,0
DA:547,0
DA:548,0
DA:549,0
DA:550,0
DA:551,0
DA:552,0
DA:553,0
DA:554,0
DA:555,0
DA:556,0
DA:557,0
DA:559,0
DA:561,0
DA:566,0
DA:567,0
DA:570,0
DA:571,0
DA:572,0
DA:574,0
DA:575,0
DA:576,0
DA:577,0
DA:578,0
DA:579,0
DA:580,0
DA:581,0
DA:582,0
DA:584,0
DA:586,1
DA:587,1
DA:588,1
DA:589,1
DA:590,1
DA:593,0
DA:594,0
DA:595,0
DA:597,0
DA:598,0
DA:599,0
DA:601,0
DA:602,0
DA:603,0
DA:605,0
DA:606,0
DA:607,0
DA:609,0
DA:610,0
DA:611,0
DA:613,0
DA:614,0
DA:615,0
DA:617,0
DA:619,0
DA:620,0
DA:621,0
DA:623,0
DA:625,0
DA:628,0
DA:629,0
DA:630,0
DA:631,0
DA:632,0
DA:633,0
DA:634,0
DA:635,0
DA:636,0
DA:637,0
DA:638,0
DA:639,0
DA:640,0
DA:641,0
DA:642,0
DA:643,0
DA:644,0
DA:646,0
DA:647,0
DA:648,0
DA:649,0
DA:652,0
DA:654,0
DA:655,0
DA:656,0
DA:658,0
DA:659,0
DA:660,0
DA:661,0
DA:663,0
DA:664,0
DA:665,0
DA:666,0
DA:667,0
DA:668,0
DA:669,0
DA:670,0
DA:671,0
DA:672,0
DA:673,0
DA:674,0
DA:675,0
DA:676,0
DA:677,0
DA:678,0
DA:679,0
DA:680,0
DA:681,0
DA:682,0
DA:683,0
DA:684,0
DA:687,0
DA:688,0
DA:689,0
DA:692,0
DA:693,0
DA:695,0
DA:698,0
DA:699,0
DA:701,0
DA:702,0
DA:705,0
DA:706,0
DA:707,0
DA:708,0
DA:709,0
DA:710,0
DA:711,0
DA:714,0
DA:715,0
DA:717,0
DA:718,0
DA:719,0
DA:720,0
DA:721,0
DA:722,0
DA:723,0
DA:724,0
DA:725,0
DA:726,0
DA:727,0
DA:728,0
DA:729,0
DA:730,0
DA:731,0
DA:732,0
DA:733,0
DA:734,0
DA:735,0
DA:736,0
DA:737,0
DA:738,0
DA:739,0
DA:740,0
DA:741,0
DA:743,0
DA:744,0
DA:745,0
DA:746,0
DA:747,0
DA:748,0
DA:750,0
DA:751,0
DA:752,0
DA:753,0
DA:754,0
DA:755,0
DA:756,0
DA:757,0
DA:758,0
DA:759,0
DA:760,0
DA:761,0
DA:762,0
DA:763,0
DA:764,0
DA:765,0
DA:766,0
DA:767,0
DA:768,0
DA:769,0
DA:770,0
DA:771,0
DA:773,0
DA:776,0
DA:783,0
DA:784,0
DA:785,0
DA:786,0
DA:787,0
DA:788,0
DA:789,0
DA:790,0
DA:791,0
DA:792,0
DA:794,0
DA:795,0
DA:796,0
DA:797,0
DA:798,0
DA:800,0
DA:802,0
DA:803,0
DA:804,0
DA:805,0
DA:806,0
DA:807,0
DA:809,0
DA:810,0
DA:811,0
DA:812,0
DA:813,0
DA:814,0
DA:817,0
DA:818,0
DA:819,0
DA:820,0
DA:821,0
DA:822,0
DA:823,0
DA:824,0
DA:825,0
DA:827,0
DA:830,0
DA:836,0
DA:841,0
DA:843,0
DA:846,0
DA:847,0
DA:850,0
DA:851,0
DA:852,0
DA:853,0
DA:854,0
DA:855,0
DA:856,0
DA:857,0
DA:858,0
DA:859,0
DA:860,0
DA:861,0
DA:862,0
DA:864,0
DA:867,0
DA:871,0
DA:874,0
DA:877,0
DA:879,0
DA:880,0
DA:883,0
DA:884,0
DA:887,0
DA:888,0
DA:889,0
DA:890,0
DA:891,0
DA:893,0
DA:896,0
DA:900,0
DA:903,0
DA:906,0
DA:909,0
DA:911,0
DA:914,0
DA:915,0
DA:916,0
DA:917,0
DA:918,0
DA:919,0
DA:920,0
DA:921,0
DA:922,0
DA:923,0
DA:924,0
DA:927,0
DA:930,0
DA:933,0
DA:934,0
DA:935,0
DA:936,0
DA:937,0
DA:938,0
DA:939,0
DA:942,0
DA:943,0
DA:944,0
DA:945,0
DA:946,0
DA:948,0
DA:949,0
DA:960,1
DA:961,1
DA:962,1
DA:963,1
DA:964,1
DA:965,1
DA:966,1
DA:967,1
DA:968,1
DA:969,1
DA:970,1
DA:973,1
DA:974,1
DA:975,1
DA:976,1
DA:977,1
DA:978,1
DA:979,1
DA:980,1
DA:981,1
DA:982,1
DA:983,1
DA:984,1
DA:985,1
DA:988,1
DA:989,1
DA:990,1
DA:991,1
DA:992,1
DA:993,1
DA:994,1
DA:995,1
DA:996,1
DA:997,1
DA:998,1
DA:999,1
DA:1000,1
DA:1003,1
DA:1004,1
DA:1005,1
DA:1006,1
DA:1007,1
DA:1008,1
DA:1009,1
DA:1010,1
DA:1011,1
DA:1012,1
DA:1013,1
DA:1014,1
DA:1015,1
DA:1016,1
DA:1017,1
DA:1018,1
DA:1019,1
DA:1020,1
DA:1021,1
DA:1022,1
DA:1023,1
DA:1024,1
DA:1025,1
DA:1026,1
DA:1029,1
DA:1030,1
DA:1031,1
DA:1032,1
DA:1033,1
DA:1034,1
DA:1035,1
DA:1036,1
DA:1037,1
DA:1038,1
DA:1039,1
DA:1040,1
DA:1043,1
DA:1044,1
DA:1045,1
DA:1046,1
DA:1047,1
DA:1048,1
DA:1049,1
DA:1050,1
DA:1051,1
DA:1052,1
DA:1053,1
DA:1054,1
DA:1055,1
DA:1056,1
DA:1059,1
DA:1060,1
DA:1061,1
DA:1062,1
DA:1063,1
DA:1064,1
DA:1065,1
DA:1066,1
DA:1067,1
DA:1068,1
DA:1069,1
DA:1070,1
DA:1071,1
DA:1072,1
DA:1073,1
DA:1074,1
DA:1077,1
DA:1078,1
DA:1079,1
DA:1080,1
DA:1081,1
DA:1082,1
DA:1083,2
DA:1084,2
DA:1085,1
DA:1087,1
DA:1089,2
DA:1090,1
DA:1091,1
DA:1092,1
DA:1093,1
DA:1094,1
DA:1095,1
DA:1098,1
DA:1099,1
DA:1100,1
DA:1103,1
DA:1104,1
DA:1105,1
DA:1106,1
DA:1107,1
DA:1108,1
DA:1109,2
DA:1110,2
DA:1111,1
DA:1113,1
DA:1115,2
DA:1116,1
DA:1117,1
DA:1118,1
DA:1119,1
DA:1120,1
DA:1121,1
DA:1124,1
DA:1125,1
DA:1126,1
DA:1129,1
DA:1130,1
DA:1131,1
DA:1132,1
DA:1133,1
DA:1134,1
DA:1135,2
DA:1136,2
DA:1137,1
DA:1139,1
DA:1141,2
DA:1142,1
DA:1143,1
DA:1144,1
DA:1145,1
DA:1146,1
DA:1147,1
DA:1150,1
DA:1151,1
DA:1152,1
DA:1155,1
DA:1156,1
DA:1157,1
DA:1158,1
DA:1159,1
DA:1160,1
DA:1161,2
DA:1162,2
DA:1163,1
DA:1165,1
DA:1167,2
DA:1168,1
DA:1169,1
DA:1170,1
DA:1171,1
DA:1172,1
DA:1173,1
DA:1176,1
DA:1177,1
DA:1178,1
DA:1181,1
DA:1182,1
DA:1183,1
DA:1184,1
DA:1185,1
DA:1186,1
DA:1187,1
DA:1188,1
DA:1189,1
DA:1190,1
DA:1191,1
DA:1192,1
DA:1193,1
DA:1194,1
DA:1195,1
DA:1196,1
DA:1197,1
DA:1198,1
DA:1199,1
DA:1200,1
DA:1201,1
DA:1202,1
DA:1203,1
DA:1204,1
DA:1205,1
DA:1206,1
DA:1207,1
DA:1208,1
DA:1209,1
DA:1212,1
DA:1213,1
DA:1214,1
DA:1215,1
DA:1216,1
DA:1217,1
DA:1218,1
DA:1219,1
DA:1220,1
DA:1221,1
DA:1222,1
DA:1223,1
DA:1224,1
DA:1225,1
DA:1226,1
DA:1227,1
DA:1228,1
DA:1229,1
DA:1230,1
DA:1231,1
DA:1232,1
DA:1233,1
DA:1234,1
DA:1235,1
DA:1236,1
DA:1237,1
DA:1238,1
DA:1241,1
DA:1242,1
DA:1243,1
DA:1244,1
DA:1245,1
DA:1246,1
DA:1249,1
DA:1250,1
DA:1251,1
DA:1252,1
DA:1253,1
DA:1254,1
DA:1255,1
DA:1256,1
DA:1257,1
DA:1258,1
DA:1259,1
DA:1260,1
DA:1261,1
DA:1262,1
DA:1263,1
DA:1264,1
DA:1265,1
DA:1266,1
DA:1269,1
DA:1270,1
DA:1271,1
DA:1272,1
DA:1273,1
DA:1274,1
DA:1275,1
DA:1276,1
DA:1277,1
DA:1278,1
DA:1279,1
DA:1280,1
DA:1281,1
DA:1282,1
DA:1283,1
DA:1284,1
DA:1285,1
DA:1286,1
DA:1287,1
DA:1288,1
DA:1289,1
DA:1290,1
DA:1291,1
DA:1292,1
DA:1295,1
DA:1296,1
DA:1297,1
DA:1298,1
DA:1299,1
DA:1300,1
DA:1301,1
DA:1302,1
DA:1303,1
DA:1304,1
DA:1305,1
DA:1306,1
DA:1307,1
DA:1308,1
DA:1311,1
DA:1312,1
DA:1313,1
DA:1314,1
DA:1315,1
DA:1316,1
DA:1317,1
DA:1318,1
DA:1319,1
DA:1320,1
DA:1321,1
DA:1322,1
DA:1323,1
DA:1326,1
DA:1327,1
DA:1328,1
DA:1329,1
DA:1330,1
DA:1331,1
DA:1332,1
DA:1333,1
DA:1334,1
DA:1335,1
DA:1336,1
DA:1337,1
DA:1338,1
DA:1339,1
DA:1340,1
DA:1342,0
DA:1344,1
DA:1347,1
DA:1348,1
DA:1349,1
DA:1350,1
DA:1351,1
DA:1352,1
DA:1353,1
DA:1354,1
DA:1355,1
DA:1356,1
DA:1357,1
DA:1358,1
DA:1359,1
DA:1362,1
DA:1363,1
DA:1364,1
DA:1365,1
DA:1366,1
DA:1367,1
DA:1368,1
DA:1369,1
DA:1370,1
DA:1371,1
DA:1372,1
DA:1373,1
DA:1374,1
DA:1377,1
DA:1378,1
DA:1379,1
DA:1380,1
DA:1381,1
DA:1382,1
DA:1383,1
DA:1384,1
DA:1385,1
DA:1386,1
DA:1387,1
DA:1388,1
DA:1389,1
DA:1392,1
DA:1393,1
DA:1394,1
DA:1395,1
DA:1396,1
DA:1397,1
DA:1398,1
DA:1399,1
DA:1400,1
DA:1401,1
DA:1402,1
DA:1403,1
DA:1404,1
DA:1407,1
DA:1408,1
DA:1409,1
DA:1410,1
DA:1411,1
DA:1412,1
DA:1413,1
DA:1414,1
DA:1415,1
DA:1416,1
DA:1417,1
DA:1418,1
DA:1421,1
DA:1422,1
DA:1423,1
DA:1424,1
DA:1425,1
DA:1426,1
DA:1427,1
DA:1430,1
DA:1431,1
DA:1432,1
DA:1433,1
DA:1434,1
DA:1435,1
DA:1436,1
DA:1437,1
DA:1438,1
DA:1439,1
DA:1440,1
DA:1441,1
DA:1442,1
DA:1443,1
DA:1446,1
DA:1447,1
DA:1448,1
DA:1449,1
DA:1450,1
DA:1451,1
DA:1452,1
DA:1453,1
DA:1454,1
DA:1455,1
DA:1456,1
DA:1457,1
DA:1458,1
DA:1461,1
DA:1462,1
DA:1463,1
DA:1464,1
DA:1465,1
DA:1466,1
DA:1467,1
DA:1468,1
DA:1469,1
DA:1470,1
DA:1471,1
DA:1472,1
DA:1473,1
DA:1476,1
DA:1477,1
DA:1478,1
DA:1479,1
DA:1480,1
DA:1481,1
DA:1482,1
DA:1483,1
DA:1484,1
DA:1485,1
DA:1486,1
DA:1487,1
DA:1488,1
DA:1489,1
DA:1490,1
DA:1491,1
DA:1492,1
DA:1493,1
DA:1494,1
DA:1495,1
DA:1498,1
DA:1499,1
DA:1500,1
DA:1501,1
DA:1502,1
DA:1503,1
DA:1504,1
DA:1505,1
DA:1506,1
DA:1507,1
DA:1508,1
DA:1509,1
DA:1510,1
DA:1511,1
DA:1512,1
DA:1515,1
DA:1516,1
DA:1517,1
DA:1518,1
DA:1519,1
DA:1520,1
DA:1521,1
DA:1522,1
DA:1523,1
DA:1524,1
DA:1525,1
DA:1526,1
DA:1527,1
DA:1528,1
DA:1529,1
DA:1530,1
DA:1533,1
DA:1534,1
DA:1535,1
DA:1536,1
DA:1537,1
DA:1538,2
DA:1539,2
DA:1540,1
DA:1541,1
DA:1544,1
DA:1545,1
DA:1546,1
DA:1547,1
DA:1548,1
DA:1549,1
DA:1550,1
DA:1551,1
DA:1554,1
DA:1555,1
DA:1556,1
DA:1557,1
DA:1558,1
DA:1559,1
DA:1560,1
DA:1563,1
DA:1564,1
DA:1565,1
DA:1566,1
DA:1569,1
DA:1570,1
DA:1571,1
DA:1572,1
DA:1573,1
DA:1574,1
DA:1575,1
DA:1576,1
DA:1577,1
DA:1578,1
DA:1579,1
DA:1580,1
DA:1581,1
DA:1582,1
DA:1583,1
DA:1584,1
DA:1585,1
DA:1586,1
DA:1587,1
DA:1588,1
DA:1589,1
DA:1592,1
DA:1593,1
DA:1594,1
DA:1595,1
DA:1596,1
DA:1597,1
DA:1598,1
DA:1601,1
DA:1602,1
DA:1603,1
DA:1606,1
DA:1607,1
DA:1608,1
DA:1609,1
DA:1610,1
DA:1611,1
DA:1612,1
DA:1613,1
DA:1614,1
DA:1617,1
DA:1618,1
DA:1619,1
DA:1620,1
DA:1621,1
DA:1622,1
DA:1623,1
DA:1624,1
DA:1625,1
DA:1626,1
DA:1627,1
DA:1630,1
DA:1631,1
DA:1632,1
DA:1633,1
DA:1636,1
DA:1637,1
DA:1638,1
DA:1639,1
DA:1642,1
DA:1643,1
DA:1644,1
DA:1645,1
DA:1648,1
DA:1649,1
DA:1650,1
DA:1651,1
DA:1652,1
DA:1653,1
DA:1654,1
DA:1656,0
DA:1659,1
DA:1662,1
DA:1663,1
DA:1664,1
DA:1665,1
DA:1666,1
DA:1667,1
DA:1668,1
DA:1669,1
DA:1670,1
DA:1671,1
DA:1672,1
DA:1673,1
DA:1674,1
DA:1675,1
DA:1676,1
DA:1677,1
DA:1678,1
DA:1679,1
DA:1682,1
DA:1683,1
DA:1684,1
DA:1685,1
DA:1686,1
DA:1687,1
DA:1688,1
DA:1689,1
DA:1690,1
DA:1691,1
DA:1692,1
DA:1693,1
DA:1694,1
DA:1695,1
DA:1696,1
DA:1697,1
DA:1698,1
DA:1699,1
DA:1700,1
DA:1701,1
DA:1704,1
DA:1705,1
DA:1706,1
DA:1707,1
DA:1708,1
DA:1709,1
DA:1710,1
DA:1711,1
DA:1712,1
DA:1713,1
DA:1714,1
DA:1717,1
DA:1718,1
DA:1719,1
DA:1720,1
DA:1721,1
DA:1722,1
DA:1723,1
DA:1724,1
DA:1725,1
DA:1726,1
DA:1727,1
DA:1728,1
DA:1729,1
DA:1730,1
DA:1731,1
DA:1732,1
DA:1733,1
DA:1734,1
DA:1735,1
DA:1736,1
DA:1737,1
DA:1738,1
DA:1741,1
DA:1742,1
DA:1743,1
DA:1744,1
DA:1745,1
DA:1746,1
DA:1747,1
DA:1748,1
DA:1749,1
DA:1750,1
DA:1751,1
DA:1752,1
DA:1753,1
DA:1754,1
DA:1755,1
DA:1756,1
DA:1757,1
DA:1758,1
DA:1759,1
DA:1760,1
DA:1761,1
DA:1762,1
DA:1763,1
DA:1766,1
DA:1767,1
DA:1768,1
DA:1769,1
DA:1770,1
DA:1771,1
DA:1772,1
DA:1773,1
DA:1774,1
DA:1775,1
DA:1776,1
DA:1777,1
DA:1780,1
DA:1781,1
DA:1782,1
DA:1783,1
DA:1784,1
DA:1785,1
DA:1786,1
DA:1789,1
DA:1790,1
DA:1791,1
DA:1792,1
DA:1793,1
DA:1794,1
DA:1795,1
DA:1796,1
DA:1797,1
DA:1944,1
DA:1945,1
DA:1946,1
DA:1947,1
DA:1949,1
DA:1950,1
DA:1951,1
DA:1954,1
DA:1955,1
DA:1956,1
DA:1959,1
DA:1960,1
DA:1961,1
DA:1964,1
DA:1965,1
DA:1966,1
DA:1969,1
DA:1970,1
DA:1971,1
DA:1974,1
DA:1975,1
DA:1976,1
DA:1977,1
DA:1980,1
DA:1981,1
DA:1982,1
DA:1983,1
DA:1984,0
DA:1985,1
BRF:0
BRH:0
LF:1341
LH:830
end_of_record
SF:/Users/smeya/git/darwin-metrics/src/hardware/memory/mod.rs
FN:701,_RNCNCNvMs6_NtNtCslGh6CY2EcXh_14darwin_metrics8hardware6memoryNtB9_6Memory12update_async00Bd_
FN:664,_RNvXs5_NtNtCslGh6CY2EcXh_14darwin_metrics8hardware6memoryNtB5_19MemoryMonitorHandleNtNtNtCs4P3ALgZxGbJ_4core3ops4drop4Drop4drop
FN:709,_RNCNCNvMs6_NtNtCslGh6CY2EcXh_14darwin_metrics8hardware6memoryNtB9_6Memory12update_async0s_0Bd_
FN:756,_RNCNCNvMs6_NtNtCslGh6CY2EcXh_14darwin_metrics8hardware6memoryNtB9_6Memory14get_info_async00Bd_
FN:514,_RNCNvMs3_NtNtCslGh6CY2EcXh_14darwin_metrics8hardware6memoryNtB7_6Memory16start_monitoring0Bb_
FN:697,_RNCNvMs6_NtNtCslGh6CY2EcXh_14darwin_metrics8hardware6memoryNtB7_6Memory12update_async0Bb_
FN:753,_RNCNvMs6_NtNtCslGh6CY2EcXh_14darwin_metrics8hardware6memoryNtB7_6Memory14get_info_async0Bb_
FN:896,_RNCNvNtNtNtCslGh6CY2EcXh_14darwin_metrics8hardware6memory5testss_17test_update_async0B9_
FN:903,_RNCNvNtNtNtCslGh6CY2EcXh_14darwin_metrics8hardware6memory5testss_19test_get_info_async0B9_
FN:878,_RNCNvNtNtNtCslGh6CY2EcXh_14darwin_metrics8hardware6memory5testss_22test_memory_monitoring0B9_
FN:896,_RNvNtNtNtCslGh6CY2EcXh_14darwin_metrics8hardware6memory5testss_17test_update_async
FN:771,_RNvNtNtNtCslGh6CY2EcXh_14darwin_metrics8hardware6memory5testss_18test_memory_update
FN:903,_RNvNtNtNtCslGh6CY2EcXh_14darwin_metrics8hardware6memory5testss_19test_get_info_async
FN:778,_RNvNtNtNtCslGh6CY2EcXh_14darwin_metrics8hardware6memory5testss_19test_memory_metrics
FN:806,_RNvNtNtNtCslGh6CY2EcXh_14darwin_metrics8hardware6memory5testss_21test_usage_percentage
FN:840,_RNvNtNtNtCslGh6CY2EcXh_14darwin_metrics8hardware6memory5testss_22test_custom_thresholds
FN:878,_RNvNtNtNtCslGh6CY2EcXh_14darwin_metrics8hardware6memory5testss_22test_memory_monitoring
FN:818,_RNvNtNtNtCslGh6CY2EcXh_14darwin_metrics8hardware6memory5testss_23test_pressure_callbacks
FN:860,_RNvNtNtNtCslGh6CY2EcXh_14darwin_metrics8hardware6memory5testss_26test_memory_info_functions
FN:765,_RNvNtNtNtCslGh6CY2EcXh_14darwin_metrics8hardware6memory5testss_26test_memory_initialization
FN:521,_RNCNCNvMs3_NtNtCslGh6CY2EcXh_14darwin_metrics8hardware6memoryNtB9_6Memory16start_monitoring00Bd_
FN:304,_RNvMs3_NtNtCslGh6CY2EcXh_14darwin_metrics8hardware6memoryNtB5_6Memory11with_values
FN:510,_RNvMs3_NtNtCslGh6CY2EcXh_14darwin_metrics8hardware6memoryNtB5_6Memory13usage_history
FN:333,_RNvMs3_NtNtCslGh6CY2EcXh_14darwin_metrics8hardware6memoryNtB5_6Memory15with_basic_info
FN:474,_RNvMs3_NtNtCslGh6CY2EcXh_14darwin_metrics8hardware6memoryNtB5_6Memory19pressure_percentage
FN:95,_RNvXNtNtCslGh6CY2EcXh_14darwin_metrics8hardware6memoryNtB2_13PressureLevelNtNtCs4P3ALgZxGbJ_4core3fmt7Display3fmt
FN:188,_RNvXs0_NtNtCslGh6CY2EcXh_14darwin_metrics8hardware6memoryNtB5_6MemoryNtNtCs4P3ALgZxGbJ_4core3fmt5Debug3fmt
FN:239,_RNvXs2_NtNtCslGh6CY2EcXh_14darwin_metrics8hardware6memoryNtB5_6MemoryNtNtCs4P3ALgZxGbJ_4core3cmp9PartialEq2eq
FN:501,_RINvMs3_NtNtCslGh6CY2EcXh_14darwin_metrics8hardware6memoryNtB6_6Memory18on_pressure_changeNCNvNtB6_5testss_23test_pressure_callbacks0EBa_
FN:824,_RNCNvNtNtNtCslGh6CY2EcXh_14darwin_metrics8hardware6memory5testss_23test_pressure_callbacks0B9_
FN:575,_RNvMs3_NtNtCslGh6CY2EcXh_14darwin_metrics8hardware6memoryNtB5_6Memory13get_page_size
FN:599,_RNvMs3_NtNtCslGh6CY2EcXh_14darwin_metrics8hardware6memoryNtB5_6Memory14get_swap_usage
FN:478,_RNvMs3_NtNtCslGh6CY2EcXh_14darwin_metrics8hardware6memoryNtB5_6Memory14pressure_level
FN:551,_RNvMs3_NtNtCslGh6CY2EcXh_14darwin_metrics8hardware6memoryNtB5_6Memory16get_total_memory
FN:514,_RNvMs3_NtNtCslGh6CY2EcXh_14darwin_metrics8hardware6memoryNtB5_6Memory16start_monitoring
FN:470,_RNvMs3_NtNtCslGh6CY2EcXh_14darwin_metrics8hardware6memoryNtB5_6Memory16usage_percentage
FN:579,_RNvMs3_NtNtCslGh6CY2EcXh_14darwin_metrics8hardware6memoryNtB5_6Memory17get_vm_statistics
FN:488,_RNvMs3_NtNtCslGh6CY2EcXh_14darwin_metrics8hardware6memoryNtB5_6Memory23set_pressure_thresholds
FN:638,_RNvMs3_NtNtCslGh6CY2EcXh_14darwin_metrics8hardware6memoryNtB5_6Memory25check_pressure_thresholds
FN:279,_RNvMs3_NtNtCslGh6CY2EcXh_14darwin_metrics8hardware6memoryNtB5_6Memory3new
FN:383,_RNvMs3_NtNtCslGh6CY2EcXh_14darwin_metrics8hardware6memoryNtB5_6Memory6update
FN:446,_RNvMs3_NtNtCslGh6CY2EcXh_14darwin_metrics8hardware6memoryNtB5_6Memory8get_info
FN:654,_RNvMs4_NtNtCslGh6CY2EcXh_14darwin_metrics8hardware6memoryNtB5_19MemoryMonitorHandle4stop
FN:658,_RNvMs4_NtNtCslGh6CY2EcXh_14darwin_metrics8hardware6memoryNtB5_19MemoryMonitorHandle9is_active
FN:697,_RNvMs6_NtNtCslGh6CY2EcXh_14darwin_metrics8hardware6memoryNtB5_6Memory12update_async
FN:753,_RNvMs6_NtNtCslGh6CY2EcXh_14darwin_metrics8hardware6memoryNtB5_6Memory14get_info_async
FN:216,_RNvXs1_NtNtCslGh6CY2EcXh_14darwin_metrics8hardware6memoryNtB5_6MemoryNtNtCs4P3ALgZxGbJ_4core5clone5Clone5clone
FN:141,_RNvXs_NtNtCslGh6CY2EcXh_14darwin_metrics8hardware6memoryNtB4_9SwapUsageNtNtCs4P3ALgZxGbJ_4core7default7Default7default
FN:664,_RNvXs5_NtNtCsGBPSOZydBW_14darwin_metrics8hardware6memoryNtB5_19MemoryMonitorHandleNtNtNtCs4P3ALgZxGbJ_4core3ops4drop4Drop4drop
FN:501,_RINvMs3_NtNtCsGBPSOZydBW_14darwin_metrics8hardware6memoryNtB6_6Memory18on_pressure_changepEBa_
FN:521,_RNCNCNvMs3_NtNtCsGBPSOZydBW_14darwin_metrics8hardware6memoryNtB9_6Memory16start_monitoring00Bd_
FN:701,_RNCNCNvMs6_NtNtCsGBPSOZydBW_14darwin_metrics8hardware6memoryNtB9_6Memory12update_async00Bd_
FN:709,_RNCNCNvMs6_NtNtCsGBPSOZydBW_14darwin_metrics8hardware6memoryNtB9_6Memory12update_async0s_0Bd_
FN:756,_RNCNCNvMs6_NtNtCsGBPSOZydBW_14darwin_metrics8hardware6memoryNtB9_6Memory14get_info_async00Bd_
FN:514,_RNCNvMs3_NtNtCsGBPSOZydBW_14darwin_metrics8hardware6memoryNtB7_6Memory16start_monitoring0Bb_
FN:697,_RNCNvMs6_NtNtCsGBPSOZydBW_14darwin_metrics8hardware6memoryNtB7_6Memory12update_async0Bb_
FN:753,_RNCNvMs6_NtNtCsGBPSOZydBW_14darwin_metrics8hardware6memoryNtB7_6Memory14get_info_async0Bb_
FN:304,_RNvMs3_NtNtCsGBPSOZydBW_14darwin_metrics8hardware6memoryNtB5_6Memory11with_values
FN:575,_RNvMs3_NtNtCsGBPSOZydBW_14darwin_metrics8hardware6memoryNtB5_6Memory13get_page_size
FN:510,_RNvMs3_NtNtCsGBPSOZydBW_14darwin_metrics8hardware6memoryNtB5_6Memory13usage_history
FN:599,_RNvMs3_NtNtCsGBPSOZydBW_14darwin_metrics8hardware6memoryNtB5_6Memory14get_swap_usage
FN:478,_RNvMs3_NtNtCsGBPSOZydBW_14darwin_metrics8hardware6memoryNtB5_6Memory14pressure_level
FN:333,_RNvMs3_NtNtCsGBPSOZydBW_14darwin_metrics8hardware6memoryNtB5_6Memory15with_basic_info
FN:551,_RNvMs3_NtNtCsGBPSOZydBW_14darwin_metrics8hardware6memoryNtB5_6Memory16get_total_memory
FN:514,_RNvMs3_NtNtCsGBPSOZydBW_14darwin_metrics8hardware6memoryNtB5_6Memory16start_monitoring
FN:470,_RNvMs3_NtNtCsGBPSOZydBW_14darwin_metrics8hardware6memoryNtB5_6Memory16usage_percentage
FN:579,_RNvMs3_NtNtCsGBPSOZydBW_14darwin_metrics8hardware6memoryNtB5_6Memory17get_vm_statistics
FN:474,_RNvMs3_NtNtCsGBPSOZydBW_14darwin_metrics8hardware6memoryNtB5_6Memory19pressure_percentage
FN:488,_RNvMs3_NtNtCsGBPSOZydBW_14darwin_metrics8hardware6memoryNtB5_6Memory23set_pressure_thresholds
FN:638,_RNvMs3_NtNtCsGBPSOZydBW_14darwin_metrics8hardware6memoryNtB5_6Memory25check_pressure_thresholds
FN:279,_RNvMs3_NtNtCsGBPSOZydBW_14darwin_metrics8hardware6memoryNtB5_6Memory3new
FN:383,_RNvMs3_NtNtCsGBPSOZydBW_14darwin_metrics8hardware6memoryNtB5_6Memory6update
FN:446,_RNvMs3_NtNtCsGBPSOZydBW_14darwin_metrics8hardware6memoryNtB5_6Memory8get_info
FN:654,_RNvMs4_NtNtCsGBPSOZydBW_14darwin_metrics8hardware6memoryNtB5_19MemoryMonitorHandle4stop
FN:658,_RNvMs4_NtNtCsGBPSOZydBW_14darwin_metrics8hardware6memoryNtB5_19MemoryMonitorHandle9is_active
FN:697,_RNvMs6_NtNtCsGBPSOZydBW_14darwin_metrics8hardware6memoryNtB5_6Memory12update_async
FN:753,_RNvMs6_NtNtCsGBPSOZydBW_14darwin_metrics8hardware6memoryNtB5_6Memory14get_info_async
FN:95,_RNvXNtNtCsGBPSOZydBW_14darwin_metrics8hardware6memoryNtB2_13PressureLevelNtNtCs4P3ALgZxGbJ_4core3fmt7Display3fmt
FN:188,_RNvXs0_NtNtCsGBPSOZydBW_14darwin_metrics8hardware6memoryNtB5_6MemoryNtNtCs4P3ALgZxGbJ_4core3fmt5Debug3fmt
FN:216,_RNvXs1_NtNtCsGBPSOZydBW_14darwin_metrics8hardware6memoryNtB5_6MemoryNtNtCs4P3ALgZxGbJ_4core5clone5Clone5clone
FN:239,_RNvXs2_NtNtCsGBPSOZydBW_14darwin_metrics8hardware6memoryNtB5_6MemoryNtNtCs4P3ALgZxGbJ_4core3cmp9PartialEq2eq
FN:141,_RNvXs_NtNtCsGBPSOZydBW_14darwin_metrics8hardware6memoryNtB4_9SwapUsageNtNtCs4P3ALgZxGbJ_4core7default7Default7default
FNDA:1,_RNCNCNvMs6_NtNtCslGh6CY2EcXh_14darwin_metrics8hardware6memoryNtB9_6Memory12update_async00Bd_
FNDA:1,_RNvXs5_NtNtCslGh6CY2EcXh_14darwin_metrics8hardware6memoryNtB5_19MemoryMonitorHandleNtNtNtCs4P3ALgZxGbJ_4core3ops4drop4Drop4drop
FNDA:0,_RNCNCNvMs6_NtNtCslGh6CY2EcXh_14darwin_metrics8hardware6memoryNtB9_6Memory12update_async0s_0Bd_
FNDA:0,_RNCNCNvMs6_NtNtCslGh6CY2EcXh_14darwin_metrics8hardware6memoryNtB9_6Memory14get_info_async00Bd_
FNDA:1,_RNCNvMs3_NtNtCslGh6CY2EcXh_14darwin_metrics8hardware6memoryNtB7_6Memory16start_monitoring0Bb_
FNDA:1,_RNCNvMs6_NtNtCslGh6CY2EcXh_14darwin_metrics8hardware6memoryNtB7_6Memory12update_async0Bb_
FNDA:1,_RNCNvMs6_NtNtCslGh6CY2EcXh_14darwin_metrics8hardware6memoryNtB7_6Memory14get_info_async0Bb_
FNDA:1,_RNCNvNtNtNtCslGh6CY2EcXh_14darwin_metrics8hardware6memory5testss_17test_update_async0B9_
FNDA:1,_RNCNvNtNtNtCslGh6CY2EcXh_14darwin_metrics8hardware6memory5testss_19test_get_info_async0B9_
FNDA:1,_RNCNvNtNtNtCslGh6CY2EcXh_14darwin_metrics8hardware6memory5testss_22test_memory_monitoring0B9_
FNDA:1,_RNvNtNtNtCslGh6CY2EcXh_14darwin_metrics8hardware6memory5testss_17test_update_async
FNDA:1,_RNvNtNtNtCslGh6CY2EcXh_14darwin_metrics8hardware6memory5testss_18test_memory_update
FNDA:1,_RNvNtNtNtCslGh6CY2EcXh_14darwin_metrics8hardware6memory5testss_19test_get_info_async
FNDA:1,_RNvNtNtNtCslGh6CY2EcXh_14darwin_metrics8hardware6memory5testss_19test_memory_metrics
FNDA:1,_RNvNtNtNtCslGh6CY2EcXh_14darwin_metrics8hardware6memory5testss_21test_usage_percentage
FNDA:1,_RNvNtNtNtCslGh6CY2EcXh_14darwin_metrics8hardware6memory5testss_22test_custom_thresholds
FNDA:1,_RNvNtNtNtCslGh6CY2EcXh_14darwin_metrics8hardware6memory5testss_22test_memory_monitoring
FNDA:1,_RNvNtNtNtCslGh6CY2EcXh_14darwin_metrics8hardware6memory5testss_23test_pressure_callbacks
FNDA:1,_RNvNtNtNtCslGh6CY2EcXh_14darwin_metrics8hardware6memory5testss_26test_memory_info_functions
FNDA:1,_RNvNtNtNtCslGh6CY2EcXh_14darwin_metrics8hardware6memory5testss_26test_memory_initialization
FNDA:1,_RNCNCNvMs3_NtNtCslGh6CY2EcXh_14darwin_metrics8hardware6memoryNtB9_6Memory16start_monitoring00Bd_
FNDA:0,_RNvMs3_NtNtCslGh6CY2EcXh_14darwin_metrics8hardware6memoryNtB5_6Memory11with_values
FNDA:0,_RNvMs3_NtNtCslGh6CY2EcXh_14darwin_metrics8hardware6memoryNtB5_6Memory13usage_history
FNDA:0,_RNvMs3_NtNtCslGh6CY2EcXh_14darwin_metrics8hardware6memoryNtB5_6Memory15with_basic_info
FNDA:0,_RNvMs3_NtNtCslGh6CY2EcXh_14darwin_metrics8hardware6memoryNtB5_6Memory19pressure_percentage
FNDA:0,_RNvXNtNtCslGh6CY2EcXh_14darwin_metrics8hardware6memoryNtB2_13PressureLevelNtNtCs4P3ALgZxGbJ_4core3fmt7Display3fmt
FNDA:0,_RNvXs0_NtNtCslGh6CY2EcXh_14darwin_metrics8hardware6memoryNtB5_6MemoryNtNtCs4P3ALgZxGbJ_4core3fmt5Debug3fmt
FNDA:0,_RNvXs2_NtNtCslGh6CY2EcXh_14darwin_metrics8hardware6memoryNtB5_6MemoryNtNtCs4P3ALgZxGbJ_4core3cmp9PartialEq2eq
FNDA:1,_RINvMs3_NtNtCslGh6CY2EcXh_14darwin_metrics8hardware6memoryNtB6_6Memory18on_pressure_changeNCNvNtB6_5testss_23test_pressure_callbacks0EBa_
FNDA:1,_RNCNvNtNtNtCslGh6CY2EcXh_14darwin_metrics8hardware6memory5testss_23test_pressure_callbacks0B9_
FNDA:15,_RNvMs3_NtNtCslGh6CY2EcXh_14darwin_metrics8hardware6memoryNtB5_6Memory13get_page_size
FNDA:15,_RNvMs3_NtNtCslGh6CY2EcXh_14darwin_metrics8hardware6memoryNtB5_6Memory14get_swap_usage
FNDA:16,_RNvMs3_NtNtCslGh6CY2EcXh_14darwin_metrics8hardware6memoryNtB5_6Memory14pressure_level
FNDA:15,_RNvMs3_NtNtCslGh6CY2EcXh_14darwin_metrics8hardware6memoryNtB5_6Memory16get_total_memory
FNDA:1,_RNvMs3_NtNtCslGh6CY2EcXh_14darwin_metrics8hardware6memoryNtB5_6Memory16start_monitoring
FNDA:15,_RNvMs3_NtNtCslGh6CY2EcXh_14darwin_metrics8hardware6memoryNtB5_6Memory16usage_percentage
FNDA:15,_RNvMs3_NtNtCslGh6CY2EcXh_14darwin_metrics8hardware6memoryNtB5_6Memory17get_vm_statistics
FNDA:4,_RNvMs3_NtNtCslGh6CY2EcXh_14darwin_metrics8hardware6memoryNtB5_6Memory23set_pressure_thresholds
FNDA:15,_RNvMs3_NtNtCslGh6CY2EcXh_14darwin_metrics8hardware6memoryNtB5_6Memory25check_pressure_thresholds
FNDA:8,_RNvMs3_NtNtCslGh6CY2EcXh_14darwin_metrics8hardware6memoryNtB5_6Memory3new
FNDA:14,_RNvMs3_NtNtCslGh6CY2EcXh_14darwin_metrics8hardware6memoryNtB5_6Memory6update
FNDA:4,_RNvMs3_NtNtCslGh6CY2EcXh_14darwin_metrics8hardware6memoryNtB5_6Memory8get_info
FNDA:2,_RNvMs4_NtNtCslGh6CY2EcXh_14darwin_metrics8hardware6memoryNtB5_19MemoryMonitorHandle4stop
FNDA:2,_RNvMs4_NtNtCslGh6CY2EcXh_14darwin_metrics8hardware6memoryNtB5_19MemoryMonitorHandle9is_active
FNDA:1,_RNvMs6_NtNtCslGh6CY2EcXh_14darwin_metrics8hardware6memoryNtB5_6Memory12update_async
FNDA:1,_RNvMs6_NtNtCslGh6CY2EcXh_14darwin_metrics8hardware6memoryNtB5_6Memory14get_info_async
FNDA:1,_RNvXs1_NtNtCslGh6CY2EcXh_14darwin_metrics8hardware6memoryNtB5_6MemoryNtNtCs4P3ALgZxGbJ_4core5clone5Clone5clone
FNDA:27,_RNvXs_NtNtCslGh6CY2EcXh_14darwin_metrics8hardware6memoryNtB4_9SwapUsageNtNtCs4P3ALgZxGbJ_4core7default7Default7default
FNDA:0,_RNvXs5_NtNtCsGBPSOZydBW_14darwin_metrics8hardware6memoryNtB5_19MemoryMonitorHandleNtNtNtCs4P3ALgZxGbJ_4core3ops4drop4Drop4drop
FNDA:0,_RINvMs3_NtNtCsGBPSOZydBW_14darwin_metrics8hardware6memoryNtB6_6Memory18on_pressure_changepEBa_
FNDA:0,_RNCNCNvMs3_NtNtCsGBPSOZydBW_14darwin_metrics8hardware6memoryNtB9_6Memory16start_monitoring00Bd_
FNDA:0,_RNCNCNvMs6_NtNtCsGBPSOZydBW_14darwin_metrics8hardware6memoryNtB9_6Memory12update_async00Bd_
FNDA:0,_RNCNCNvMs6_NtNtCsGBPSOZydBW_14darwin_metrics8hardware6memoryNtB9_6Memory12update_async0s_0Bd_
FNDA:0,_RNCNCNvMs6_NtNtCsGBPSOZydBW_14darwin_metrics8hardware6memoryNtB9_6Memory14get_info_async00Bd_
FNDA:0,_RNCNvMs3_NtNtCsGBPSOZydBW_14darwin_metrics8hardware6memoryNtB7_6Memory16start_monitoring0Bb_
FNDA:0,_RNCNvMs6_NtNtCsGBPSOZydBW_14darwin_metrics8hardware6memoryNtB7_6Memory12update_async0Bb_
FNDA:0,_RNCNvMs6_NtNtCsGBPSOZydBW_14darwin_metrics8hardware6memoryNtB7_6Memory14get_info_async0Bb_
FNDA:0,_RNvMs3_NtNtCsGBPSOZydBW_14darwin_metrics8hardware6memoryNtB5_6Memory11with_values
FNDA:0,_RNvMs3_NtNtCsGBPSOZydBW_14darwin_metrics8hardware6memoryNtB5_6Memory13get_page_size
FNDA:0,_RNvMs3_NtNtCsGBPSOZydBW_14darwin_metrics8hardware6memoryNtB5_6Memory13usage_history
FNDA:0,_RNvMs3_NtNtCsGBPSOZydBW_14darwin_metrics8hardware6memoryNtB5_6Memory14get_swap_usage
FNDA:0,_RNvMs3_NtNtCsGBPSOZydBW_14darwin_metrics8hardware6memoryNtB5_6Memory14pressure_level
FNDA:0,_RNvMs3_NtNtCsGBPSOZydBW_14darwin_metrics8hardware6memoryNtB5_6Memory15with_basic_info
FNDA:0,_RNvMs3_NtNtCsGBPSOZydBW_14darwin_metrics8hardware6memoryNtB5_6Memory16get_total_memory
FNDA:0,_RNvMs3_NtNtCsGBPSOZydBW_14darwin_metrics8hardware6memoryNtB5_6Memory16start_monitoring
FNDA:0,_RNvMs3_NtNtCsGBPSOZydBW_14darwin_metrics8hardware6memoryNtB5_6Memory16usage_percentage
FNDA:0,_RNvMs3_NtNtCsGBPSOZydBW_14darwin_metrics8hardware6memoryNtB5_6Memory17get_vm_statistics
FNDA:0,_RNvMs3_NtNtCsGBPSOZydBW_14darwin_metrics8hardware6memoryNtB5_6Memory19pressure_percentage
FNDA:0,_RNvMs3_NtNtCsGBPSOZydBW_14darwin_metrics8hardware6memoryNtB5_6Memory23set_pressure_thresholds
FNDA:0,_RNvMs3_NtNtCsGBPSOZydBW_14darwin_metrics8hardware6memoryNtB5_6Memory25check_pressure_thresholds
FNDA:0,_RNvMs3_NtNtCsGBPSOZydBW_14darwin_metrics8hardware6memoryNtB5_6Memory3new
FNDA:0,_RNvMs3_NtNtCsGBPSOZydBW_14darwin_metrics8hardware6memoryNtB5_6Memory6update
FNDA:0,_RNvMs3_NtNtCsGBPSOZydBW_14darwin_metrics8hardware6memoryNtB5_6Memory8get_info
FNDA:0,_RNvMs4_NtNtCsGBPSOZydBW_14darwin_metrics8hardware6memoryNtB5_19MemoryMonitorHandle4stop
FNDA:0,_RNvMs4_NtNtCsGBPSOZydBW_14darwin_metrics8hardware6memoryNtB5_19MemoryMonitorHandle9is_active
FNDA:0,_RNvMs6_NtNtCsGBPSOZydBW_14darwin_metrics8hardware6memoryNtB5_6Memory12update_async
FNDA:0,_RNvMs6_NtNtCsGBPSOZydBW_14darwin_metrics8hardware6memoryNtB5_6Memory14get_info_async
FNDA:0,_RNvXNtNtCsGBPSOZydBW_14darwin_metrics8hardware6memoryNtB2_13PressureLevelNtNtCs4P3ALgZxGbJ_4core3fmt7Display3fmt
FNDA:0,_RNvXs0_NtNtCsGBPSOZydBW_14darwin_metrics8hardware6memoryNtB5_6MemoryNtNtCs4P3ALgZxGbJ_4core3fmt5Debug3fmt
FNDA:0,_RNvXs1_NtNtCsGBPSOZydBW_14darwin_metrics8hardware6memoryNtB5_6MemoryNtNtCs4P3ALgZxGbJ_4core5clone5Clone5clone
FNDA:0,_RNvXs2_NtNtCsGBPSOZydBW_14darwin_metrics8hardware6memoryNtB5_6MemoryNtNtCs4P3ALgZxGbJ_4core3cmp9PartialEq2eq
FNDA:0,_RNvXs_NtNtCsGBPSOZydBW_14darwin_metrics8hardware6memoryNtB4_9SwapUsageNtNtCs4P3ALgZxGbJ_4core7default7Default7default
FNF:48
FNH:39
DA:95,0
DA:96,0
DA:97,0
DA:98,0
DA:99,0
DA:101,0
DA:141,27
DA:142,27
DA:143,27
DA:188,0
DA:189,0
DA:190,0
DA:191,0
DA:194,0
DA:195,0
DA:196,0
DA:197,0
DA:198,0
DA:199,0
DA:200,0
DA:201,0
DA:202,0
DA:203,0
DA:204,0
DA:205,0
DA:206,0
DA:207,0
DA:208,0
DA:209,0
DA:210,0
DA:211,0
DA:212,0
DA:216,1
DA:217,1
DA:218,1
DA:219,1
DA:220,1
DA:221,1
DA:222,1
DA:223,1
DA:224,1
DA:225,1
DA:226,1
DA:227,1
DA:228,1
DA:229,1
DA:230,1
DA:231,1
DA:232,1
DA:233,1
DA:234,1
DA:235,1
DA:239,0
DA:240,0
DA:241,0
DA:242,0
DA:243,0
DA:244,0
DA:245,0
DA:246,0
DA:247,0
DA:248,0
DA:249,0
DA:250,0
DA:251,0
DA:252,0
DA:253,0
DA:254,0
DA:255,0
DA:256,0
DA:279,8
DA:280,8
DA:281,8
DA:282,8
DA:283,8
DA:284,8
DA:285,8
DA:286,8
DA:287,8
DA:288,8
DA:289,8
DA:290,8
DA:291,8
DA:292,8
DA:293,8
DA:294,8
DA:295,8
DA:296,8
DA:297,8
DA:298,8
DA:299,8
DA:300,8
DA:301,8
DA:304,0
DA:305,0
DA:306,0
DA:307,0
DA:308,0
DA:309,0
DA:310,0
DA:311,0
DA:312,0
DA:313,0
DA:314,0
DA:315,0
DA:316,0
DA:317,0
DA:318,0
DA:319,0
DA:320,0
DA:321,0
DA:322,0
DA:323,0
DA:324,0
DA:325,0
DA:326,0
DA:327,0
DA:328,0
DA:329,0
DA:330,0
DA:331,0
DA:333,0
DA:334,0
DA:335,0
DA:336,0
DA:337,0
DA:338,0
DA:339,0
DA:340,0
DA:341,0
DA:342,0
DA:343,0
DA:344,0
DA:345,0
DA:346,0
DA:347,0
DA:348,0
DA:349,0
DA:383,14
DA:384,14
DA:386,14
DA:388,14
DA:390,14
DA:391,14
DA:392,14
DA:393,14
DA:394,14
DA:395,14
DA:396,14
DA:397,14
DA:398,14
DA:399,14
DA:400,14
DA:402,14
DA:404,14
DA:405,14
DA:406,14
DA:407,14
DA:408,2
DA:409,2
DA:411,0
DA:414,2
DA:415,2
DA:417,0
DA:420,2
DA:421,2
DA:422,12
DA:424,14
DA:425,0
DA:427,14
DA:430,14
DA:431,14
DA:432,14
DA:433,14
DA:434,14
DA:435,14
DA:436,14
DA:437,14
DA:438,0
DA:439,14
DA:441,14
DA:442,14
DA:443,14
DA:444,14
DA:446,4
DA:447,4
DA:448,4
DA:449,4
DA:450,4
DA:451,4
DA:452,4
DA:453,4
DA:454,4
DA:455,4
DA:456,4
DA:457,4
DA:458,4
DA:459,4
DA:460,4
DA:461,4
DA:462,4
DA:463,4
DA:464,4
DA:465,4
DA:466,4
DA:467,4
DA:468,4
DA:470,15
DA:471,15
DA:472,15
DA:474,0
DA:475,0
DA:476,0
DA:478,16
DA:479,16
DA:480,0
DA:481,16
DA:482,16
DA:484,0
DA:486,16
DA:488,4
DA:489,4
DA:491,3
DA:492,3
DA:493,3
DA:494,3
DA:495,1
DA:496,1
DA:497,1
DA:498,1
DA:499,4
DA:501,1
DA:502,1
DA:503,1
DA:504,1
DA:505,1
DA:506,1
DA:507,1
DA:508,1
DA:510,0
DA:511,0
DA:512,0
DA:514,1
DA:515,1
DA:516,1
DA:517,1
DA:518,1
DA:519,1
DA:520,1
DA:521,1
DA:522,1
DA:524,3
DA:525,3
DA:526,3
DA:527,0
DA:528,3
DA:529,3
DA:531,0
DA:534,3
DA:535,1
DA:536,1
DA:537,0
DA:538,0
DA:539,0
DA:540,1
DA:541,2
DA:542,0
DA:544,3
DA:546,1
DA:547,1
DA:548,1
DA:549,1
DA:551,15
DA:552,15
DA:553,15
DA:554,15
DA:555,15
DA:556,15
DA:557,15
DA:558,15
DA:559,15
DA:560,15
DA:561,15
DA:562,15
DA:563,15
DA:564,15
DA:565,15
DA:566,15
DA:567,15
DA:568,15
DA:569,15
DA:571,0
DA:573,15
DA:575,15
DA:576,15
DA:577,15
DA:579,15
DA:580,15
DA:581,15
DA:582,15
DA:583,15
DA:584,15
DA:585,15
DA:586,15
DA:587,15
DA:588,15
DA:589,15
DA:590,15
DA:591,15
DA:592,15
DA:593,0
DA:594,15
DA:595,15
DA:596,15
DA:597,15
DA:599,15
DA:600,15
DA:601,15
DA:602,15
DA:603,15
DA:604,15
DA:605,15
DA:606,15
DA:607,15
DA:608,15
DA:609,15
DA:610,15
DA:611,15
DA:612,15
DA:613,15
DA:614,15
DA:615,15
DA:616,15
DA:617,15
DA:618,15
DA:620,15
DA:621,15
DA:622,0
DA:623,0
DA:624,0
DA:625,0
DA:626,0
DA:627,0
DA:628,0
DA:629,0
DA:630,0
DA:631,0
DA:633,0
DA:636,15
DA:638,15
DA:639,15
DA:641,15
DA:642,15
DA:643,1
DA:644,1
DA:645,0
DA:646,15
DA:654,2
DA:655,2
DA:656,2
DA:658,2
DA:659,2
DA:660,2
DA:664,1
DA:665,1
DA:666,1
DA:697,1
DA:698,1
DA:699,1
DA:700,1
DA:701,1
DA:702,1
DA:703,1
DA:704,1
DA:705,0
DA:707,1
DA:708,1
DA:709,1
DA:712,1
DA:713,1
DA:714,1
DA:715,1
DA:716,1
DA:717,1
DA:718,1
DA:719,1
DA:720,1
DA:721,1
DA:722,1
DA:723,1
DA:724,1
DA:725,1
DA:727,0
DA:729,1
DA:753,1
DA:754,1
DA:755,1
DA:756,1
DA:757,1
DA:765,1
DA:766,1
DA:767,1
DA:768,1
DA:771,1
DA:772,1
DA:773,1
DA:774,1
DA:775,1
DA:778,1
DA:779,1
DA:780,1
DA:781,1
DA:782,1
DA:783,1
DA:784,1
DA:785,1
DA:786,1
DA:787,1
DA:788,0
DA:792,1
DA:793,1
DA:797,1
DA:798,0
DA:799,0
DA:800,0
DA:802,1
DA:803,1
DA:806,1
DA:807,1
DA:808,1
DA:809,1
DA:810,1
DA:811,1
DA:812,0
DA:815,1
DA:818,1
DA:819,1
DA:820,1
DA:821,1
DA:822,1
DA:823,1
DA:824,1
DA:825,1
DA:826,1
DA:827,1
DA:828,1
DA:829,1
DA:830,1
DA:831,1
DA:832,1
DA:833,1
DA:834,1
DA:835,1
DA:836,1
DA:837,1
DA:840,1
DA:841,1
DA:842,1
DA:843,1
DA:844,1
DA:845,1
DA:848,1
DA:849,1
DA:852,1
DA:853,1
DA:855,1
DA:856,1
DA:857,1
DA:860,1
DA:861,1
DA:862,1
DA:863,1
DA:864,1
DA:866,1
DA:867,1
DA:868,1
DA:870,1
DA:871,1
DA:873,1
DA:874,1
DA:875,1
DA:878,1
DA:879,1
DA:880,1
DA:881,1
DA:882,1
DA:883,1
DA:884,1
DA:885,1
DA:886,1
DA:887,1
DA:888,1
DA:889,1
DA:890,1
DA:891,1
DA:892,1
DA:893,1
DA:896,1
DA:897,1
DA:898,1
DA:899,1
DA:900,1
DA:903,1
DA:904,1
DA:905,1
DA:906,1
DA:907,1
DA:908,1
DA:909,1
BRF:0
BRH:0
LF:538
LH:404
end_of_record
SF:/Users/smeya/git/darwin-metrics/src/hardware/temperature/mod.rs
FN:678,_RNCNvNtNtNtCslGh6CY2EcXh_14darwin_metrics8hardware11temperature5testss_17test_list_sensors0B9_
FN:682,_RNCNvNtNtNtCslGh6CY2EcXh_14darwin_metrics8hardware11temperature5testss_17test_list_sensorss0_0B9_
FN:685,_RNCNvNtNtNtCslGh6CY2EcXh_14darwin_metrics8hardware11temperature5testss_17test_list_sensorss1_0B9_
FN:688,_RNCNvNtNtNtCslGh6CY2EcXh_14darwin_metrics8hardware11temperature5testss_17test_list_sensorss2_0B9_
FN:681,_RNCNvNtNtNtCslGh6CY2EcXh_14darwin_metrics8hardware11temperature5testss_17test_list_sensorss_0B9_
FN:567,_RNvNtNtNtCslGh6CY2EcXh_14darwin_metrics8hardware11temperature5testss_16test_with_config
FN:655,_RNvNtNtNtCslGh6CY2EcXh_14darwin_metrics8hardware11temperature5testss_17test_list_sensors
FN:705,_RNvNtNtNtCslGh6CY2EcXh_14darwin_metrics8hardware11temperature5testss_18test_fan_functions
FN:581,_RNvNtNtNtCslGh6CY2EcXh_14darwin_metrics8hardware11temperature5testss_19test_should_refresh
FN:602,_RNvNtNtNtCslGh6CY2EcXh_14darwin_metrics8hardware11temperature5testss_20test_cpu_temperature
FN:619,_RNvNtNtNtCslGh6CY2EcXh_14darwin_metrics8hardware11temperature5testss_20test_gpu_temperature
FN:558,_RNvNtNtNtCslGh6CY2EcXh_14darwin_metrics8hardware11temperature5testss_20test_temperature_new
FN:635,_RNvNtNtNtCslGh6CY2EcXh_14darwin_metrics8hardware11temperature5testss_23test_additional_sensors
FN:785,_RNvNtNtNtCslGh6CY2EcXh_14darwin_metrics8hardware11temperature5testss_24test_get_thermal_metrics
FN:755,_RNvNtNtNtCslGh6CY2EcXh_14darwin_metrics8hardware11temperature5testss_27test_is_throttling_property
FN:770,_RNvNtNtNtCslGh6CY2EcXh_14darwin_metrics8hardware11temperature5testss_40test_is_throttling_temperature_heuristic
FN:432,_RNCNCNvMs_NtNtCslGh6CY2EcXh_14darwin_metrics8hardware11temperatureNtB8_11Temperature13refresh_async00Bc_
FN:461,_RNCNCNvMs_NtNtCslGh6CY2EcXh_14darwin_metrics8hardware11temperatureNtB8_11Temperature13refresh_async0s0_0Bc_
FN:463,_RNCNCNvMs_NtNtCslGh6CY2EcXh_14darwin_metrics8hardware11temperatureNtB8_11Temperature13refresh_async0s1_0Bc_
FN:434,_RNCNCNvMs_NtNtCslGh6CY2EcXh_14darwin_metrics8hardware11temperatureNtB8_11Temperature13refresh_async0s_0Bc_
FN:510,_RNCNCNvMs_NtNtCslGh6CY2EcXh_14darwin_metrics8hardware11temperatureNtB8_11Temperature19is_throttling_async00Bc_
FN:512,_RNCNCNvMs_NtNtCslGh6CY2EcXh_14darwin_metrics8hardware11temperatureNtB8_11Temperature19is_throttling_async0s_0Bc_
FN:378,_RNCNCNvMs_NtNtCslGh6CY2EcXh_14darwin_metrics8hardware11temperatureNtB8_11Temperature21cpu_temperature_async00Bc_
FN:389,_RNCNCNvMs_NtNtCslGh6CY2EcXh_14darwin_metrics8hardware11temperatureNtB8_11Temperature21gpu_temperature_async00Bc_
FN:411,_RNCNCNvMs_NtNtCslGh6CY2EcXh_14darwin_metrics8hardware11temperatureNtB8_11Temperature25ambient_temperature_async00Bc_
FN:422,_RNCNCNvMs_NtNtCslGh6CY2EcXh_14darwin_metrics8hardware11temperatureNtB8_11Temperature25battery_temperature_async00Bc_
FN:400,_RNCNCNvMs_NtNtCslGh6CY2EcXh_14darwin_metrics8hardware11temperatureNtB8_11Temperature26heatsink_temperature_async00Bc_
FN:428,_RNCNvMs_NtNtCslGh6CY2EcXh_14darwin_metrics8hardware11temperatureNtB6_11Temperature13refresh_async0Ba_
FN:502,_RNCNvMs_NtNtCslGh6CY2EcXh_14darwin_metrics8hardware11temperatureNtB6_11Temperature19is_throttling_async0Ba_
FN:373,_RNCNvMs_NtNtCslGh6CY2EcXh_14darwin_metrics8hardware11temperatureNtB6_11Temperature21cpu_temperature_async0Ba_
FN:384,_RNCNvMs_NtNtCslGh6CY2EcXh_14darwin_metrics8hardware11temperatureNtB6_11Temperature21gpu_temperature_async0Ba_
FN:296,_RNCNvMs_NtNtCslGh6CY2EcXh_14darwin_metrics8hardware11temperatureNtB6_11Temperature22get_sensor_temperature0Ba_
FN:406,_RNCNvMs_NtNtCslGh6CY2EcXh_14darwin_metrics8hardware11temperatureNtB6_11Temperature25ambient_temperature_async0Ba_
FN:417,_RNCNvMs_NtNtCslGh6CY2EcXh_14darwin_metrics8hardware11temperatureNtB6_11Temperature25battery_temperature_async0Ba_
FN:485,_RNCNvMs_NtNtCslGh6CY2EcXh_14darwin_metrics8hardware11temperatureNtB6_11Temperature25get_thermal_metrics_async0Ba_
FN:395,_RNCNvMs_NtNtCslGh6CY2EcXh_14darwin_metrics8hardware11temperatureNtB6_11Temperature26heatsink_temperature_async0Ba_
FN:334,_RNCNvMs_NtNtCslGh6CY2EcXh_14darwin_metrics8hardware11temperatureNtB6_11Temperature9cpu_power0Ba_
FN:340,_RNvMs_NtNtCslGh6CY2EcXh_14darwin_metrics8hardware11temperatureNtB4_11Temperature13is_throttling
FN:428,_RNvMs_NtNtCslGh6CY2EcXh_14darwin_metrics8hardware11temperatureNtB4_11Temperature13refresh_async
FN:502,_RNvMs_NtNtCslGh6CY2EcXh_14darwin_metrics8hardware11temperatureNtB4_11Temperature19is_throttling_async
FN:373,_RNvMs_NtNtCslGh6CY2EcXh_14darwin_metrics8hardware11temperatureNtB4_11Temperature21cpu_temperature_async
FN:384,_RNvMs_NtNtCslGh6CY2EcXh_14darwin_metrics8hardware11temperatureNtB4_11Temperature21gpu_temperature_async
FN:288,_RNvMs_NtNtCslGh6CY2EcXh_14darwin_metrics8hardware11temperatureNtB4_11Temperature22get_sensor_temperature
FN:406,_RNvMs_NtNtCslGh6CY2EcXh_14darwin_metrics8hardware11temperatureNtB4_11Temperature25ambient_temperature_async
FN:417,_RNvMs_NtNtCslGh6CY2EcXh_14darwin_metrics8hardware11temperatureNtB4_11Temperature25battery_temperature_async
FN:485,_RNvMs_NtNtCslGh6CY2EcXh_14darwin_metrics8hardware11temperatureNtB4_11Temperature25get_thermal_metrics_async
FN:395,_RNvMs_NtNtCslGh6CY2EcXh_14darwin_metrics8hardware11temperatureNtB4_11Temperature26heatsink_temperature_async
FN:329,_RNvMs_NtNtCslGh6CY2EcXh_14darwin_metrics8hardware11temperatureNtB4_11Temperature9cpu_power
FN:546,_RNvXs0_NtNtCslGh6CY2EcXh_14darwin_metrics8hardware11temperatureNtB5_11TemperatureNtNtCs4P3ALgZxGbJ_4core7default7Default7default
FN:213,_RNCNvMs_NtNtCslGh6CY2EcXh_14darwin_metrics8hardware11temperatureNtB6_11Temperature15cpu_temperature0Ba_
FN:224,_RNCNvMs_NtNtCslGh6CY2EcXh_14darwin_metrics8hardware11temperatureNtB6_11Temperature15gpu_temperature0Ba_
FN:246,_RNCNvMs_NtNtCslGh6CY2EcXh_14darwin_metrics8hardware11temperatureNtB6_11Temperature19ambient_temperature0Ba_
FN:257,_RNCNvMs_NtNtCslGh6CY2EcXh_14darwin_metrics8hardware11temperatureNtB6_11Temperature19battery_temperature0Ba_
FN:235,_RNCNvMs_NtNtCslGh6CY2EcXh_14darwin_metrics8hardware11temperatureNtB6_11Temperature20heatsink_temperature0Ba_
FN:325,_RNCNvMs_NtNtCslGh6CY2EcXh_14darwin_metrics8hardware11temperatureNtB6_11Temperature7get_fan0Ba_
FN:102,_RNvMs_NtNtCslGh6CY2EcXh_14darwin_metrics8hardware11temperatureNtB4_11Temperature11with_config
FN:263,_RNvMs_NtNtCslGh6CY2EcXh_14darwin_metrics8hardware11temperatureNtB4_11Temperature12list_sensors
FN:115,_RNvMs_NtNtCslGh6CY2EcXh_14darwin_metrics8hardware11temperatureNtB4_11Temperature14should_refresh
FN:208,_RNvMs_NtNtCslGh6CY2EcXh_14darwin_metrics8hardware11temperatureNtB4_11Temperature15cpu_temperature
FN:219,_RNvMs_NtNtCslGh6CY2EcXh_14darwin_metrics8hardware11temperatureNtB4_11Temperature15gpu_temperature
FN:241,_RNvMs_NtNtCslGh6CY2EcXh_14darwin_metrics8hardware11temperatureNtB4_11Temperature19ambient_temperature
FN:252,_RNvMs_NtNtCslGh6CY2EcXh_14darwin_metrics8hardware11temperatureNtB4_11Temperature19battery_temperature
FN:356,_RNvMs_NtNtCslGh6CY2EcXh_14darwin_metrics8hardware11temperatureNtB4_11Temperature19get_thermal_metrics
FN:230,_RNvMs_NtNtCslGh6CY2EcXh_14darwin_metrics8hardware11temperatureNtB4_11Temperature20heatsink_temperature
FN:89,_RNvMs_NtNtCslGh6CY2EcXh_14darwin_metrics8hardware11temperatureNtB4_11Temperature3new
FN:318,_RNvMs_NtNtCslGh6CY2EcXh_14darwin_metrics8hardware11temperatureNtB4_11Temperature7get_fan
FN:120,_RNvMs_NtNtCslGh6CY2EcXh_14darwin_metrics8hardware11temperatureNtB4_11Temperature7refresh
FN:309,_RNvMs_NtNtCslGh6CY2EcXh_14darwin_metrics8hardware11temperatureNtB4_11Temperature8get_fans
FN:300,_RNvMs_NtNtCslGh6CY2EcXh_14darwin_metrics8hardware11temperatureNtB4_11Temperature9fan_count
FN:59,_RNvXNtNtCslGh6CY2EcXh_14darwin_metrics8hardware11temperatureNtB2_17TemperatureConfigNtNtCs4P3ALgZxGbJ_4core7default7Default7default
FN:432,_RNCNCNvMs_NtNtCsGBPSOZydBW_14darwin_metrics8hardware11temperatureNtB8_11Temperature13refresh_async00Bc_
FN:461,_RNCNCNvMs_NtNtCsGBPSOZydBW_14darwin_metrics8hardware11temperatureNtB8_11Temperature13refresh_async0s0_0Bc_
FN:463,_RNCNCNvMs_NtNtCsGBPSOZydBW_14darwin_metrics8hardware11temperatureNtB8_11Temperature13refresh_async0s1_0Bc_
FN:434,_RNCNCNvMs_NtNtCsGBPSOZydBW_14darwin_metrics8hardware11temperatureNtB8_11Temperature13refresh_async0s_0Bc_
FN:510,_RNCNCNvMs_NtNtCsGBPSOZydBW_14darwin_metrics8hardware11temperatureNtB8_11Temperature19is_throttling_async00Bc_
FN:512,_RNCNCNvMs_NtNtCsGBPSOZydBW_14darwin_metrics8hardware11temperatureNtB8_11Temperature19is_throttling_async0s_0Bc_
FN:378,_RNCNCNvMs_NtNtCsGBPSOZydBW_14darwin_metrics8hardware11temperatureNtB8_11Temperature21cpu_temperature_async00Bc_
FN:389,_RNCNCNvMs_NtNtCsGBPSOZydBW_14darwin_metrics8hardware11temperatureNtB8_11Temperature21gpu_temperature_async00Bc_
FN:411,_RNCNCNvMs_NtNtCsGBPSOZydBW_14darwin_metrics8hardware11temperatureNtB8_11Temperature25ambient_temperature_async00Bc_
FN:422,_RNCNCNvMs_NtNtCsGBPSOZydBW_14darwin_metrics8hardware11temperatureNtB8_11Temperature25battery_temperature_async00Bc_
FN:400,_RNCNCNvMs_NtNtCsGBPSOZydBW_14darwin_metrics8hardware11temperatureNtB8_11Temperature26heatsink_temperature_async00Bc_
FN:428,_RNCNvMs_NtNtCsGBPSOZydBW_14darwin_metrics8hardware11temperatureNtB6_11Temperature13refresh_async0Ba_
FN:502,_RNCNvMs_NtNtCsGBPSOZydBW_14darwin_metrics8hardware11temperatureNtB6_11Temperature19is_throttling_async0Ba_
FN:373,_RNCNvMs_NtNtCsGBPSOZydBW_14darwin_metrics8hardware11temperatureNtB6_11Temperature21cpu_temperature_async0Ba_
FN:384,_RNCNvMs_NtNtCsGBPSOZydBW_14darwin_metrics8hardware11temperatureNtB6_11Temperature21gpu_temperature_async0Ba_
FN:406,_RNCNvMs_NtNtCsGBPSOZydBW_14darwin_metrics8hardware11temperatureNtB6_11Temperature25ambient_temperature_async0Ba_
FN:417,_RNCNvMs_NtNtCsGBPSOZydBW_14darwin_metrics8hardware11temperatureNtB6_11Temperature25battery_temperature_async0Ba_
FN:485,_RNCNvMs_NtNtCsGBPSOZydBW_14darwin_metrics8hardware11temperatureNtB6_11Temperature25get_thermal_metrics_async0Ba_
FN:395,_RNCNvMs_NtNtCsGBPSOZydBW_14darwin_metrics8hardware11temperatureNtB6_11Temperature26heatsink_temperature_async0Ba_
FN:213,_RNCNvMs_NtNtCsGBPSOZydBW_14darwin_metrics8hardware11temperatureNtB6_11Temperature15cpu_temperature0Ba_
FN:224,_RNCNvMs_NtNtCsGBPSOZydBW_14darwin_metrics8hardware11temperatureNtB6_11Temperature15gpu_temperature0Ba_
FN:246,_RNCNvMs_NtNtCsGBPSOZydBW_14darwin_metrics8hardware11temperatureNtB6_11Temperature19ambient_temperature0Ba_
FN:257,_RNCNvMs_NtNtCsGBPSOZydBW_14darwin_metrics8hardware11temperatureNtB6_11Temperature19battery_temperature0Ba_
FN:235,_RNCNvMs_NtNtCsGBPSOZydBW_14darwin_metrics8hardware11temperatureNtB6_11Temperature20heatsink_temperature0Ba_
FN:296,_RNCNvMs_NtNtCsGBPSOZydBW_14darwin_metrics8hardware11temperatureNtB6_11Temperature22get_sensor_temperature0Ba_
FN:325,_RNCNvMs_NtNtCsGBPSOZydBW_14darwin_metrics8hardware11temperatureNtB6_11Temperature7get_fan0Ba_
FN:334,_RNCNvMs_NtNtCsGBPSOZydBW_14darwin_metrics8hardware11temperatureNtB6_11Temperature9cpu_power0Ba_
FN:102,_RNvMs_NtNtCsGBPSOZydBW_14darwin_metrics8hardware11temperatureNtB4_11Temperature11with_config
FN:263,_RNvMs_NtNtCsGBPSOZydBW_14darwin_metrics8hardware11temperatureNtB4_11Temperature12list_sensors
FN:340,_RNvMs_NtNtCsGBPSOZydBW_14darwin_metrics8hardware11temperatureNtB4_11Temperature13is_throttling
FN:428,_RNvMs_NtNtCsGBPSOZydBW_14darwin_metrics8hardware11temperatureNtB4_11Temperature13refresh_async
FN:115,_RNvMs_NtNtCsGBPSOZydBW_14darwin_metrics8hardware11temperatureNtB4_11Temperature14should_refresh
FN:208,_RNvMs_NtNtCsGBPSOZydBW_14darwin_metrics8hardware11temperatureNtB4_11Temperature15cpu_temperature
FN:219,_RNvMs_NtNtCsGBPSOZydBW_14darwin_metrics8hardware11temperatureNtB4_11Temperature15gpu_temperature
FN:241,_RNvMs_NtNtCsGBPSOZydBW_14darwin_metrics8hardware11temperatureNtB4_11Temperature19ambient_temperature
FN:252,_RNvMs_NtNtCsGBPSOZydBW_14darwin_metrics8hardware11temperatureNtB4_11Temperature19battery_temperature
FN:356,_RNvMs_NtNtCsGBPSOZydBW_14darwin_metrics8hardware11temperatureNtB4_11Temperature19get_thermal_metrics
FN:502,_RNvMs_NtNtCsGBPSOZydBW_14darwin_metrics8hardware11temperatureNtB4_11Temperature19is_throttling_async
FN:230,_RNvMs_NtNtCsGBPSOZydBW_14darwin_metrics8hardware11temperatureNtB4_11Temperature20heatsink_temperature
FN:373,_RNvMs_NtNtCsGBPSOZydBW_14darwin_metrics8hardware11temperatureNtB4_11Temperature21cpu_temperature_async
FN:384,_RNvMs_NtNtCsGBPSOZydBW_14darwin_metrics8hardware11temperatureNtB4_11Temperature21gpu_temperature_async
FN:288,_RNvMs_NtNtCsGBPSOZydBW_14darwin_metrics8hardware11temperatureNtB4_11Temperature22get_sensor_temperature
FN:406,_RNvMs_NtNtCsGBPSOZydBW_14darwin_metrics8hardware11temperatureNtB4_11Temperature25ambient_temperature_async
FN:417,_RNvMs_NtNtCsGBPSOZydBW_14darwin_metrics8hardware11temperatureNtB4_11Temperature25battery_temperature_async
FN:485,_RNvMs_NtNtCsGBPSOZydBW_14darwin_metrics8hardware11temperatureNtB4_11Temperature25get_thermal_metrics_async
FN:395,_RNvMs_NtNtCsGBPSOZydBW_14darwin_metrics8hardware11temperatureNtB4_11Temperature26heatsink_temperature_async
FN:89,_RNvMs_NtNtCsGBPSOZydBW_14darwin_metrics8hardware11temperatureNtB4_11Temperature3new
FN:318,_RNvMs_NtNtCsGBPSOZydBW_14darwin_metrics8hardware11temperatureNtB4_11Temperature7get_fan
FN:120,_RNvMs_NtNtCsGBPSOZydBW_14darwin_metrics8hardware11temperatureNtB4_11Temperature7refresh
FN:309,_RNvMs_NtNtCsGBPSOZydBW_14darwin_metrics8hardware11temperatureNtB4_11Temperature8get_fans
FN:329,_RNvMs_NtNtCsGBPSOZydBW_14darwin_metrics8hardware11temperatureNtB4_11Temperature9cpu_power
FN:300,_RNvMs_NtNtCsGBPSOZydBW_14darwin_metrics8hardware11temperatureNtB4_11Temperature9fan_count
FN:59,_RNvXNtNtCsGBPSOZydBW_14darwin_metrics8hardware11temperatureNtB2_17TemperatureConfigNtNtCs4P3ALgZxGbJ_4core7default7Default7default
FN:546,_RNvXs0_NtNtCsGBPSOZydBW_14darwin_metrics8hardware11temperatureNtB5_11TemperatureNtNtCs4P3ALgZxGbJ_4core7default7Default7default
FNDA:1,_RNCNvNtNtNtCslGh6CY2EcXh_14darwin_metrics8hardware11temperature5testss_17test_list_sensors0B9_
FNDA:5,_RNCNvNtNtNtCslGh6CY2EcXh_14darwin_metrics8hardware11temperature5testss_17test_list_sensorss0_0B9_
FNDA:2,_RNCNvNtNtNtCslGh6CY2EcXh_14darwin_metrics8hardware11temperature5testss_17test_list_sensorss1_0B9_
FNDA:3,_RNCNvNtNtNtCslGh6CY2EcXh_14darwin_metrics8hardware11temperature5testss_17test_list_sensorss2_0B9_
FNDA:4,_RNCNvNtNtNtCslGh6CY2EcXh_14darwin_metrics8hardware11temperature5testss_17test_list_sensorss_0B9_
FNDA:1,_RNvNtNtNtCslGh6CY2EcXh_14darwin_metrics8hardware11temperature5testss_16test_with_config
FNDA:1,_RNvNtNtNtCslGh6CY2EcXh_14darwin_metrics8hardware11temperature5testss_17test_list_sensors
FNDA:1,_RNvNtNtNtCslGh6CY2EcXh_14darwin_metrics8hardware11temperature5testss_18test_fan_functions
FNDA:1,_RNvNtNtNtCslGh6CY2EcXh_14darwin_metrics8hardware11temperature5testss_19test_should_refresh
FNDA:1,_RNvNtNtNtCslGh6CY2EcXh_14darwin_metrics8hardware11temperature5testss_20test_cpu_temperature
FNDA:1,_RNvNtNtNtCslGh6CY2EcXh_14darwin_metrics8hardware11temperature5testss_20test_gpu_temperature
FNDA:1,_RNvNtNtNtCslGh6CY2EcXh_14darwin_metrics8hardware11temperature5testss_20test_temperature_new
FNDA:1,_RNvNtNtNtCslGh6CY2EcXh_14darwin_metrics8hardware11temperature5testss_23test_additional_sensors
FNDA:1,_RNvNtNtNtCslGh6CY2EcXh_14darwin_metrics8hardware11temperature5testss_24test_get_thermal_metrics
FNDA:1,_RNvNtNtNtCslGh6CY2EcXh_14darwin_metrics8hardware11temperature5testss_27test_is_throttling_property
FNDA:1,_RNvNtNtNtCslGh6CY2EcXh_14darwin_metrics8hardware11temperature5testss_40test_is_throttling_temperature_heuristic
FNDA:0,_RNCNCNvMs_NtNtCslGh6CY2EcXh_14darwin_metrics8hardware11temperatureNtB8_11Temperature13refresh_async00Bc_
FNDA:0,_RNCNCNvMs_NtNtCslGh6CY2EcXh_14darwin_metrics8hardware11temperatureNtB8_11Temperature13refresh_async0s0_0Bc_
FNDA:0,_RNCNCNvMs_NtNtCslGh6CY2EcXh_14darwin_metrics8hardware11temperatureNtB8_11Temperature13refresh_async0s1_0Bc_
FNDA:0,_RNCNCNvMs_NtNtCslGh6CY2EcXh_14darwin_metrics8hardware11temperatureNtB8_11Temperature13refresh_async0s_0Bc_
FNDA:0,_RNCNCNvMs_NtNtCslGh6CY2EcXh_14darwin_metrics8hardware11temperatureNtB8_11Temperature19is_throttling_async00Bc_
FNDA:0,_RNCNCNvMs_NtNtCslGh6CY2EcXh_14darwin_metrics8hardware11temperatureNtB8_11Temperature19is_throttling_async0s_0Bc_
FNDA:0,_RNCNCNvMs_NtNtCslGh6CY2EcXh_14darwin_metrics8hardware11temperatureNtB8_11Temperature21cpu_temperature_async00Bc_
FNDA:0,_RNCNCNvMs_NtNtCslGh6CY2EcXh_14darwin_metrics8hardware11temperatureNtB8_11Temperature21gpu_temperature_async00Bc_
FNDA:0,_RNCNCNvMs_NtNtCslGh6CY2EcXh_14darwin_metrics8hardware11temperatureNtB8_11Temperature25ambient_temperature_async00Bc_
FNDA:0,_RNCNCNvMs_NtNtCslGh6CY2EcXh_14darwin_metrics8hardware11temperatureNtB8_11Temperature25battery_temperature_async00Bc_
FNDA:0,_RNCNCNvMs_NtNtCslGh6CY2EcXh_14darwin_metrics8hardware11temperatureNtB8_11Temperature26heatsink_temperature_async00Bc_
FNDA:0,_RNCNvMs_NtNtCslGh6CY2EcXh_14darwin_metrics8hardware11temperatureNtB6_11Temperature13refresh_async0Ba_
FNDA:0,_RNCNvMs_NtNtCslGh6CY2EcXh_14darwin_metrics8hardware11temperatureNtB6_11Temperature19is_throttling_async0Ba_
FNDA:0,_RNCNvMs_NtNtCslGh6CY2EcXh_14darwin_metrics8hardware11temperatureNtB6_11Temperature21cpu_temperature_async0Ba_
FNDA:0,_RNCNvMs_NtNtCslGh6CY2EcXh_14darwin_metrics8hardware11temperatureNtB6_11Temperature21gpu_temperature_async0Ba_
FNDA:0,_RNCNvMs_NtNtCslGh6CY2EcXh_14darwin_metrics8hardware11temperatureNtB6_11Temperature22get_sensor_temperature0Ba_
FNDA:0,_RNCNvMs_NtNtCslGh6CY2EcXh_14darwin_metrics8hardware11temperatureNtB6_11Temperature25ambient_temperature_async0Ba_
FNDA:0,_RNCNvMs_NtNtCslGh6CY2EcXh_14darwin_metrics8hardware11temperatureNtB6_11Temperature25battery_temperature_async0Ba_
FNDA:0,_RNCNvMs_NtNtCslGh6CY2EcXh_14darwin_metrics8hardware11temperatureNtB6_11Temperature25get_thermal_metrics_async0Ba_
FNDA:0,_RNCNvMs_NtNtCslGh6CY2EcXh_14darwin_metrics8hardware11temperatureNtB6_11Temperature26heatsink_temperature_async0Ba_
FNDA:0,_RNCNvMs_NtNtCslGh6CY2EcXh_14darwin_metrics8hardware11temperatureNtB6_11Temperature9cpu_power0Ba_
FNDA:0,_RNvMs_NtNtCslGh6CY2EcXh_14darwin_metrics8hardware11temperatureNtB4_11Temperature13is_throttling
FNDA:0,_RNvMs_NtNtCslGh6CY2EcXh_14darwin_metrics8hardware11temperatureNtB4_11Temperature13refresh_async
FNDA:0,_RNvMs_NtNtCslGh6CY2EcXh_14darwin_metrics8hardware11temperatureNtB4_11Temperature19is_throttling_async
FNDA:0,_RNvMs_NtNtCslGh6CY2EcXh_14darwin_metrics8hardware11temperatureNtB4_11Temperature21cpu_temperature_async
FNDA:0,_RNvMs_NtNtCslGh6CY2EcXh_14darwin_metrics8hardware11temperatureNtB4_11Temperature21gpu_temperature_async
FNDA:0,_RNvMs_NtNtCslGh6CY2EcXh_14darwin_metrics8hardware11temperatureNtB4_11Temperature22get_sensor_temperature
FNDA:0,_RNvMs_NtNtCslGh6CY2EcXh_14darwin_metrics8hardware11temperatureNtB4_11Temperature25ambient_temperature_async
FNDA:0,_RNvMs_NtNtCslGh6CY2EcXh_14darwin_metrics8hardware11temperatureNtB4_11Temperature25battery_temperature_async
FNDA:0,_RNvMs_NtNtCslGh6CY2EcXh_14darwin_metrics8hardware11temperatureNtB4_11Temperature25get_thermal_metrics_async
FNDA:0,_RNvMs_NtNtCslGh6CY2EcXh_14darwin_metrics8hardware11temperatureNtB4_11Temperature26heatsink_temperature_async
FNDA:0,_RNvMs_NtNtCslGh6CY2EcXh_14darwin_metrics8hardware11temperatureNtB4_11Temperature9cpu_power
FNDA:0,_RNvXs0_NtNtCslGh6CY2EcXh_14darwin_metrics8hardware11temperatureNtB5_11TemperatureNtNtCs4P3ALgZxGbJ_4core7default7Default7default
FNDA:0,_RNCNvMs_NtNtCslGh6CY2EcXh_14darwin_metrics8hardware11temperatureNtB6_11Temperature15cpu_temperature0Ba_
FNDA:0,_RNCNvMs_NtNtCslGh6CY2EcXh_14darwin_metrics8hardware11temperatureNtB6_11Temperature15gpu_temperature0Ba_
FNDA:0,_RNCNvMs_NtNtCslGh6CY2EcXh_14darwin_metrics8hardware11temperatureNtB6_11Temperature19ambient_temperature0Ba_
FNDA:0,_RNCNvMs_NtNtCslGh6CY2EcXh_14darwin_metrics8hardware11temperatureNtB6_11Temperature19battery_temperature0Ba_
FNDA:0,_RNCNvMs_NtNtCslGh6CY2EcXh_14darwin_metrics8hardware11temperatureNtB6_11Temperature20heatsink_temperature0Ba_
FNDA:1,_RNCNvMs_NtNtCslGh6CY2EcXh_14darwin_metrics8hardware11temperatureNtB6_11Temperature7get_fan0Ba_
FNDA:8,_RNvMs_NtNtCslGh6CY2EcXh_14darwin_metrics8hardware11temperatureNtB4_11Temperature11with_config
FNDA:1,_RNvMs_NtNtCslGh6CY2EcXh_14darwin_metrics8hardware11temperatureNtB4_11Temperature12list_sensors
FNDA:3,_RNvMs_NtNtCslGh6CY2EcXh_14darwin_metrics8hardware11temperatureNtB4_11Temperature14should_refresh
FNDA:1,_RNvMs_NtNtCslGh6CY2EcXh_14darwin_metrics8hardware11temperatureNtB4_11Temperature15cpu_temperature
FNDA:1,_RNvMs_NtNtCslGh6CY2EcXh_14darwin_metrics8hardware11temperatureNtB4_11Temperature15gpu_temperature
FNDA:1,_RNvMs_NtNtCslGh6CY2EcXh_14darwin_metrics8hardware11temperatureNtB4_11Temperature19ambient_temperature
FNDA:1,_RNvMs_NtNtCslGh6CY2EcXh_14darwin_metrics8hardware11temperatureNtB4_11Temperature19battery_temperature
FNDA:1,_RNvMs_NtNtCslGh6CY2EcXh_14darwin_metrics8hardware11temperatureNtB4_11Temperature19get_thermal_metrics
FNDA:1,_RNvMs_NtNtCslGh6CY2EcXh_14darwin_metrics8hardware11temperatureNtB4_11Temperature20heatsink_temperature
FNDA:3,_RNvMs_NtNtCslGh6CY2EcXh_14darwin_metrics8hardware11temperatureNtB4_11Temperature3new
FNDA:3,_RNvMs_NtNtCslGh6CY2EcXh_14darwin_metrics8hardware11temperatureNtB4_11Temperature7get_fan
FNDA:1,_RNvMs_NtNtCslGh6CY2EcXh_14darwin_metrics8hardware11temperatureNtB4_11Temperature7refresh
FNDA:1,_RNvMs_NtNtCslGh6CY2EcXh_14darwin_metrics8hardware11temperatureNtB4_11Temperature8get_fans
FNDA:1,_RNvMs_NtNtCslGh6CY2EcXh_14darwin_metrics8hardware11temperatureNtB4_11Temperature9fan_count
FNDA:3,_RNvXNtNtCslGh6CY2EcXh_14darwin_metrics8hardware11temperatureNtB2_17TemperatureConfigNtNtCs4P3ALgZxGbJ_4core7default7Default7default
FNDA:0,_RNCNCNvMs_NtNtCsGBPSOZydBW_14darwin_metrics8hardware11temperatureNtB8_11Temperature13refresh_async00Bc_
FNDA:0,_RNCNCNvMs_NtNtCsGBPSOZydBW_14darwin_metrics8hardware11temperatureNtB8_11Temperature13refresh_async0s0_0Bc_
FNDA:0,_RNCNCNvMs_NtNtCsGBPSOZydBW_14darwin_metrics8hardware11temperatureNtB8_11Temperature13refresh_async0s1_0Bc_
FNDA:0,_RNCNCNvMs_NtNtCsGBPSOZydBW_14darwin_metrics8hardware11temperatureNtB8_11Temperature13refresh_async0s_0Bc_
FNDA:0,_RNCNCNvMs_NtNtCsGBPSOZydBW_14darwin_metrics8hardware11temperatureNtB8_11Temperature19is_throttling_async00Bc_
FNDA:0,_RNCNCNvMs_NtNtCsGBPSOZydBW_14darwin_metrics8hardware11temperatureNtB8_11Temperature19is_throttling_async0s_0Bc_
FNDA:0,_RNCNCNvMs_NtNtCsGBPSOZydBW_14darwin_metrics8hardware11temperatureNtB8_11Temperature21cpu_temperature_async00Bc_
FNDA:0,_RNCNCNvMs_NtNtCsGBPSOZydBW_14darwin_metrics8hardware11temperatureNtB8_11Temperature21gpu_temperature_async00Bc_
FNDA:0,_RNCNCNvMs_NtNtCsGBPSOZydBW_14darwin_metrics8hardware11temperatureNtB8_11Temperature25ambient_temperature_async00Bc_
FNDA:0,_RNCNCNvMs_NtNtCsGBPSOZydBW_14darwin_metrics8hardware11temperatureNtB8_11Temperature25battery_temperature_async00Bc_
FNDA:0,_RNCNCNvMs_NtNtCsGBPSOZydBW_14darwin_metrics8hardware11temperatureNtB8_11Temperature26heatsink_temperature_async00Bc_
FNDA:0,_RNCNvMs_NtNtCsGBPSOZydBW_14darwin_metrics8hardware11temperatureNtB6_11Temperature13refresh_async0Ba_
FNDA:0,_RNCNvMs_NtNtCsGBPSOZydBW_14darwin_metrics8hardware11temperatureNtB6_11Temperature19is_throttling_async0Ba_
FNDA:0,_RNCNvMs_NtNtCsGBPSOZydBW_14darwin_metrics8hardware11temperatureNtB6_11Temperature21cpu_temperature_async0Ba_
FNDA:0,_RNCNvMs_NtNtCsGBPSOZydBW_14darwin_metrics8hardware11temperatureNtB6_11Temperature21gpu_temperature_async0Ba_
FNDA:0,_RNCNvMs_NtNtCsGBPSOZydBW_14darwin_metrics8hardware11temperatureNtB6_11Temperature25ambient_temperature_async0Ba_
FNDA:0,_RNCNvMs_NtNtCsGBPSOZydBW_14darwin_metrics8hardware11temperatureNtB6_11Temperature25battery_temperature_async0Ba_
FNDA:0,_RNCNvMs_NtNtCsGBPSOZydBW_14darwin_metrics8hardware11temperatureNtB6_11Temperature25get_thermal_metrics_async0Ba_
FNDA:0,_RNCNvMs_NtNtCsGBPSOZydBW_14darwin_metrics8hardware11temperatureNtB6_11Temperature26heatsink_temperature_async0Ba_
FNDA:0,_RNCNvMs_NtNtCsGBPSOZydBW_14darwin_metrics8hardware11temperatureNtB6_11Temperature15cpu_temperature0Ba_
FNDA:0,_RNCNvMs_NtNtCsGBPSOZydBW_14darwin_metrics8hardware11temperatureNtB6_11Temperature15gpu_temperature0Ba_
FNDA:0,_RNCNvMs_NtNtCsGBPSOZydBW_14darwin_metrics8hardware11temperatureNtB6_11Temperature19ambient_temperature0Ba_
FNDA:0,_RNCNvMs_NtNtCsGBPSOZydBW_14darwin_metrics8hardware11temperatureNtB6_11Temperature19battery_temperature0Ba_
FNDA:0,_RNCNvMs_NtNtCsGBPSOZydBW_14darwin_metrics8hardware11temperatureNtB6_11Temperature20heatsink_temperature0Ba_
FNDA:0,_RNCNvMs_NtNtCsGBPSOZydBW_14darwin_metrics8hardware11temperatureNtB6_11Temperature22get_sensor_temperature0Ba_
FNDA:0,_RNCNvMs_NtNtCsGBPSOZydBW_14darwin_metrics8hardware11temperatureNtB6_11Temperature7get_fan0Ba_
FNDA:0,_RNCNvMs_NtNtCsGBPSOZydBW_14darwin_metrics8hardware11temperatureNtB6_11Temperature9cpu_power0Ba_
FNDA:0,_RNvMs_NtNtCsGBPSOZydBW_14darwin_metrics8hardware11temperatureNtB4_11Temperature11with_config
FNDA:0,_RNvMs_NtNtCsGBPSOZydBW_14darwin_metrics8hardware11temperatureNtB4_11Temperature12list_sensors
FNDA:0,_RNvMs_NtNtCsGBPSOZydBW_14darwin_metrics8hardware11temperatureNtB4_11Temperature13is_throttling
FNDA:0,_RNvMs_NtNtCsGBPSOZydBW_14darwin_metrics8hardware11temperatureNtB4_11Temperature13refresh_async
FNDA:0,_RNvMs_NtNtCsGBPSOZydBW_14darwin_metrics8hardware11temperatureNtB4_11Temperature14should_refresh
FNDA:0,_RNvMs_NtNtCsGBPSOZydBW_14darwin_metrics8hardware11temperatureNtB4_11Temperature15cpu_temperature
FNDA:0,_RNvMs_NtNtCsGBPSOZydBW_14darwin_metrics8hardware11temperatureNtB4_11Temperature15gpu_temperature
FNDA:0,_RNvMs_NtNtCsGBPSOZydBW_14darwin_metrics8hardware11temperatureNtB4_11Temperature19ambient_temperature
FNDA:0,_RNvMs_NtNtCsGBPSOZydBW_14darwin_metrics8hardware11temperatureNtB4_11Temperature19battery_temperature
FNDA:0,_RNvMs_NtNtCsGBPSOZydBW_14darwin_metrics8hardware11temperatureNtB4_11Temperature19get_thermal_metrics
FNDA:0,_RNvMs_NtNtCsGBPSOZydBW_14darwin_metrics8hardware11temperatureNtB4_11Temperature19is_throttling_async
FNDA:0,_RNvMs_NtNtCsGBPSOZydBW_14darwin_metrics8hardware11temperatureNtB4_11Temperature20heatsink_temperature
FNDA:0,_RNvMs_NtNtCsGBPSOZydBW_14darwin_metrics8hardware11temperatureNtB4_11Temperature21cpu_temperature_async
FNDA:0,_RNvMs_NtNtCsGBPSOZydBW_14darwin_metrics8hardware11temperatureNtB4_11Temperature21gpu_temperature_async
FNDA:0,_RNvMs_NtNtCsGBPSOZydBW_14darwin_metrics8hardware11temperatureNtB4_11Temperature22get_sensor_temperature
FNDA:0,_RNvMs_NtNtCsGBPSOZydBW_14darwin_metrics8hardware11temperatureNtB4_11Temperature25ambient_temperature_async
FNDA:0,_RNvMs_NtNtCsGBPSOZydBW_14darwin_metrics8hardware11temperatureNtB4_11Temperature25battery_temperature_async
FNDA:0,_RNvMs_NtNtCsGBPSOZydBW_14darwin_metrics8hardware11temperatureNtB4_11Temperature25get_thermal_metrics_async
FNDA:0,_RNvMs_NtNtCsGBPSOZydBW_14darwin_metrics8hardware11temperatureNtB4_11Temperature26heatsink_temperature_async
FNDA:0,_RNvMs_NtNtCsGBPSOZydBW_14darwin_metrics8hardware11temperatureNtB4_11Temperature3new
FNDA:0,_RNvMs_NtNtCsGBPSOZydBW_14darwin_metrics8hardware11temperatureNtB4_11Temperature7get_fan
FNDA:0,_RNvMs_NtNtCsGBPSOZydBW_14darwin_metrics8hardware11temperatureNtB4_11Temperature7refresh
FNDA:0,_RNvMs_NtNtCsGBPSOZydBW_14darwin_metrics8hardware11temperatureNtB4_11Temperature8get_fans
FNDA:0,_RNvMs_NtNtCsGBPSOZydBW_14darwin_metrics8hardware11temperatureNtB4_11Temperature9cpu_power
FNDA:0,_RNvMs_NtNtCsGBPSOZydBW_14darwin_metrics8hardware11temperatureNtB4_11Temperature9fan_count
FNDA:0,_RNvXNtNtCsGBPSOZydBW_14darwin_metrics8hardware11temperatureNtB2_17TemperatureConfigNtNtCs4P3ALgZxGbJ_4core7default7Default7default
FNDA:0,_RNvXs0_NtNtCsGBPSOZydBW_14darwin_metrics8hardware11temperatureNtB5_11TemperatureNtNtCs4P3ALgZxGbJ_4core7default7Default7default
FNF:70
FNH:32
DA:59,3
DA:60,3
DA:61,3
DA:62,3
DA:63,3
DA:64,3
DA:65,3
DA:89,3
DA:90,3
DA:91,3
DA:92,3
DA:93,3
DA:94,3
DA:95,3
DA:96,3
DA:97,3
DA:98,3
DA:99,3
DA:102,8
DA:103,8
DA:104,8
DA:105,8
DA:106,8
DA:107,8
DA:108,8
DA:109,8
DA:110,8
DA:111,8
DA:112,8
DA:115,3
DA:116,3
DA:117,3
DA:120,1
DA:121,1
DA:122,1
DA:123,1
DA:124,1
DA:125,1
DA:126,1
DA:127,1
DA:128,1
DA:129,1
DA:130,1
DA:131,1
DA:132,1
DA:133,1
DA:134,1
DA:135,1
DA:136,1
DA:137,1
DA:138,1
DA:139,1
DA:140,1
DA:141,1
DA:142,1
DA:143,1
DA:144,1
DA:145,1
DA:146,1
DA:147,1
DA:148,1
DA:149,1
DA:150,1
DA:151,1
DA:152,1
DA:153,1
DA:154,1
DA:155,1
DA:156,1
DA:157,1
DA:158,1
DA:159,1
DA:160,1
DA:161,1
DA:162,1
DA:163,1
DA:164,1
DA:165,1
DA:166,1
DA:167,1
DA:168,1
DA:169,1
DA:170,1
DA:171,1
DA:172,1
DA:173,1
DA:174,1
DA:175,1
DA:176,1
DA:177,1
DA:178,1
DA:179,1
DA:180,1
DA:181,1
DA:182,1
DA:183,1
DA:184,1
DA:185,1
DA:186,1
DA:187,1
DA:188,1
DA:189,1
DA:190,1
DA:191,1
DA:192,1
DA:193,1
DA:194,1
DA:195,1
DA:196,1
DA:197,1
DA:198,1
DA:199,1
DA:200,1
DA:201,1
DA:202,1
DA:203,1
DA:204,1
DA:205,1
DA:208,1
DA:209,1
DA:210,0
DA:211,1
DA:213,1
DA:214,0
DA:215,1
DA:216,1
DA:219,1
DA:220,1
DA:221,0
DA:222,1
DA:224,1
DA:225,0
DA:226,1
DA:227,1
DA:230,1
DA:231,1
DA:232,0
DA:233,1
DA:235,1
DA:236,0
DA:237,1
DA:238,1
DA:241,1
DA:242,1
DA:243,0
DA:244,1
DA:246,1
DA:247,0
DA:248,1
DA:249,1
DA:252,1
DA:253,1
DA:254,0
DA:255,1
DA:257,1
DA:258,0
DA:259,1
DA:260,1
DA:263,1
DA:264,1
DA:265,0
DA:266,1
DA:268,1
DA:269,5
DA:270,5
DA:271,5
DA:272,4
DA:273,3
DA:274,2
DA:275,1
DA:276,1
DA:277,1
DA:278,1
DA:281,5
DA:284,1
DA:285,1
DA:288,0
DA:289,0
DA:290,0
DA:291,0
DA:293,0
DA:294,0
DA:295,0
DA:296,0
DA:297,0
DA:300,1
DA:301,1
DA:302,0
DA:303,1
DA:305,1
DA:306,1
DA:309,1
DA:310,1
DA:311,0
DA:312,1
DA:314,1
DA:315,1
DA:318,3
DA:319,3
DA:320,0
DA:321,3
DA:323,3
DA:324,3
DA:325,3
DA:326,3
DA:329,0
DA:330,0
DA:331,0
DA:332,0
DA:334,0
DA:335,0
DA:336,0
DA:337,0
DA:340,0
DA:341,0
DA:342,0
DA:343,0
DA:346,0
DA:347,0
DA:348,0
DA:351,0
DA:352,0
DA:353,0
DA:356,1
DA:357,1
DA:358,1
DA:360,1
DA:361,1
DA:362,1
DA:363,1
DA:364,1
DA:365,1
DA:366,1
DA:367,1
DA:368,1
DA:369,1
DA:370,1
DA:373,0
DA:374,0
DA:375,0
DA:376,0
DA:378,0
DA:379,0
DA:380,0
DA:381,0
DA:384,0
DA:385,0
DA:386,0
DA:387,0
DA:389,0
DA:390,0
DA:391,0
DA:392,0
DA:395,0
DA:396,0
DA:397,0
DA:398,0
DA:400,0
DA:401,0
DA:402,0
DA:403,0
DA:406,0
DA:407,0
DA:408,0
DA:409,0
DA:411,0
DA:412,0
DA:413,0
DA:414,0
DA:417,0
DA:418,0
DA:419,0
DA:420,0
DA:422,0
DA:423,0
DA:424,0
DA:425,0
DA:428,0
DA:429,0
DA:430,0
DA:431,0
DA:432,0
DA:433,0
DA:434,0
DA:437,0
DA:438,0
DA:441,0
DA:442,0
DA:443,0
DA:445,0
DA:446,0
DA:447,0
DA:449,0
DA:450,0
DA:451,0
DA:454,0
DA:455,0
DA:456,0
DA:457,0
DA:458,0
DA:459,0
DA:460,0
DA:461,0
DA:462,0
DA:463,0
DA:465,0
DA:468,0
DA:469,0
DA:470,0
DA:471,0
DA:472,0
DA:473,0
DA:474,0
DA:475,0
DA:476,0
DA:479,0
DA:480,0
DA:481,0
DA:482,0
DA:485,0
DA:486,0
DA:487,0
DA:489,0
DA:490,0
DA:491,0
DA:492,0
DA:493,0
DA:494,0
DA:495,0
DA:496,0
DA:497,0
DA:498,0
DA:499,0
DA:502,0
DA:503,0
DA:504,0
DA:505,0
DA:509,0
DA:510,0
DA:511,0
DA:512,0
DA:514,0
DA:517,0
DA:518,0
DA:521,0
DA:546,0
DA:547,0
DA:548,0
DA:558,1
DA:559,1
DA:560,1
DA:561,1
DA:562,1
DA:563,1
DA:564,1
DA:567,1
DA:568,1
DA:569,1
DA:570,1
DA:571,1
DA:572,1
DA:573,1
DA:574,1
DA:575,1
DA:576,1
DA:577,1
DA:578,1
DA:581,1
DA:582,1
DA:583,1
DA:584,1
DA:585,1
DA:586,1
DA:587,1
DA:588,1
DA:589,1
DA:590,1
DA:593,1
DA:594,1
DA:597,1
DA:598,1
DA:599,1
DA:602,1
DA:603,1
DA:604,1
DA:605,1
DA:606,1
DA:607,1
DA:608,1
DA:609,1
DA:610,1
DA:611,1
DA:612,1
DA:613,1
DA:614,1
DA:615,1
DA:616,1
DA:619,1
DA:620,1
DA:621,1
DA:622,1
DA:623,1
DA:624,1
DA:625,1
DA:626,1
DA:627,1
DA:628,1
DA:629,1
DA:630,1
DA:631,1
DA:632,1
DA:635,1
DA:636,1
DA:637,1
DA:638,1
DA:639,1
DA:640,1
DA:641,1
DA:642,1
DA:643,1
DA:644,1
DA:645,1
DA:646,1
DA:647,1
DA:648,1
DA:649,1
DA:650,1
DA:651,1
DA:652,1
DA:655,1
DA:656,1
DA:657,1
DA:658,1
DA:659,1
DA:660,1
DA:661,1
DA:662,1
DA:663,1
DA:664,1
DA:665,1
DA:666,1
DA:667,1
DA:668,1
DA:669,1
DA:670,1
DA:671,1
DA:672,1
DA:673,1
DA:676,1
DA:677,1
DA:678,1
DA:679,1
DA:680,1
DA:681,4
DA:682,5
DA:683,5
DA:684,5
DA:685,2
DA:686,2
DA:687,2
DA:688,3
DA:689,3
DA:690,1
DA:691,1
DA:693,0
DA:695,3
DA:696,1
DA:697,1
DA:698,1
DA:699,1
DA:700,1
DA:701,1
DA:702,1
DA:705,1
DA:706,1
DA:707,1
DA:708,1
DA:709,1
DA:710,1
DA:711,1
DA:712,1
DA:713,1
DA:714,1
DA:715,1
DA:716,1
DA:717,1
DA:718,1
DA:719,1
DA:720,1
DA:721,1
DA:722,1
DA:723,1
DA:724,1
DA:725,1
DA:726,1
DA:727,1
DA:728,1
DA:729,1
DA:730,1
DA:733,1
DA:734,1
DA:735,1
DA:736,1
DA:739,1
DA:740,1
DA:741,1
DA:742,1
DA:743,1
DA:744,1
DA:746,1
DA:747,1
DA:748,1
DA:751,1
DA:752,1
DA:755,1
DA:756,1
DA:757,1
DA:758,1
DA:759,1
DA:760,1
DA:761,1
DA:764,1
DA:765,1
DA:766,1
DA:767,1
DA:770,1
DA:771,1
DA:772,1
DA:773,1
DA:774,1
DA:775,1
DA:776,1
DA:777,1
DA:780,1
DA:781,1
DA:782,1
DA:785,1
DA:786,1
DA:787,1
DA:788,1
DA:789,1
DA:790,1
DA:791,1
DA:792,1
DA:793,1
DA:794,1
DA:795,1
DA:796,1
DA:797,1
DA:798,1
DA:799,1
DA:800,1
DA:801,1
DA:802,1
DA:803,1
DA:804,1
DA:805,1
DA:806,1
DA:807,1
DA:808,1
DA:809,1
DA:810,1
DA:811,1
DA:812,1
DA:815,1
DA:816,1
DA:817,1
DA:818,1
DA:819,1
DA:820,1
DA:821,1
BRF:0
BRH:0
LF:617
LH:427
end_of_record
SF:/Users/smeya/git/darwin-metrics/src/network/interface.rs
FN:362,_RNCNvMs1_NtNtCslGh6CY2EcXh_14darwin_metrics7network9interfaceNtB7_14NetworkManager18total_upload_speed0Bb_
FN:357,_RNCNvMs1_NtNtCslGh6CY2EcXh_14darwin_metrics7network9interfaceNtB7_14NetworkManager20total_download_speed0Bb_
FN:828,_RNvNtNtNtCslGh6CY2EcXh_14darwin_metrics7network9interface5testss_23test_interface_creation
FN:819,_RNvNtNtNtCslGh6CY2EcXh_14darwin_metrics7network9interface5testss_27test_interface_type_display
FN:1050,_RNvNtNtNtCslGh6CY2EcXh_14darwin_metrics7network9interface5testss_29test_determine_interface_type
FN:868,_RNvNtNtNtCslGh6CY2EcXh_14darwin_metrics7network9interface5testss_29test_interface_update_traffic
FN:964,_RNvNtNtNtCslGh6CY2EcXh_14darwin_metrics7network9interface5testss_29test_network_manager_creation
FN:1078,_RNvNtNtNtCslGh6CY2EcXh_14darwin_metrics7network9interface5testss_30test_network_speed_calculation
FN:910,_RNvNtNtNtCslGh6CY2EcXh_14darwin_metrics7network9interface5testss_33test_interface_wireless_detection
FN:971,_RNvNtNtNtCslGh6CY2EcXh_14darwin_metrics7network9interface5testss_33test_traffic_stats_implementation
FN:1013,_RNvNtNtNtCslGh6CY2EcXh_14darwin_metrics7network9interface5testss_37test_network_manager_interface_access
FN:475,_RNCNvMs1_NtNtCslGh6CY2EcXh_14darwin_metrics7network9interfaceNtB7_14NetworkManager21get_network_addresses0Bb_
FN:596,_RNCNvMs1_NtNtCslGh6CY2EcXh_14darwin_metrics7network9interfaceNtB7_14NetworkManager27update_traffic_stats_native0Bb_
FN:506,_RNCNvMs1_NtNtCslGh6CY2EcXh_14darwin_metrics7network9interfaceNtB7_14NetworkManager21get_network_addressess_0Bb_
FN:346,_RNvMs1_NtNtCslGh6CY2EcXh_14darwin_metrics7network9interfaceNtB5_14NetworkManager10interfaces
FN:351,_RNvMs1_NtNtCslGh6CY2EcXh_14darwin_metrics7network9interfaceNtB5_14NetworkManager13get_interface
FN:366,_RNvMs1_NtNtCslGh6CY2EcXh_14darwin_metrics7network9interfaceNtB5_14NetworkManager14get_interfaces
FN:361,_RNvMs1_NtNtCslGh6CY2EcXh_14darwin_metrics7network9interfaceNtB5_14NetworkManager18total_upload_speed
FN:356,_RNvMs1_NtNtCslGh6CY2EcXh_14darwin_metrics7network9interfaceNtB5_14NetworkManager20total_download_speed
FN:568,_RNvMs1_NtNtCslGh6CY2EcXh_14darwin_metrics7network9interfaceNtB5_14NetworkManager20update_traffic_stats
FN:463,_RNvMs1_NtNtCslGh6CY2EcXh_14darwin_metrics7network9interfaceNtB5_14NetworkManager21get_network_addresses
FN:710,_RNvMs1_NtNtCslGh6CY2EcXh_14darwin_metrics7network9interfaceNtB5_14NetworkManager24determine_interface_type
FN:582,_RNvMs1_NtNtCslGh6CY2EcXh_14darwin_metrics7network9interfaceNtB5_14NetworkManager27update_traffic_stats_native
FN:659,_RNvMs1_NtNtCslGh6CY2EcXh_14darwin_metrics7network9interfaceNtB5_14NetworkManager28update_traffic_stats_netstat
FN:301,_RNvMs1_NtNtCslGh6CY2EcXh_14darwin_metrics7network9interfaceNtB5_14NetworkManager3new
FN:324,_RNvMs1_NtNtCslGh6CY2EcXh_14darwin_metrics7network9interfaceNtB5_14NetworkManager6update
FN:173,_RNvMs_NtNtCslGh6CY2EcXh_14darwin_metrics7network9interfaceNtB4_9Interface11is_flag_set
FN:198,_RNvMs_NtNtCslGh6CY2EcXh_14darwin_metrics7network9interfaceNtB4_9Interface11is_loopback
FN:218,_RNvMs_NtNtCslGh6CY2EcXh_14darwin_metrics7network9interfaceNtB4_9Interface11is_wireless
FN:135,_RNvMs_NtNtCslGh6CY2EcXh_14darwin_metrics7network9interfaceNtB4_9Interface11mac_address
FN:130,_RNvMs_NtNtCslGh6CY2EcXh_14darwin_metrics7network9interfaceNtB4_9Interface14interface_type
FN:150,_RNvMs_NtNtCslGh6CY2EcXh_14darwin_metrics7network9interfaceNtB4_9Interface14update_traffic
FN:213,_RNvMs_NtNtCslGh6CY2EcXh_14darwin_metrics7network9interfaceNtB4_9Interface17is_point_to_point
FN:203,_RNvMs_NtNtCslGh6CY2EcXh_14darwin_metrics7network9interfaceNtB4_9Interface18supports_broadcast
FN:91,_RNvMs_NtNtCslGh6CY2EcXh_14darwin_metrics7network9interfaceNtB4_9Interface3new
FN:125,_RNvMs_NtNtCslGh6CY2EcXh_14darwin_metrics7network9interfaceNtB4_9Interface4name
FN:140,_RNvMs_NtNtCslGh6CY2EcXh_14darwin_metrics7network9interfaceNtB4_9Interface9addresses
FN:38,_RNvXNtNtCslGh6CY2EcXh_14darwin_metrics7network9interfaceNtB2_13InterfaceTypeNtNtCs4P3ALgZxGbJ_4core3fmt7Display3fmt
FN:230,_RNvXs0_NtNtCslGh6CY2EcXh_14darwin_metrics7network9interfaceNtB5_9InterfaceNtB7_14NetworkMetrics10bytes_sent
FN:250,_RNvXs0_NtNtCslGh6CY2EcXh_14darwin_metrics7network9interfaceNtB5_9InterfaceNtB7_14NetworkMetrics10collisions
FN:246,_RNvXs0_NtNtCslGh6CY2EcXh_14darwin_metrics7network9interfaceNtB5_9InterfaceNtB7_14NetworkMetrics11send_errors
FN:238,_RNvXs0_NtNtCslGh6CY2EcXh_14darwin_metrics7network9interfaceNtB5_9InterfaceNtB7_14NetworkMetrics12packets_sent
FN:258,_RNvXs0_NtNtCslGh6CY2EcXh_14darwin_metrics7network9interfaceNtB5_9InterfaceNtB7_14NetworkMetrics12upload_speed
FN:226,_RNvXs0_NtNtCslGh6CY2EcXh_14darwin_metrics7network9interfaceNtB5_9InterfaceNtB7_14NetworkMetrics14bytes_received
FN:254,_RNvXs0_NtNtCslGh6CY2EcXh_14darwin_metrics7network9interfaceNtB5_9InterfaceNtB7_14NetworkMetrics14download_speed
FN:242,_RNvXs0_NtNtCslGh6CY2EcXh_14darwin_metrics7network9interfaceNtB5_9InterfaceNtB7_14NetworkMetrics14receive_errors
FN:234,_RNvXs0_NtNtCslGh6CY2EcXh_14darwin_metrics7network9interfaceNtB5_9InterfaceNtB7_14NetworkMetrics16packets_received
FN:262,_RNvXs0_NtNtCslGh6CY2EcXh_14darwin_metrics7network9interfaceNtB5_9InterfaceNtB7_14NetworkMetrics9is_active
FN:766,_RNCNCNvMs1_NtNtCslGh6CY2EcXh_14darwin_metrics7network9interfaceNtB9_14NetworkManager12update_async00Bd_
FN:773,_RNCNCNvMs1_NtNtCslGh6CY2EcXh_14darwin_metrics7network9interfaceNtB9_14NetworkManager12update_async0s_0Bd_
FN:790,_RNCNCNvMs1_NtNtCslGh6CY2EcXh_14darwin_metrics7network9interfaceNtB9_14NetworkManager23active_interfaces_async00Bd_
FN:763,_RNCNvMs1_NtNtCslGh6CY2EcXh_14darwin_metrics7network9interfaceNtB7_14NetworkManager12update_async0Bb_
FN:808,_RNCNvMs1_NtNtCslGh6CY2EcXh_14darwin_metrics7network9interfaceNtB7_14NetworkManager19get_interface_async0Bb_
FN:796,_RNCNvMs1_NtNtCslGh6CY2EcXh_14darwin_metrics7network9interfaceNtB7_14NetworkManager20get_throughput_async0Bb_
FN:789,_RNCNvMs1_NtNtCslGh6CY2EcXh_14darwin_metrics7network9interfaceNtB7_14NetworkManager23active_interfaces_async0Bb_
FN:743,_RNCNvMs1_NtNtCslGh6CY2EcXh_14darwin_metrics7network9interfaceNtB7_14NetworkManager9new_async0Bb_
FN:763,_RNvMs1_NtNtCslGh6CY2EcXh_14darwin_metrics7network9interfaceNtB5_14NetworkManager12update_async
FN:808,_RNvMs1_NtNtCslGh6CY2EcXh_14darwin_metrics7network9interfaceNtB5_14NetworkManager19get_interface_async
FN:796,_RNvMs1_NtNtCslGh6CY2EcXh_14darwin_metrics7network9interfaceNtB5_14NetworkManager20get_throughput_async
FN:789,_RNvMs1_NtNtCslGh6CY2EcXh_14darwin_metrics7network9interfaceNtB5_14NetworkManager23active_interfaces_async
FN:743,_RNvMs1_NtNtCslGh6CY2EcXh_14darwin_metrics7network9interfaceNtB5_14NetworkManager9new_async
FN:193,_RNvMs_NtNtCslGh6CY2EcXh_14darwin_metrics7network9interfaceNtB4_9Interface15send_error_rate
FN:183,_RNvMs_NtNtCslGh6CY2EcXh_14darwin_metrics7network9interfaceNtB4_9Interface16packet_send_rate
FN:188,_RNvMs_NtNtCslGh6CY2EcXh_14darwin_metrics7network9interfaceNtB4_9Interface18receive_error_rate
FN:208,_RNvMs_NtNtCslGh6CY2EcXh_14darwin_metrics7network9interfaceNtB4_9Interface18supports_multicast
FN:178,_RNvMs_NtNtCslGh6CY2EcXh_14darwin_metrics7network9interfaceNtB4_9Interface19packet_receive_rate
FN:362,_RNCNvMs1_NtNtCsGBPSOZydBW_14darwin_metrics7network9interfaceNtB7_14NetworkManager18total_upload_speed0Bb_
FN:357,_RNCNvMs1_NtNtCsGBPSOZydBW_14darwin_metrics7network9interfaceNtB7_14NetworkManager20total_download_speed0Bb_
FN:506,_RNCNvMs1_NtNtCsGBPSOZydBW_14darwin_metrics7network9interfaceNtB7_14NetworkManager21get_network_addressess_0Bb_
FN:346,_RNvMs1_NtNtCsGBPSOZydBW_14darwin_metrics7network9interfaceNtB5_14NetworkManager10interfaces
FN:763,_RNvMs1_NtNtCsGBPSOZydBW_14darwin_metrics7network9interfaceNtB5_14NetworkManager12update_async
FN:351,_RNvMs1_NtNtCsGBPSOZydBW_14darwin_metrics7network9interfaceNtB5_14NetworkManager13get_interface
FN:366,_RNvMs1_NtNtCsGBPSOZydBW_14darwin_metrics7network9interfaceNtB5_14NetworkManager14get_interfaces
FN:361,_RNvMs1_NtNtCsGBPSOZydBW_14darwin_metrics7network9interfaceNtB5_14NetworkManager18total_upload_speed
FN:808,_RNvMs1_NtNtCsGBPSOZydBW_14darwin_metrics7network9interfaceNtB5_14NetworkManager19get_interface_async
FN:796,_RNvMs1_NtNtCsGBPSOZydBW_14darwin_metrics7network9interfaceNtB5_14NetworkManager20get_throughput_async
FN:356,_RNvMs1_NtNtCsGBPSOZydBW_14darwin_metrics7network9interfaceNtB5_14NetworkManager20total_download_speed
FN:568,_RNvMs1_NtNtCsGBPSOZydBW_14darwin_metrics7network9interfaceNtB5_14NetworkManager20update_traffic_stats
FN:463,_RNvMs1_NtNtCsGBPSOZydBW_14darwin_metrics7network9interfaceNtB5_14NetworkManager21get_network_addresses
FN:789,_RNvMs1_NtNtCsGBPSOZydBW_14darwin_metrics7network9interfaceNtB5_14NetworkManager23active_interfaces_async
FN:710,_RNvMs1_NtNtCsGBPSOZydBW_14darwin_metrics7network9interfaceNtB5_14NetworkManager24determine_interface_type
FN:582,_RNvMs1_NtNtCsGBPSOZydBW_14darwin_metrics7network9interfaceNtB5_14NetworkManager27update_traffic_stats_native
FN:659,_RNvMs1_NtNtCsGBPSOZydBW_14darwin_metrics7network9interfaceNtB5_14NetworkManager28update_traffic_stats_netstat
FN:301,_RNvMs1_NtNtCsGBPSOZydBW_14darwin_metrics7network9interfaceNtB5_14NetworkManager3new
FN:324,_RNvMs1_NtNtCsGBPSOZydBW_14darwin_metrics7network9interfaceNtB5_14NetworkManager6update
FN:743,_RNvMs1_NtNtCsGBPSOZydBW_14darwin_metrics7network9interfaceNtB5_14NetworkManager9new_async
FN:173,_RNvMs_NtNtCsGBPSOZydBW_14darwin_metrics7network9interfaceNtB4_9Interface11is_flag_set
FN:198,_RNvMs_NtNtCsGBPSOZydBW_14darwin_metrics7network9interfaceNtB4_9Interface11is_loopback
FN:218,_RNvMs_NtNtCsGBPSOZydBW_14darwin_metrics7network9interfaceNtB4_9Interface11is_wireless
FN:135,_RNvMs_NtNtCsGBPSOZydBW_14darwin_metrics7network9interfaceNtB4_9Interface11mac_address
FN:130,_RNvMs_NtNtCsGBPSOZydBW_14darwin_metrics7network9interfaceNtB4_9Interface14interface_type
FN:150,_RNvMs_NtNtCsGBPSOZydBW_14darwin_metrics7network9interfaceNtB4_9Interface14update_traffic
FN:193,_RNvMs_NtNtCsGBPSOZydBW_14darwin_metrics7network9interfaceNtB4_9Interface15send_error_rate
FN:183,_RNvMs_NtNtCsGBPSOZydBW_14darwin_metrics7network9interfaceNtB4_9Interface16packet_send_rate
FN:213,_RNvMs_NtNtCsGBPSOZydBW_14darwin_metrics7network9interfaceNtB4_9Interface17is_point_to_point
FN:188,_RNvMs_NtNtCsGBPSOZydBW_14darwin_metrics7network9interfaceNtB4_9Interface18receive_error_rate
FN:203,_RNvMs_NtNtCsGBPSOZydBW_14darwin_metrics7network9interfaceNtB4_9Interface18supports_broadcast
FN:208,_RNvMs_NtNtCsGBPSOZydBW_14darwin_metrics7network9interfaceNtB4_9Interface18supports_multicast
FN:178,_RNvMs_NtNtCsGBPSOZydBW_14darwin_metrics7network9interfaceNtB4_9Interface19packet_receive_rate
FN:91,_RNvMs_NtNtCsGBPSOZydBW_14darwin_metrics7network9interfaceNtB4_9Interface3new
FN:125,_RNvMs_NtNtCsGBPSOZydBW_14darwin_metrics7network9interfaceNtB4_9Interface4name
FN:140,_RNvMs_NtNtCsGBPSOZydBW_14darwin_metrics7network9interfaceNtB4_9Interface9addresses
FN:38,_RNvXNtNtCsGBPSOZydBW_14darwin_metrics7network9interfaceNtB2_13InterfaceTypeNtNtCs4P3ALgZxGbJ_4core3fmt7Display3fmt
FN:230,_RNvXs0_NtNtCsGBPSOZydBW_14darwin_metrics7network9interfaceNtB5_9InterfaceNtB7_14NetworkMetrics10bytes_sent
FN:250,_RNvXs0_NtNtCsGBPSOZydBW_14darwin_metrics7network9interfaceNtB5_9InterfaceNtB7_14NetworkMetrics10collisions
FN:246,_RNvXs0_NtNtCsGBPSOZydBW_14darwin_metrics7network9interfaceNtB5_9InterfaceNtB7_14NetworkMetrics11send_errors
FN:238,_RNvXs0_NtNtCsGBPSOZydBW_14darwin_metrics7network9interfaceNtB5_9InterfaceNtB7_14NetworkMetrics12packets_sent
FN:258,_RNvXs0_NtNtCsGBPSOZydBW_14darwin_metrics7network9interfaceNtB5_9InterfaceNtB7_14NetworkMetrics12upload_speed
FN:226,_RNvXs0_NtNtCsGBPSOZydBW_14darwin_metrics7network9interfaceNtB5_9InterfaceNtB7_14NetworkMetrics14bytes_received
FN:254,_RNvXs0_NtNtCsGBPSOZydBW_14darwin_metrics7network9interfaceNtB5_9InterfaceNtB7_14NetworkMetrics14download_speed
FN:242,_RNvXs0_NtNtCsGBPSOZydBW_14darwin_metrics7network9interfaceNtB5_9InterfaceNtB7_14NetworkMetrics14receive_errors
FN:234,_RNvXs0_NtNtCsGBPSOZydBW_14darwin_metrics7network9interfaceNtB5_9InterfaceNtB7_14NetworkMetrics16packets_received
FN:262,_RNvXs0_NtNtCsGBPSOZydBW_14darwin_metrics7network9interfaceNtB5_9InterfaceNtB7_14NetworkMetrics9is_active
FN:475,_RNCNvMs1_NtNtCsGBPSOZydBW_14darwin_metrics7network9interfaceNtB7_14NetworkManager21get_network_addresses0Bb_
FN:596,_RNCNvMs1_NtNtCsGBPSOZydBW_14darwin_metrics7network9interfaceNtB7_14NetworkManager27update_traffic_stats_native0Bb_
FN:766,_RNCNCNvMs1_NtNtCsGBPSOZydBW_14darwin_metrics7network9interfaceNtB9_14NetworkManager12update_async00Bd_
FN:773,_RNCNCNvMs1_NtNtCsGBPSOZydBW_14darwin_metrics7network9interfaceNtB9_14NetworkManager12update_async0s_0Bd_
FN:790,_RNCNCNvMs1_NtNtCsGBPSOZydBW_14darwin_metrics7network9interfaceNtB9_14NetworkManager23active_interfaces_async00Bd_
FN:763,_RNCNvMs1_NtNtCsGBPSOZydBW_14darwin_metrics7network9interfaceNtB7_14NetworkManager12update_async0Bb_
FN:808,_RNCNvMs1_NtNtCsGBPSOZydBW_14darwin_metrics7network9interfaceNtB7_14NetworkManager19get_interface_async0Bb_
FN:796,_RNCNvMs1_NtNtCsGBPSOZydBW_14darwin_metrics7network9interfaceNtB7_14NetworkManager20get_throughput_async0Bb_
FN:789,_RNCNvMs1_NtNtCsGBPSOZydBW_14darwin_metrics7network9interfaceNtB7_14NetworkManager23active_interfaces_async0Bb_
FN:743,_RNCNvMs1_NtNtCsGBPSOZydBW_14darwin_metrics7network9interfaceNtB7_14NetworkManager9new_async0Bb_
FNDA:4,_RNCNvMs1_NtNtCslGh6CY2EcXh_14darwin_metrics7network9interfaceNtB7_14NetworkManager18total_upload_speed0Bb_
FNDA:4,_RNCNvMs1_NtNtCslGh6CY2EcXh_14darwin_metrics7network9interfaceNtB7_14NetworkManager20total_download_speed0Bb_
FNDA:1,_RNvNtNtNtCslGh6CY2EcXh_14darwin_metrics7network9interface5testss_23test_interface_creation
FNDA:1,_RNvNtNtNtCslGh6CY2EcXh_14darwin_metrics7network9interface5testss_27test_interface_type_display
FNDA:1,_RNvNtNtNtCslGh6CY2EcXh_14darwin_metrics7network9interface5testss_29test_determine_interface_type
FNDA:1,_RNvNtNtNtCslGh6CY2EcXh_14darwin_metrics7network9interface5testss_29test_interface_update_traffic
FNDA:1,_RNvNtNtNtCslGh6CY2EcXh_14darwin_metrics7network9interface5testss_29test_network_manager_creation
FNDA:1,_RNvNtNtNtCslGh6CY2EcXh_14darwin_metrics7network9interface5testss_30test_network_speed_calculation
FNDA:1,_RNvNtNtNtCslGh6CY2EcXh_14darwin_metrics7network9interface5testss_33test_interface_wireless_detection
FNDA:1,_RNvNtNtNtCslGh6CY2EcXh_14darwin_metrics7network9interface5testss_33test_traffic_stats_implementation
FNDA:1,_RNvNtNtNtCslGh6CY2EcXh_14darwin_metrics7network9interface5testss_37test_network_manager_interface_access
FNDA:2,_RNCNvMs1_NtNtCslGh6CY2EcXh_14darwin_metrics7network9interfaceNtB7_14NetworkManager21get_network_addresses0Bb_
FNDA:4,_RNCNvMs1_NtNtCslGh6CY2EcXh_14darwin_metrics7network9interfaceNtB7_14NetworkManager27update_traffic_stats_native0Bb_
FNDA:52,_RNCNvMs1_NtNtCslGh6CY2EcXh_14darwin_metrics7network9interfaceNtB7_14NetworkManager21get_network_addressess_0Bb_
FNDA:2,_RNvMs1_NtNtCslGh6CY2EcXh_14darwin_metrics7network9interfaceNtB5_14NetworkManager10interfaces
FNDA:5,_RNvMs1_NtNtCslGh6CY2EcXh_14darwin_metrics7network9interfaceNtB5_14NetworkManager13get_interface
FNDA:2,_RNvMs1_NtNtCslGh6CY2EcXh_14darwin_metrics7network9interfaceNtB5_14NetworkManager14get_interfaces
FNDA:2,_RNvMs1_NtNtCslGh6CY2EcXh_14darwin_metrics7network9interfaceNtB5_14NetworkManager18total_upload_speed
FNDA:2,_RNvMs1_NtNtCslGh6CY2EcXh_14darwin_metrics7network9interfaceNtB5_14NetworkManager20total_download_speed
FNDA:3,_RNvMs1_NtNtCslGh6CY2EcXh_14darwin_metrics7network9interfaceNtB5_14NetworkManager20update_traffic_stats
FNDA:2,_RNvMs1_NtNtCslGh6CY2EcXh_14darwin_metrics7network9interfaceNtB5_14NetworkManager21get_network_addresses
FNDA:60,_RNvMs1_NtNtCslGh6CY2EcXh_14darwin_metrics7network9interfaceNtB5_14NetworkManager24determine_interface_type
FNDA:4,_RNvMs1_NtNtCslGh6CY2EcXh_14darwin_metrics7network9interfaceNtB5_14NetworkManager27update_traffic_stats_native
FNDA:4,_RNvMs1_NtNtCslGh6CY2EcXh_14darwin_metrics7network9interfaceNtB5_14NetworkManager28update_traffic_stats_netstat
FNDA:2,_RNvMs1_NtNtCslGh6CY2EcXh_14darwin_metrics7network9interfaceNtB5_14NetworkManager3new
FNDA:2,_RNvMs1_NtNtCslGh6CY2EcXh_14darwin_metrics7network9interfaceNtB5_14NetworkManager6update
FNDA:15,_RNvMs_NtNtCslGh6CY2EcXh_14darwin_metrics7network9interfaceNtB4_9Interface11is_flag_set
FNDA:5,_RNvMs_NtNtCslGh6CY2EcXh_14darwin_metrics7network9interfaceNtB4_9Interface11is_loopback
FNDA:4,_RNvMs_NtNtCslGh6CY2EcXh_14darwin_metrics7network9interfaceNtB4_9Interface11is_wireless
FNDA:3,_RNvMs_NtNtCslGh6CY2EcXh_14darwin_metrics7network9interfaceNtB4_9Interface11mac_address
FNDA:3,_RNvMs_NtNtCslGh6CY2EcXh_14darwin_metrics7network9interfaceNtB4_9Interface14interface_type
FNDA:47,_RNvMs_NtNtCslGh6CY2EcXh_14darwin_metrics7network9interfaceNtB4_9Interface14update_traffic
FNDA:1,_RNvMs_NtNtCslGh6CY2EcXh_14darwin_metrics7network9interfaceNtB4_9Interface17is_point_to_point
FNDA:1,_RNvMs_NtNtCslGh6CY2EcXh_14darwin_metrics7network9interfaceNtB4_9Interface18supports_broadcast
FNDA:73,_RNvMs_NtNtCslGh6CY2EcXh_14darwin_metrics7network9interfaceNtB4_9Interface3new
FNDA:65,_RNvMs_NtNtCslGh6CY2EcXh_14darwin_metrics7network9interfaceNtB4_9Interface4name
FNDA:1,_RNvMs_NtNtCslGh6CY2EcXh_14darwin_metrics7network9interfaceNtB4_9Interface9addresses
FNDA:5,_RNvXNtNtCslGh6CY2EcXh_14darwin_metrics7network9interfaceNtB2_13InterfaceTypeNtNtCs4P3ALgZxGbJ_4core3fmt7Display3fmt
FNDA:4,_RNvXs0_NtNtCslGh6CY2EcXh_14darwin_metrics7network9interfaceNtB5_9InterfaceNtB7_14NetworkMetrics10bytes_sent
FNDA:3,_RNvXs0_NtNtCslGh6CY2EcXh_14darwin_metrics7network9interfaceNtB5_9InterfaceNtB7_14NetworkMetrics10collisions
FNDA:3,_RNvXs0_NtNtCslGh6CY2EcXh_14darwin_metrics7network9interfaceNtB5_9InterfaceNtB7_14NetworkMetrics11send_errors
FNDA:3,_RNvXs0_NtNtCslGh6CY2EcXh_14darwin_metrics7network9interfaceNtB5_9InterfaceNtB7_14NetworkMetrics12packets_sent
FNDA:5,_RNvXs0_NtNtCslGh6CY2EcXh_14darwin_metrics7network9interfaceNtB5_9InterfaceNtB7_14NetworkMetrics12upload_speed
FNDA:4,_RNvXs0_NtNtCslGh6CY2EcXh_14darwin_metrics7network9interfaceNtB5_9InterfaceNtB7_14NetworkMetrics14bytes_received
FNDA:5,_RNvXs0_NtNtCslGh6CY2EcXh_14darwin_metrics7network9interfaceNtB5_9InterfaceNtB7_14NetworkMetrics14download_speed
FNDA:3,_RNvXs0_NtNtCslGh6CY2EcXh_14darwin_metrics7network9interfaceNtB5_9InterfaceNtB7_14NetworkMetrics14receive_errors
FNDA:3,_RNvXs0_NtNtCslGh6CY2EcXh_14darwin_metrics7network9interfaceNtB5_9InterfaceNtB7_14NetworkMetrics16packets_received
FNDA:2,_RNvXs0_NtNtCslGh6CY2EcXh_14darwin_metrics7network9interfaceNtB5_9InterfaceNtB7_14NetworkMetrics9is_active
FNDA:0,_RNCNCNvMs1_NtNtCslGh6CY2EcXh_14darwin_metrics7network9interfaceNtB9_14NetworkManager12update_async00Bd_
FNDA:0,_RNCNCNvMs1_NtNtCslGh6CY2EcXh_14darwin_metrics7network9interfaceNtB9_14NetworkManager12update_async0s_0Bd_
FNDA:0,_RNCNCNvMs1_NtNtCslGh6CY2EcXh_14darwin_metrics7network9interfaceNtB9_14NetworkManager23active_interfaces_async00Bd_
FNDA:0,_RNCNvMs1_NtNtCslGh6CY2EcXh_14darwin_metrics7network9interfaceNtB7_14NetworkManager12update_async0Bb_
FNDA:0,_RNCNvMs1_NtNtCslGh6CY2EcXh_14darwin_metrics7network9interfaceNtB7_14NetworkManager19get_interface_async0Bb_
FNDA:0,_RNCNvMs1_NtNtCslGh6CY2EcXh_14darwin_metrics7network9interfaceNtB7_14NetworkManager20get_throughput_async0Bb_
FNDA:0,_RNCNvMs1_NtNtCslGh6CY2EcXh_14darwin_metrics7network9interfaceNtB7_14NetworkManager23active_interfaces_async0Bb_
FNDA:0,_RNCNvMs1_NtNtCslGh6CY2EcXh_14darwin_metrics7network9interfaceNtB7_14NetworkManager9new_async0Bb_
FNDA:0,_RNvMs1_NtNtCslGh6CY2EcXh_14darwin_metrics7network9interfaceNtB5_14NetworkManager12update_async
FNDA:0,_RNvMs1_NtNtCslGh6CY2EcXh_14darwin_metrics7network9interfaceNtB5_14NetworkManager19get_interface_async
FNDA:0,_RNvMs1_NtNtCslGh6CY2EcXh_14darwin_metrics7network9interfaceNtB5_14NetworkManager20get_throughput_async
FNDA:0,_RNvMs1_NtNtCslGh6CY2EcXh_14darwin_metrics7network9interfaceNtB5_14NetworkManager23active_interfaces_async
FNDA:0,_RNvMs1_NtNtCslGh6CY2EcXh_14darwin_metrics7network9interfaceNtB5_14NetworkManager9new_async
FNDA:0,_RNvMs_NtNtCslGh6CY2EcXh_14darwin_metrics7network9interfaceNtB4_9Interface15send_error_rate
FNDA:0,_RNvMs_NtNtCslGh6CY2EcXh_14darwin_metrics7network9interfaceNtB4_9Interface16packet_send_rate
FNDA:0,_RNvMs_NtNtCslGh6CY2EcXh_14darwin_metrics7network9interfaceNtB4_9Interface18receive_error_rate
FNDA:0,_RNvMs_NtNtCslGh6CY2EcXh_14darwin_metrics7network9interfaceNtB4_9Interface18supports_multicast
FNDA:0,_RNvMs_NtNtCslGh6CY2EcXh_14darwin_metrics7network9interfaceNtB4_9Interface19packet_receive_rate
FNDA:0,_RNCNvMs1_NtNtCsGBPSOZydBW_14darwin_metrics7network9interfaceNtB7_14NetworkManager18total_upload_speed0Bb_
FNDA:0,_RNCNvMs1_NtNtCsGBPSOZydBW_14darwin_metrics7network9interfaceNtB7_14NetworkManager20total_download_speed0Bb_
FNDA:0,_RNCNvMs1_NtNtCsGBPSOZydBW_14darwin_metrics7network9interfaceNtB7_14NetworkManager21get_network_addressess_0Bb_
FNDA:0,_RNvMs1_NtNtCsGBPSOZydBW_14darwin_metrics7network9interfaceNtB5_14NetworkManager10interfaces
FNDA:0,_RNvMs1_NtNtCsGBPSOZydBW_14darwin_metrics7network9interfaceNtB5_14NetworkManager12update_async
FNDA:0,_RNvMs1_NtNtCsGBPSOZydBW_14darwin_metrics7network9interfaceNtB5_14NetworkManager13get_interface
FNDA:0,_RNvMs1_NtNtCsGBPSOZydBW_14darwin_metrics7network9interfaceNtB5_14NetworkManager14get_interfaces
FNDA:0,_RNvMs1_NtNtCsGBPSOZydBW_14darwin_metrics7network9interfaceNtB5_14NetworkManager18total_upload_speed
FNDA:0,_RNvMs1_NtNtCsGBPSOZydBW_14darwin_metrics7network9interfaceNtB5_14NetworkManager19get_interface_async
FNDA:0,_RNvMs1_NtNtCsGBPSOZydBW_14darwin_metrics7network9interfaceNtB5_14NetworkManager20get_throughput_async
FNDA:0,_RNvMs1_NtNtCsGBPSOZydBW_14darwin_metrics7network9interfaceNtB5_14NetworkManager20total_download_speed
FNDA:0,_RNvMs1_NtNtCsGBPSOZydBW_14darwin_metrics7network9interfaceNtB5_14NetworkManager20update_traffic_stats
FNDA:0,_RNvMs1_NtNtCsGBPSOZydBW_14darwin_metrics7network9interfaceNtB5_14NetworkManager21get_network_addresses
FNDA:0,_RNvMs1_NtNtCsGBPSOZydBW_14darwin_metrics7network9interfaceNtB5_14NetworkManager23active_interfaces_async
FNDA:0,_RNvMs1_NtNtCsGBPSOZydBW_14darwin_metrics7network9interfaceNtB5_14NetworkManager24determine_interface_type
FNDA:0,_RNvMs1_NtNtCsGBPSOZydBW_14darwin_metrics7network9interfaceNtB5_14NetworkManager27update_traffic_stats_native
FNDA:0,_RNvMs1_NtNtCsGBPSOZydBW_14darwin_metrics7network9interfaceNtB5_14NetworkManager28update_traffic_stats_netstat
FNDA:0,_RNvMs1_NtNtCsGBPSOZydBW_14darwin_metrics7network9interfaceNtB5_14NetworkManager3new
FNDA:0,_RNvMs1_NtNtCsGBPSOZydBW_14darwin_metrics7network9interfaceNtB5_14NetworkManager6update
FNDA:0,_RNvMs1_NtNtCsGBPSOZydBW_14darwin_metrics7network9interfaceNtB5_14NetworkManager9new_async
FNDA:0,_RNvMs_NtNtCsGBPSOZydBW_14darwin_metrics7network9interfaceNtB4_9Interface11is_flag_set
FNDA:0,_RNvMs_NtNtCsGBPSOZydBW_14darwin_metrics7network9interfaceNtB4_9Interface11is_loopback
FNDA:0,_RNvMs_NtNtCsGBPSOZydBW_14darwin_metrics7network9interfaceNtB4_9Interface11is_wireless
FNDA:0,_RNvMs_NtNtCsGBPSOZydBW_14darwin_metrics7network9interfaceNtB4_9Interface11mac_address
FNDA:0,_RNvMs_NtNtCsGBPSOZydBW_14darwin_metrics7network9interfaceNtB4_9Interface14interface_type
FNDA:0,_RNvMs_NtNtCsGBPSOZydBW_14darwin_metrics7network9interfaceNtB4_9Interface14update_traffic
FNDA:0,_RNvMs_NtNtCsGBPSOZydBW_14darwin_metrics7network9interfaceNtB4_9Interface15send_error_rate
FNDA:0,_RNvMs_NtNtCsGBPSOZydBW_14darwin_metrics7network9interfaceNtB4_9Interface16packet_send_rate
FNDA:0,_RNvMs_NtNtCsGBPSOZydBW_14darwin_metrics7network9interfaceNtB4_9Interface17is_point_to_point
FNDA:0,_RNvMs_NtNtCsGBPSOZydBW_14darwin_metrics7network9interfaceNtB4_9Interface18receive_error_rate
FNDA:0,_RNvMs_NtNtCsGBPSOZydBW_14darwin_metrics7network9interfaceNtB4_9Interface18supports_broadcast
FNDA:0,_RNvMs_NtNtCsGBPSOZydBW_14darwin_metrics7network9interfaceNtB4_9Interface18supports_multicast
FNDA:0,_RNvMs_NtNtCsGBPSOZydBW_14darwin_metrics7network9interfaceNtB4_9Interface19packet_receive_rate
FNDA:0,_RNvMs_NtNtCsGBPSOZydBW_14darwin_metrics7network9interfaceNtB4_9Interface3new
FNDA:0,_RNvMs_NtNtCsGBPSOZydBW_14darwin_metrics7network9interfaceNtB4_9Interface4name
FNDA:0,_RNvMs_NtNtCsGBPSOZydBW_14darwin_metrics7network9interfaceNtB4_9Interface9addresses
FNDA:0,_RNvXNtNtCsGBPSOZydBW_14darwin_metrics7network9interfaceNtB2_13InterfaceTypeNtNtCs4P3ALgZxGbJ_4core3fmt7Display3fmt
FNDA:0,_RNvXs0_NtNtCsGBPSOZydBW_14darwin_metrics7network9interfaceNtB5_9InterfaceNtB7_14NetworkMetrics10bytes_sent
FNDA:0,_RNvXs0_NtNtCsGBPSOZydBW_14darwin_metrics7network9interfaceNtB5_9InterfaceNtB7_14NetworkMetrics10collisions
FNDA:0,_RNvXs0_NtNtCsGBPSOZydBW_14darwin_metrics7network9interfaceNtB5_9InterfaceNtB7_14NetworkMetrics11send_errors
FNDA:0,_RNvXs0_NtNtCsGBPSOZydBW_14darwin_metrics7network9interfaceNtB5_9InterfaceNtB7_14NetworkMetrics12packets_sent
FNDA:0,_RNvXs0_NtNtCsGBPSOZydBW_14darwin_metrics7network9interfaceNtB5_9InterfaceNtB7_14NetworkMetrics12upload_speed
FNDA:0,_RNvXs0_NtNtCsGBPSOZydBW_14darwin_metrics7network9interfaceNtB5_9InterfaceNtB7_14NetworkMetrics14bytes_received
FNDA:0,_RNvXs0_NtNtCsGBPSOZydBW_14darwin_metrics7network9interfaceNtB5_9InterfaceNtB7_14NetworkMetrics14download_speed
FNDA:0,_RNvXs0_NtNtCsGBPSOZydBW_14darwin_metrics7network9interfaceNtB5_9InterfaceNtB7_14NetworkMetrics14receive_errors
FNDA:0,_RNvXs0_NtNtCsGBPSOZydBW_14darwin_metrics7network9interfaceNtB5_9InterfaceNtB7_14NetworkMetrics16packets_received
FNDA:0,_RNvXs0_NtNtCsGBPSOZydBW_14darwin_metrics7network9interfaceNtB5_9InterfaceNtB7_14NetworkMetrics9is_active
FNDA:0,_RNCNvMs1_NtNtCsGBPSOZydBW_14darwin_metrics7network9interfaceNtB7_14NetworkManager21get_network_addresses0Bb_
FNDA:0,_RNCNvMs1_NtNtCsGBPSOZydBW_14darwin_metrics7network9interfaceNtB7_14NetworkManager27update_traffic_stats_native0Bb_
FNDA:0,_RNCNCNvMs1_NtNtCsGBPSOZydBW_14darwin_metrics7network9interfaceNtB9_14NetworkManager12update_async00Bd_
FNDA:0,_RNCNCNvMs1_NtNtCsGBPSOZydBW_14darwin_metrics7network9interfaceNtB9_14NetworkManager12update_async0s_0Bd_
FNDA:0,_RNCNCNvMs1_NtNtCsGBPSOZydBW_14darwin_metrics7network9interfaceNtB9_14NetworkManager23active_interfaces_async00Bd_
FNDA:0,_RNCNvMs1_NtNtCsGBPSOZydBW_14darwin_metrics7network9interfaceNtB7_14NetworkManager12update_async0Bb_
FNDA:0,_RNCNvMs1_NtNtCsGBPSOZydBW_14darwin_metrics7network9interfaceNtB7_14NetworkManager19get_interface_async0Bb_
FNDA:0,_RNCNvMs1_NtNtCsGBPSOZydBW_14darwin_metrics7network9interfaceNtB7_14NetworkManager20get_throughput_async0Bb_
FNDA:0,_RNCNvMs1_NtNtCsGBPSOZydBW_14darwin_metrics7network9interfaceNtB7_14NetworkManager23active_interfaces_async0Bb_
FNDA:0,_RNCNvMs1_NtNtCsGBPSOZydBW_14darwin_metrics7network9interfaceNtB7_14NetworkManager9new_async0Bb_
FNF:66
FNH:48
DA:38,5
DA:39,5
DA:40,1
DA:41,1
DA:42,1
DA:43,1
DA:44,1
DA:46,5
DA:91,73
DA:92,73
DA:93,73
DA:94,73
DA:95,73
DA:96,73
DA:97,73
DA:98,73
DA:99,73
DA:100,73
DA:101,73
DA:102,73
DA:103,73
DA:104,73
DA:105,73
DA:106,73
DA:107,73
DA:108,73
DA:109,73
DA:110,73
DA:111,73
DA:112,73
DA:113,73
DA:114,73
DA:115,73
DA:116,73
DA:117,73
DA:118,73
DA:119,73
DA:120,73
DA:121,73
DA:122,73
DA:125,65
DA:126,65
DA:127,65
DA:130,3
DA:131,3
DA:132,3
DA:135,3
DA:136,3
DA:137,3
DA:140,1
DA:141,1
DA:142,0
DA:144,1
DA:146,1
DA:150,47
DA:151,47
DA:152,47
DA:153,47
DA:154,47
DA:155,47
DA:156,47
DA:157,47
DA:158,47
DA:159,47
DA:160,47
DA:161,47
DA:162,47
DA:163,47
DA:164,47
DA:165,47
DA:166,47
DA:167,47
DA:168,47
DA:169,47
DA:170,47
DA:173,15
DA:174,15
DA:175,15
DA:178,0
DA:179,0
DA:180,0
DA:183,0
DA:184,0
DA:185,0
DA:188,0
DA:189,0
DA:190,0
DA:193,0
DA:194,0
DA:195,0
DA:198,5
DA:199,5
DA:200,5
DA:203,1
DA:204,1
DA:205,1
DA:208,0
DA:209,0
DA:210,0
DA:213,1
DA:214,1
DA:215,1
DA:218,4
DA:219,4
DA:220,3
DA:221,2
DA:222,4
DA:226,4
DA:227,4
DA:228,4
DA:230,4
DA:231,4
DA:232,4
DA:234,3
DA:235,3
DA:236,3
DA:238,3
DA:239,3
DA:240,3
DA:242,3
DA:243,3
DA:244,3
DA:246,3
DA:247,3
DA:248,3
DA:250,3
DA:251,3
DA:252,3
DA:254,5
DA:255,5
DA:256,5
DA:258,5
DA:259,5
DA:260,5
DA:262,2
DA:263,2
DA:264,2
DA:301,2
DA:302,2
DA:305,2
DA:306,0
DA:308,2
DA:310,2
DA:311,2
DA:324,2
DA:326,2
DA:328,62
DA:329,60
DA:330,60
DA:331,60
DA:333,2
DA:334,2
DA:346,2
DA:347,2
DA:348,2
DA:351,5
DA:352,5
DA:353,5
DA:356,2
DA:357,4
DA:358,2
DA:361,2
DA:362,4
DA:363,2
DA:366,2
DA:367,2
DA:368,2
DA:371,2
DA:374,2
DA:377,54
DA:379,52
DA:381,52
DA:383,0
DA:384,0
DA:385,0
DA:388,0
DA:389,0
DA:390,0
DA:391,0
DA:393,52
DA:394,52
DA:395,52
DA:396,52
DA:397,52
DA:398,52
DA:399,52
DA:400,52
DA:401,52
DA:402,52
DA:403,52
DA:404,52
DA:405,52
DA:406,52
DA:407,52
DA:408,52
DA:409,52
DA:410,52
DA:411,52
DA:412,52
DA:413,52
DA:417,2
DA:420,2
DA:422,52
DA:423,52
DA:424,54
DA:426,52
DA:427,44
DA:428,44
DA:429,44
DA:430,44
DA:431,44
DA:432,44
DA:433,8
DA:434,8
DA:435,8
DA:436,8
DA:437,8
DA:438,8
DA:439,8
DA:440,8
DA:441,8
DA:442,8
DA:443,8
DA:444,8
DA:445,8
DA:446,8
DA:447,8
DA:448,8
DA:449,8
DA:450,8
DA:452,0
DA:455,62
DA:456,60
DA:457,60
DA:459,2
DA:460,2
DA:463,2
DA:464,2
DA:465,2
DA:466,2
DA:467,2
DA:468,2
DA:469,2
DA:470,2
DA:471,0
DA:472,2
DA:473,2
DA:474,2
DA:475,2
DA:476,2
DA:477,2
DA:478,2
DA:479,2
DA:480,2
DA:481,88
DA:482,86
DA:483,86
DA:484,86
DA:485,86
DA:486,0
DA:487,0
DA:488,86
DA:491,86
DA:492,86
DA:494,0
DA:495,0
DA:500,86
DA:501,0
DA:502,0
DA:503,86
DA:504,86
DA:505,86
DA:506,86
DA:507,86
DA:508,86
DA:509,86
DA:510,86
DA:512,52
DA:513,86
DA:514,4
DA:515,4
DA:516,4
DA:517,4
DA:518,4
DA:519,82
DA:520,30
DA:521,30
DA:522,30
DA:523,30
DA:524,30
DA:525,52
DA:526,52
DA:527,52
DA:528,52
DA:529,52
DA:530,52
DA:531,30
DA:532,30
DA:533,30
DA:534,30
DA:535,28
DA:536,28
DA:537,28
DA:538,28
DA:539,28
DA:540,28
DA:541,28
DA:542,28
DA:543,28
DA:544,28
DA:545,28
DA:546,28
DA:547,28
DA:548,28
DA:549,28
DA:550,22
DA:552,0
DA:554,0
DA:556,86
DA:560,2
DA:561,2
DA:568,3
DA:570,3
DA:571,0
DA:572,3
DA:573,3
DA:574,3
DA:575,3
DA:576,3
DA:582,4
DA:586,4
DA:587,4
DA:588,4
DA:589,4
DA:590,4
DA:591,4
DA:592,0
DA:593,4
DA:594,4
DA:595,4
DA:596,4
DA:597,4
DA:598,4
DA:599,4
DA:600,4
DA:601,4
DA:602,4
DA:603,4
DA:604,176
DA:605,172
DA:606,172
DA:607,172
DA:608,172
DA:609,0
DA:610,0
DA:611,172
DA:614,172
DA:615,172
DA:617,0
DA:618,0
DA:622,172
DA:623,172
DA:627,108
DA:629,104
DA:630,0
DA:631,0
DA:632,0
DA:633,0
DA:634,0
DA:635,0
DA:636,0
DA:637,0
DA:638,0
DA:639,0
DA:640,0
DA:641,0
DA:642,0
DA:643,0
DA:644,104
DA:648,4
DA:649,4
DA:651,0
DA:653,4
DA:659,4
DA:663,4
DA:665,4
DA:666,0
DA:667,4
DA:668,4
DA:669,4
DA:670,4
DA:671,4
DA:672,4
DA:673,4
DA:674,4
DA:675,4
DA:677,176
DA:678,172
DA:679,172
DA:680,172
DA:681,172
DA:682,0
DA:683,172
DA:684,172
DA:685,172
DA:686,172
DA:687,172
DA:688,172
DA:689,172
DA:690,172
DA:691,172
DA:692,172
DA:693,172
DA:694,172
DA:695,172
DA:696,172
DA:697,172
DA:698,172
DA:700,172
DA:701,172
DA:702,172
DA:703,172
DA:706,4
DA:707,4
DA:710,60
DA:711,60
DA:712,3
DA:713,57
DA:715,18
DA:716,3
DA:718,15
DA:720,39
DA:721,1
DA:722,38
DA:724,21
DA:726,17
DA:728,60
DA:743,0
DA:744,0
DA:747,0
DA:748,0
DA:750,0
DA:752,0
DA:753,0
DA:763,0
DA:766,0
DA:767,0
DA:768,0
DA:769,0
DA:770,0
DA:771,0
DA:772,0
DA:773,0
DA:776,0
DA:777,0
DA:778,0
DA:779,0
DA:781,0
DA:782,0
DA:789,0
DA:790,0
DA:791,0
DA:796,0
DA:797,0
DA:798,0
DA:799,0
DA:800,0
DA:801,0
DA:802,0
DA:808,0
DA:809,0
DA:810,0
DA:819,1
DA:820,1
DA:821,1
DA:822,1
DA:823,1
DA:824,1
DA:825,1
DA:828,1
DA:829,1
DA:830,1
DA:831,1
DA:832,1
DA:833,1
DA:834,1
DA:835,1
DA:836,1
DA:837,1
DA:838,1
DA:839,1
DA:840,1
DA:841,1
DA:842,1
DA:843,1
DA:844,1
DA:845,1
DA:846,1
DA:847,1
DA:848,1
DA:851,1
DA:852,1
DA:853,1
DA:854,1
DA:855,1
DA:856,1
DA:857,1
DA:860,1
DA:861,1
DA:862,1
DA:863,1
DA:864,1
DA:865,1
DA:868,1
DA:869,1
DA:870,1
DA:871,1
DA:872,1
DA:873,1
DA:874,1
DA:875,1
DA:876,1
DA:877,1
DA:878,1
DA:879,1
DA:880,1
DA:881,1
DA:882,1
DA:883,1
DA:884,1
DA:885,1
DA:886,1
DA:889,1
DA:890,1
DA:891,1
DA:892,1
DA:893,1
DA:894,1
DA:895,1
DA:896,1
DA:897,1
DA:898,1
DA:899,1
DA:900,1
DA:901,1
DA:902,1
DA:903,1
DA:904,1
DA:905,1
DA:906,1
DA:907,1
DA:910,1
DA:911,1
DA:912,1
DA:913,1
DA:914,1
DA:915,1
DA:916,1
DA:917,1
DA:918,1
DA:919,1
DA:920,1
DA:921,1
DA:922,1
DA:923,1
DA:924,1
DA:925,1
DA:926,1
DA:929,1
DA:930,1
DA:931,1
DA:932,1
DA:933,1
DA:934,1
DA:935,1
DA:936,1
DA:937,1
DA:938,1
DA:939,1
DA:940,1
DA:941,1
DA:942,1
DA:943,1
DA:946,1
DA:947,1
DA:948,1
DA:949,1
DA:950,1
DA:951,1
DA:952,1
DA:953,1
DA:954,1
DA:955,1
DA:956,1
DA:957,1
DA:958,1
DA:959,1
DA:960,1
DA:961,1
DA:964,1
DA:965,1
DA:966,1
DA:967,1
DA:968,1
DA:971,1
DA:972,1
DA:973,1
DA:974,1
DA:975,1
DA:976,1
DA:977,1
DA:978,1
DA:979,1
DA:980,1
DA:981,1
DA:983,0
DA:984,0
DA:987,0
DA:988,0
DA:989,0
DA:990,0
DA:991,0
DA:992,0
DA:993,0
DA:994,0
DA:995,0
DA:996,0
DA:997,0
DA:1000,1
DA:1001,1
DA:1003,1
DA:1004,1
DA:1008,1
DA:1009,1
DA:1010,1
DA:1013,1
DA:1014,1
DA:1015,1
DA:1016,1
DA:1017,1
DA:1018,1
DA:1019,1
DA:1020,1
DA:1021,1
DA:1022,1
DA:1023,1
DA:1024,1
DA:1025,1
DA:1026,1
DA:1027,1
DA:1028,1
DA:1029,1
DA:1030,1
DA:1031,1
DA:1032,1
DA:1033,1
DA:1034,1
DA:1035,1
DA:1036,1
DA:1037,1
DA:1040,1
DA:1041,1
DA:1042,1
DA:1045,1
DA:1046,1
DA:1047,1
DA:1050,1
DA:1051,1
DA:1052,1
DA:1053,1
DA:1054,1
DA:1055,1
DA:1058,1
DA:1061,1
DA:1064,1
DA:1067,1
DA:1068,1
DA:1069,1
DA:1072,1
DA:1073,1
DA:1078,1
DA:1079,1
DA:1080,1
DA:1081,1
DA:1082,1
DA:1083,1
DA:1084,1
DA:1085,1
DA:1086,1
DA:1087,1
DA:1088,1
DA:1089,1
DA:1090,1
DA:1091,1
DA:1092,1
DA:1093,1
DA:1094,1
DA:1095,1
DA:1096,1
DA:1097,1
DA:1098,1
DA:1099,1
DA:1100,1
DA:1101,1
DA:1102,1
DA:1103,1
DA:1104,1
DA:1105,1
DA:1106,1
DA:1107,1
DA:1108,1
DA:1109,1
DA:1110,1
DA:1111,1
DA:1112,1
DA:1113,1
DA:1114,1
DA:1115,1
DA:1116,1
DA:1117,1
DA:1118,1
DA:1119,1
DA:1120,1
DA:1121,1
DA:1122,1
DA:1123,1
DA:1124,1
DA:1125,1
DA:1126,1
DA:1127,1
DA:1128,1
DA:1129,1
DA:1130,1
BRF:0
BRH:0
LF:749
LH:635
end_of_record
SF:/Users/smeya/git/darwin-metrics/src/network/mod.rs
FN:183,_RNvNtNtCslGh6CY2EcXh_14darwin_metrics7network5tests21create_mock_interface
FN:213,_RNvNtNtCslGh6CY2EcXh_14darwin_metrics7network5tests27create_test_network_manager
FN:268,_RNvNtNtCslGh6CY2EcXh_14darwin_metrics7network5testss_20test_network_manager
FN:248,_RNvNtNtCslGh6CY2EcXh_14darwin_metrics7network5testss_25test_interface_properties
FN:302,_RNvNtNtCslGh6CY2EcXh_14darwin_metrics7network5testss_25test_real_network_manager
FN:228,_RNvNtNtCslGh6CY2EcXh_14darwin_metrics7network5testss_26test_network_metrics_trait
FNDA:5,_RNvNtNtCslGh6CY2EcXh_14darwin_metrics7network5tests21create_mock_interface
FNDA:1,_RNvNtNtCslGh6CY2EcXh_14darwin_metrics7network5tests27create_test_network_manager
FNDA:1,_RNvNtNtCslGh6CY2EcXh_14darwin_metrics7network5testss_20test_network_manager
FNDA:1,_RNvNtNtCslGh6CY2EcXh_14darwin_metrics7network5testss_25test_interface_properties
FNDA:0,_RNvNtNtCslGh6CY2EcXh_14darwin_metrics7network5testss_25test_real_network_manager
FNDA:1,_RNvNtNtCslGh6CY2EcXh_14darwin_metrics7network5testss_26test_network_metrics_trait
FNF:6
FNH:5
DA:183,5
DA:184,5
DA:185,5
DA:186,5
DA:187,5
DA:188,5
DA:189,2
DA:190,2
DA:191,2
DA:193,3
DA:196,5
DA:197,5
DA:198,5
DA:199,5
DA:200,5
DA:201,5
DA:202,5
DA:203,5
DA:204,5
DA:205,5
DA:206,5
DA:207,5
DA:208,5
DA:209,5
DA:210,5
DA:213,1
DA:214,1
DA:215,1
DA:216,1
DA:217,1
DA:218,1
DA:219,1
DA:220,1
DA:221,1
DA:222,1
DA:223,1
DA:224,1
DA:225,1
DA:228,1
DA:229,1
DA:230,1
DA:231,1
DA:232,1
DA:233,1
DA:234,1
DA:235,1
DA:236,1
DA:237,1
DA:238,1
DA:239,1
DA:240,1
DA:243,1
DA:244,1
DA:245,1
DA:248,1
DA:249,1
DA:250,1
DA:251,1
DA:252,1
DA:253,1
DA:254,1
DA:255,1
DA:257,1
DA:258,1
DA:260,1
DA:261,1
DA:263,1
DA:264,1
DA:265,1
DA:268,1
DA:269,1
DA:270,1
DA:271,1
DA:272,1
DA:273,1
DA:276,1
DA:277,1
DA:278,1
DA:280,1
DA:281,1
DA:282,1
DA:285,1
DA:286,1
DA:289,1
DA:290,1
DA:292,0
DA:294,1
DA:295,1
DA:302,0
DA:303,0
DA:306,0
DA:307,0
DA:308,0
DA:309,0
BRF:0
BRH:0
LF:94
LH:87
end_of_record
SF:/Users/smeya/git/darwin-metrics/src/network/traffic.rs
FN:34,_RNvMNtNtCslGh6CY2EcXh_14darwin_metrics7network7trafficNtB2_11TrafficData3new
FN:121,_RNvMs_NtNtCslGh6CY2EcXh_14darwin_metrics7network7trafficNtB4_14TrafficTracker10bytes_sent
FN:146,_RNvMs_NtNtCslGh6CY2EcXh_14darwin_metrics7network7trafficNtB4_14TrafficTracker10collisions
FN:141,_RNvMs_NtNtCslGh6CY2EcXh_14darwin_metrics7network7trafficNtB4_14TrafficTracker11send_errors
FN:131,_RNvMs_NtNtCslGh6CY2EcXh_14darwin_metrics7network7trafficNtB4_14TrafficTracker12packets_sent
FN:169,_RNvMs_NtNtCslGh6CY2EcXh_14darwin_metrics7network7trafficNtB4_14TrafficTracker12upload_speed
FN:116,_RNvMs_NtNtCslGh6CY2EcXh_14darwin_metrics7network7trafficNtB4_14TrafficTracker14bytes_received
FN:152,_RNvMs_NtNtCslGh6CY2EcXh_14darwin_metrics7network7trafficNtB4_14TrafficTracker14download_speed
FN:136,_RNvMs_NtNtCslGh6CY2EcXh_14darwin_metrics7network7trafficNtB4_14TrafficTracker14receive_errors
FN:126,_RNvMs_NtNtCslGh6CY2EcXh_14darwin_metrics7network7trafficNtB4_14TrafficTracker16packets_received
FN:69,_RNvMs_NtNtCslGh6CY2EcXh_14darwin_metrics7network7trafficNtB4_14TrafficTracker3new
FN:93,_RNvMs_NtNtCslGh6CY2EcXh_14darwin_metrics7network7trafficNtB4_14TrafficTracker6update
FN:226,_RNvMs_NtNtCslGh6CY2EcXh_14darwin_metrics7network7trafficNtB4_14TrafficTracker15send_error_rate
FN:201,_RNvMs_NtNtCslGh6CY2EcXh_14darwin_metrics7network7trafficNtB4_14TrafficTracker16packet_send_rate
FN:217,_RNvMs_NtNtCslGh6CY2EcXh_14darwin_metrics7network7trafficNtB4_14TrafficTracker18receive_error_rate
FN:185,_RNvMs_NtNtCslGh6CY2EcXh_14darwin_metrics7network7trafficNtB4_14TrafficTracker19packet_receive_rate
FN:34,_RNvMNtNtCsGBPSOZydBW_14darwin_metrics7network7trafficNtB2_11TrafficData3new
FN:121,_RNvMs_NtNtCsGBPSOZydBW_14darwin_metrics7network7trafficNtB4_14TrafficTracker10bytes_sent
FN:146,_RNvMs_NtNtCsGBPSOZydBW_14darwin_metrics7network7trafficNtB4_14TrafficTracker10collisions
FN:141,_RNvMs_NtNtCsGBPSOZydBW_14darwin_metrics7network7trafficNtB4_14TrafficTracker11send_errors
FN:131,_RNvMs_NtNtCsGBPSOZydBW_14darwin_metrics7network7trafficNtB4_14TrafficTracker12packets_sent
FN:169,_RNvMs_NtNtCsGBPSOZydBW_14darwin_metrics7network7trafficNtB4_14TrafficTracker12upload_speed
FN:116,_RNvMs_NtNtCsGBPSOZydBW_14darwin_metrics7network7trafficNtB4_14TrafficTracker14bytes_received
FN:152,_RNvMs_NtNtCsGBPSOZydBW_14darwin_metrics7network7trafficNtB4_14TrafficTracker14download_speed
FN:136,_RNvMs_NtNtCsGBPSOZydBW_14darwin_metrics7network7trafficNtB4_14TrafficTracker14receive_errors
FN:226,_RNvMs_NtNtCsGBPSOZydBW_14darwin_metrics7network7trafficNtB4_14TrafficTracker15send_error_rate
FN:201,_RNvMs_NtNtCsGBPSOZydBW_14darwin_metrics7network7trafficNtB4_14TrafficTracker16packet_send_rate
FN:126,_RNvMs_NtNtCsGBPSOZydBW_14darwin_metrics7network7trafficNtB4_14TrafficTracker16packets_received
FN:217,_RNvMs_NtNtCsGBPSOZydBW_14darwin_metrics7network7trafficNtB4_14TrafficTracker18receive_error_rate
FN:185,_RNvMs_NtNtCsGBPSOZydBW_14darwin_metrics7network7trafficNtB4_14TrafficTracker19packet_receive_rate
FN:69,_RNvMs_NtNtCsGBPSOZydBW_14darwin_metrics7network7trafficNtB4_14TrafficTracker3new
FN:93,_RNvMs_NtNtCsGBPSOZydBW_14darwin_metrics7network7trafficNtB4_14TrafficTracker6update
FNDA:120,_RNvMNtNtCslGh6CY2EcXh_14darwin_metrics7network7trafficNtB2_11TrafficData3new
FNDA:4,_RNvMs_NtNtCslGh6CY2EcXh_14darwin_metrics7network7trafficNtB4_14TrafficTracker10bytes_sent
FNDA:3,_RNvMs_NtNtCslGh6CY2EcXh_14darwin_metrics7network7trafficNtB4_14TrafficTracker10collisions
FNDA:3,_RNvMs_NtNtCslGh6CY2EcXh_14darwin_metrics7network7trafficNtB4_14TrafficTracker11send_errors
FNDA:3,_RNvMs_NtNtCslGh6CY2EcXh_14darwin_metrics7network7trafficNtB4_14TrafficTracker12packets_sent
FNDA:5,_RNvMs_NtNtCslGh6CY2EcXh_14darwin_metrics7network7trafficNtB4_14TrafficTracker12upload_speed
FNDA:4,_RNvMs_NtNtCslGh6CY2EcXh_14darwin_metrics7network7trafficNtB4_14TrafficTracker14bytes_received
FNDA:5,_RNvMs_NtNtCslGh6CY2EcXh_14darwin_metrics7network7trafficNtB4_14TrafficTracker14download_speed
FNDA:3,_RNvMs_NtNtCslGh6CY2EcXh_14darwin_metrics7network7trafficNtB4_14TrafficTracker14receive_errors
FNDA:3,_RNvMs_NtNtCslGh6CY2EcXh_14darwin_metrics7network7trafficNtB4_14TrafficTracker16packets_received
FNDA:73,_RNvMs_NtNtCslGh6CY2EcXh_14darwin_metrics7network7trafficNtB4_14TrafficTracker3new
FNDA:47,_RNvMs_NtNtCslGh6CY2EcXh_14darwin_metrics7network7trafficNtB4_14TrafficTracker6update
FNDA:0,_RNvMs_NtNtCslGh6CY2EcXh_14darwin_metrics7network7trafficNtB4_14TrafficTracker15send_error_rate
FNDA:0,_RNvMs_NtNtCslGh6CY2EcXh_14darwin_metrics7network7trafficNtB4_14TrafficTracker16packet_send_rate
FNDA:0,_RNvMs_NtNtCslGh6CY2EcXh_14darwin_metrics7network7trafficNtB4_14TrafficTracker18receive_error_rate
FNDA:0,_RNvMs_NtNtCslGh6CY2EcXh_14darwin_metrics7network7trafficNtB4_14TrafficTracker19packet_receive_rate
FNDA:0,_RNvMNtNtCsGBPSOZydBW_14darwin_metrics7network7trafficNtB2_11TrafficData3new
FNDA:0,_RNvMs_NtNtCsGBPSOZydBW_14darwin_metrics7network7trafficNtB4_14TrafficTracker10bytes_sent
FNDA:0,_RNvMs_NtNtCsGBPSOZydBW_14darwin_metrics7network7trafficNtB4_14TrafficTracker10collisions
FNDA:0,_RNvMs_NtNtCsGBPSOZydBW_14darwin_metrics7network7trafficNtB4_14TrafficTracker11send_errors
FNDA:0,_RNvMs_NtNtCsGBPSOZydBW_14darwin_metrics7network7trafficNtB4_14TrafficTracker12packets_sent
FNDA:0,_RNvMs_NtNtCsGBPSOZydBW_14darwin_metrics7network7trafficNtB4_14TrafficTracker12upload_speed
FNDA:0,_RNvMs_NtNtCsGBPSOZydBW_14darwin_metrics7network7trafficNtB4_14TrafficTracker14bytes_received
FNDA:0,_RNvMs_NtNtCsGBPSOZydBW_14darwin_metrics7network7trafficNtB4_14TrafficTracker14download_speed
FNDA:0,_RNvMs_NtNtCsGBPSOZydBW_14darwin_metrics7network7trafficNtB4_14TrafficTracker14receive_errors
FNDA:0,_RNvMs_NtNtCsGBPSOZydBW_14darwin_metrics7network7trafficNtB4_14TrafficTracker15send_error_rate
FNDA:0,_RNvMs_NtNtCsGBPSOZydBW_14darwin_metrics7network7trafficNtB4_14TrafficTracker16packet_send_rate
FNDA:0,_RNvMs_NtNtCsGBPSOZydBW_14darwin_metrics7network7trafficNtB4_14TrafficTracker16packets_received
FNDA:0,_RNvMs_NtNtCsGBPSOZydBW_14darwin_metrics7network7trafficNtB4_14TrafficTracker18receive_error_rate
FNDA:0,_RNvMs_NtNtCsGBPSOZydBW_14darwin_metrics7network7trafficNtB4_14TrafficTracker19packet_receive_rate
FNDA:0,_RNvMs_NtNtCsGBPSOZydBW_14darwin_metrics7network7trafficNtB4_14TrafficTracker3new
FNDA:0,_RNvMs_NtNtCsGBPSOZydBW_14darwin_metrics7network7trafficNtB4_14TrafficTracker6update
FNF:16
FNH:12
DA:34,120
DA:35,120
DA:36,120
DA:37,120
DA:38,120
DA:39,120
DA:40,120
DA:41,120
DA:42,120
DA:43,120
DA:44,120
DA:45,120
DA:46,120
DA:47,120
DA:48,120
DA:49,120
DA:50,120
DA:51,120
DA:52,120
DA:53,120
DA:69,73
DA:70,73
DA:71,73
DA:72,73
DA:73,73
DA:74,73
DA:75,73
DA:76,73
DA:77,73
DA:78,73
DA:79,73
DA:80,73
DA:81,73
DA:82,73
DA:83,73
DA:84,73
DA:85,73
DA:86,73
DA:87,73
DA:88,73
DA:89,73
DA:93,47
DA:94,47
DA:95,47
DA:96,47
DA:97,47
DA:98,47
DA:99,47
DA:100,47
DA:101,47
DA:102,47
DA:103,47
DA:104,47
DA:105,47
DA:106,47
DA:107,47
DA:108,47
DA:109,47
DA:110,47
DA:111,47
DA:112,47
DA:113,47
DA:116,4
DA:117,4
DA:118,4
DA:121,4
DA:122,4
DA:123,4
DA:126,3
DA:127,3
DA:128,3
DA:131,3
DA:132,3
DA:133,3
DA:136,3
DA:137,3
DA:138,3
DA:141,3
DA:142,3
DA:143,3
DA:146,3
DA:147,3
DA:148,3
DA:152,5
DA:153,5
DA:154,2
DA:155,2
DA:156,2
DA:157,2
DA:158,2
DA:160,0
DA:163,3
DA:165,5
DA:169,5
DA:170,5
DA:171,2
DA:172,2
DA:173,2
DA:174,2
DA:175,2
DA:177,0
DA:180,3
DA:182,5
DA:185,0
DA:186,0
DA:187,0
DA:188,0
DA:189,0
DA:190,0
DA:191,0
DA:193,0
DA:196,0
DA:198,0
DA:201,0
DA:202,0
DA:203,0
DA:204,0
DA:205,0
DA:206,0
DA:207,0
DA:209,0
DA:212,0
DA:214,0
DA:217,0
DA:218,0
DA:219,0
DA:221,0
DA:223,0
DA:226,0
DA:227,0
DA:228,0
DA:230,0
DA:232,0
BRF:0
BRH:0
LF:133
LH:101
end_of_record
SF:/Users/smeya/git/darwin-metrics/src/power/mod.rs
FN:173,_RNCNCNvMs0_NtCslGh6CY2EcXh_14darwin_metrics5powerNtB9_5Power25is_power_throttling_async00Bb_
FN:153,_RNCNCNvMs0_NtCslGh6CY2EcXh_14darwin_metrics5powerNtB9_5Power27get_power_consumption_async00Bb_
FN:175,_RNCNCNvMs0_NtCslGh6CY2EcXh_14darwin_metrics5powerNtB9_5Power25is_power_throttling_async0s_0Bb_
FN:155,_RNCNCNvMs0_NtCslGh6CY2EcXh_14darwin_metrics5powerNtB9_5Power27get_power_consumption_async0s_0Bb_
FN:168,_RNCNvMs0_NtCslGh6CY2EcXh_14darwin_metrics5powerNtB7_5Power25is_power_throttling_async0B9_
FN:148,_RNCNvMs0_NtCslGh6CY2EcXh_14darwin_metrics5powerNtB7_5Power27get_power_consumption_async0B9_
FN:217,_RNCNvNtCslGh6CY2EcXh_14darwin_metrics5power27get_power_consumption_async0B5_
FN:291,_RNCNvNtNtCslGh6CY2EcXh_14darwin_metrics5power5testss_27test_power_throttling_async0B7_
FN:279,_RNCNvNtNtCslGh6CY2EcXh_14darwin_metrics5power5testss_28test_power_consumption_async0B7_
FN:311,_RNCNvNtNtCslGh6CY2EcXh_14darwin_metrics5power5testss_32test_convenience_functions_async0B7_
FN:227,_RNvNtNtCslGh6CY2EcXh_14darwin_metrics5power5testss_14test_power_new
FN:320,_RNvNtNtCslGh6CY2EcXh_14darwin_metrics5power5testss_21test_power_state_enum
FN:248,_RNvNtNtCslGh6CY2EcXh_14darwin_metrics5power5testss_21test_power_throttling
FN:233,_RNvNtNtCslGh6CY2EcXh_14darwin_metrics5power5testss_22test_power_consumption
FN:259,_RNvNtNtCslGh6CY2EcXh_14darwin_metrics5power5testss_23test_read_smc_power_key
FN:302,_RNvNtNtCslGh6CY2EcXh_14darwin_metrics5power5testss_26test_convenience_functions
FN:352,_RNvNtNtCslGh6CY2EcXh_14darwin_metrics5power5testss_27test_power_error_conversion
FN:291,_RNvNtNtCslGh6CY2EcXh_14darwin_metrics5power5testss_27test_power_throttling_async
FN:279,_RNvNtNtCslGh6CY2EcXh_14darwin_metrics5power5testss_28test_power_consumption_async
FN:329,_RNvNtNtCslGh6CY2EcXh_14darwin_metrics5power5testss_29test_power_consumption_struct
FN:311,_RNvNtNtCslGh6CY2EcXh_14darwin_metrics5power5testss_32test_convenience_functions_async
FN:181,_RNvMs0_NtCslGh6CY2EcXh_14darwin_metrics5powerNtB5_5Power18read_smc_power_key
FN:159,_RNvMs0_NtCslGh6CY2EcXh_14darwin_metrics5powerNtB5_5Power19is_power_throttling
FN:93,_RNvMs0_NtCslGh6CY2EcXh_14darwin_metrics5powerNtB5_5Power21get_power_consumption
FN:168,_RNvMs0_NtCslGh6CY2EcXh_14darwin_metrics5powerNtB5_5Power25is_power_throttling_async
FN:148,_RNvMs0_NtCslGh6CY2EcXh_14darwin_metrics5powerNtB5_5Power27get_power_consumption_async
FN:88,_RNvMs0_NtCslGh6CY2EcXh_14darwin_metrics5powerNtB5_5Power3new
FN:211,_RNvNtCslGh6CY2EcXh_14darwin_metrics5power21get_power_consumption
FN:217,_RNvNtCslGh6CY2EcXh_14darwin_metrics5power27get_power_consumption_async
FN:23,_RNvXNtCslGh6CY2EcXh_14darwin_metrics5powerNtB2_10PowerErrorINtNtCs4P3ALgZxGbJ_4core7convert4FromNtNtB4_5error5ErrorE4from
FN:205,_RNvXs1_NtCslGh6CY2EcXh_14darwin_metrics5powerNtB5_5PowerNtNtCs4P3ALgZxGbJ_4core5clone5Clone5clone
FN:81,_RNvXs_NtCslGh6CY2EcXh_14darwin_metrics5powerNtB4_5PowerNtNtCs4P3ALgZxGbJ_4core7default7Default7default
FN:181,_RNvMs0_NtCsGBPSOZydBW_14darwin_metrics5powerNtB5_5Power18read_smc_power_key
FN:159,_RNvMs0_NtCsGBPSOZydBW_14darwin_metrics5powerNtB5_5Power19is_power_throttling
FN:93,_RNvMs0_NtCsGBPSOZydBW_14darwin_metrics5powerNtB5_5Power21get_power_consumption
FN:168,_RNvMs0_NtCsGBPSOZydBW_14darwin_metrics5powerNtB5_5Power25is_power_throttling_async
FN:148,_RNvMs0_NtCsGBPSOZydBW_14darwin_metrics5powerNtB5_5Power27get_power_consumption_async
FN:88,_RNvMs0_NtCsGBPSOZydBW_14darwin_metrics5powerNtB5_5Power3new
FN:211,_RNvNtCsGBPSOZydBW_14darwin_metrics5power21get_power_consumption
FN:217,_RNvNtCsGBPSOZydBW_14darwin_metrics5power27get_power_consumption_async
FN:23,_RNvXNtCsGBPSOZydBW_14darwin_metrics5powerNtB2_10PowerErrorINtNtCs4P3ALgZxGbJ_4core7convert4FromNtNtB4_5error5ErrorE4from
FN:205,_RNvXs1_NtCsGBPSOZydBW_14darwin_metrics5powerNtB5_5PowerNtNtCs4P3ALgZxGbJ_4core5clone5Clone5clone
FN:81,_RNvXs_NtCsGBPSOZydBW_14darwin_metrics5powerNtB4_5PowerNtNtCs4P3ALgZxGbJ_4core7default7Default7default
FN:173,_RNCNCNvMs0_NtCsGBPSOZydBW_14darwin_metrics5powerNtB9_5Power25is_power_throttling_async00Bb_
FN:175,_RNCNCNvMs0_NtCsGBPSOZydBW_14darwin_metrics5powerNtB9_5Power25is_power_throttling_async0s_0Bb_
FN:153,_RNCNCNvMs0_NtCsGBPSOZydBW_14darwin_metrics5powerNtB9_5Power27get_power_consumption_async00Bb_
FN:155,_RNCNCNvMs0_NtCsGBPSOZydBW_14darwin_metrics5powerNtB9_5Power27get_power_consumption_async0s_0Bb_
FN:168,_RNCNvMs0_NtCsGBPSOZydBW_14darwin_metrics5powerNtB7_5Power25is_power_throttling_async0B9_
FN:148,_RNCNvMs0_NtCsGBPSOZydBW_14darwin_metrics5powerNtB7_5Power27get_power_consumption_async0B9_
FN:217,_RNCNvNtCsGBPSOZydBW_14darwin_metrics5power27get_power_consumption_async0B5_
FNDA:1,_RNCNCNvMs0_NtCslGh6CY2EcXh_14darwin_metrics5powerNtB9_5Power25is_power_throttling_async00Bb_
FNDA:2,_RNCNCNvMs0_NtCslGh6CY2EcXh_14darwin_metrics5powerNtB9_5Power27get_power_consumption_async00Bb_
FNDA:0,_RNCNCNvMs0_NtCslGh6CY2EcXh_14darwin_metrics5powerNtB9_5Power25is_power_throttling_async0s_0Bb_
FNDA:0,_RNCNCNvMs0_NtCslGh6CY2EcXh_14darwin_metrics5powerNtB9_5Power27get_power_consumption_async0s_0Bb_
FNDA:1,_RNCNvMs0_NtCslGh6CY2EcXh_14darwin_metrics5powerNtB7_5Power25is_power_throttling_async0B9_
FNDA:2,_RNCNvMs0_NtCslGh6CY2EcXh_14darwin_metrics5powerNtB7_5Power27get_power_consumption_async0B9_
FNDA:1,_RNCNvNtCslGh6CY2EcXh_14darwin_metrics5power27get_power_consumption_async0B5_
FNDA:1,_RNCNvNtNtCslGh6CY2EcXh_14darwin_metrics5power5testss_27test_power_throttling_async0B7_
FNDA:1,_RNCNvNtNtCslGh6CY2EcXh_14darwin_metrics5power5testss_28test_power_consumption_async0B7_
FNDA:1,_RNCNvNtNtCslGh6CY2EcXh_14darwin_metrics5power5testss_32test_convenience_functions_async0B7_
FNDA:1,_RNvNtNtCslGh6CY2EcXh_14darwin_metrics5power5testss_14test_power_new
FNDA:1,_RNvNtNtCslGh6CY2EcXh_14darwin_metrics5power5testss_21test_power_state_enum
FNDA:1,_RNvNtNtCslGh6CY2EcXh_14darwin_metrics5power5testss_21test_power_throttling
FNDA:1,_RNvNtNtCslGh6CY2EcXh_14darwin_metrics5power5testss_22test_power_consumption
FNDA:1,_RNvNtNtCslGh6CY2EcXh_14darwin_metrics5power5testss_23test_read_smc_power_key
FNDA:1,_RNvNtNtCslGh6CY2EcXh_14darwin_metrics5power5testss_26test_convenience_functions
FNDA:1,_RNvNtNtCslGh6CY2EcXh_14darwin_metrics5power5testss_27test_power_error_conversion
FNDA:1,_RNvNtNtCslGh6CY2EcXh_14darwin_metrics5power5testss_27test_power_throttling_async
FNDA:1,_RNvNtNtCslGh6CY2EcXh_14darwin_metrics5power5testss_28test_power_consumption_async
FNDA:1,_RNvNtNtCslGh6CY2EcXh_14darwin_metrics5power5testss_29test_power_consumption_struct
FNDA:1,_RNvNtNtCslGh6CY2EcXh_14darwin_metrics5power5testss_32test_convenience_functions_async
FNDA:25,_RNvMs0_NtCslGh6CY2EcXh_14darwin_metrics5powerNtB5_5Power18read_smc_power_key
FNDA:2,_RNvMs0_NtCslGh6CY2EcXh_14darwin_metrics5powerNtB5_5Power19is_power_throttling
FNDA:4,_RNvMs0_NtCslGh6CY2EcXh_14darwin_metrics5powerNtB5_5Power21get_power_consumption
FNDA:1,_RNvMs0_NtCslGh6CY2EcXh_14darwin_metrics5powerNtB5_5Power25is_power_throttling_async
FNDA:2,_RNvMs0_NtCslGh6CY2EcXh_14darwin_metrics5powerNtB5_5Power27get_power_consumption_async
FNDA:8,_RNvMs0_NtCslGh6CY2EcXh_14darwin_metrics5powerNtB5_5Power3new
FNDA:1,_RNvNtCslGh6CY2EcXh_14darwin_metrics5power21get_power_consumption
FNDA:1,_RNvNtCslGh6CY2EcXh_14darwin_metrics5power27get_power_consumption_async
FNDA:3,_RNvXNtCslGh6CY2EcXh_14darwin_metrics5powerNtB2_10PowerErrorINtNtCs4P3ALgZxGbJ_4core7convert4FromNtNtB4_5error5ErrorE4from
FNDA:3,_RNvXs1_NtCslGh6CY2EcXh_14darwin_metrics5powerNtB5_5PowerNtNtCs4P3ALgZxGbJ_4core5clone5Clone5clone
FNDA:8,_RNvXs_NtCslGh6CY2EcXh_14darwin_metrics5powerNtB4_5PowerNtNtCs4P3ALgZxGbJ_4core7default7Default7default
FNDA:0,_RNvMs0_NtCsGBPSOZydBW_14darwin_metrics5powerNtB5_5Power18read_smc_power_key
FNDA:0,_RNvMs0_NtCsGBPSOZydBW_14darwin_metrics5powerNtB5_5Power19is_power_throttling
FNDA:0,_RNvMs0_NtCsGBPSOZydBW_14darwin_metrics5powerNtB5_5Power21get_power_consumption
FNDA:0,_RNvMs0_NtCsGBPSOZydBW_14darwin_metrics5powerNtB5_5Power25is_power_throttling_async
FNDA:0,_RNvMs0_NtCsGBPSOZydBW_14darwin_metrics5powerNtB5_5Power27get_power_consumption_async
FNDA:0,_RNvMs0_NtCsGBPSOZydBW_14darwin_metrics5powerNtB5_5Power3new
FNDA:0,_RNvNtCsGBPSOZydBW_14darwin_metrics5power21get_power_consumption
FNDA:0,_RNvNtCsGBPSOZydBW_14darwin_metrics5power27get_power_consumption_async
FNDA:0,_RNvXNtCsGBPSOZydBW_14darwin_metrics5powerNtB2_10PowerErrorINtNtCs4P3ALgZxGbJ_4core7convert4FromNtNtB4_5error5ErrorE4from
FNDA:0,_RNvXs1_NtCsGBPSOZydBW_14darwin_metrics5powerNtB5_5PowerNtNtCs4P3ALgZxGbJ_4core5clone5Clone5clone
FNDA:0,_RNvXs_NtCsGBPSOZydBW_14darwin_metrics5powerNtB4_5PowerNtNtCs4P3ALgZxGbJ_4core7default7Default7default
FNDA:0,_RNCNCNvMs0_NtCsGBPSOZydBW_14darwin_metrics5powerNtB9_5Power25is_power_throttling_async00Bb_
FNDA:0,_RNCNCNvMs0_NtCsGBPSOZydBW_14darwin_metrics5powerNtB9_5Power25is_power_throttling_async0s_0Bb_
FNDA:0,_RNCNCNvMs0_NtCsGBPSOZydBW_14darwin_metrics5powerNtB9_5Power27get_power_consumption_async00Bb_
FNDA:0,_RNCNCNvMs0_NtCsGBPSOZydBW_14darwin_metrics5powerNtB9_5Power27get_power_consumption_async0s_0Bb_
FNDA:0,_RNCNvMs0_NtCsGBPSOZydBW_14darwin_metrics5powerNtB7_5Power25is_power_throttling_async0B9_
FNDA:0,_RNCNvMs0_NtCsGBPSOZydBW_14darwin_metrics5powerNtB7_5Power27get_power_consumption_async0B9_
FNDA:0,_RNCNvNtCsGBPSOZydBW_14darwin_metrics5power27get_power_consumption_async0B5_
FNF:32
FNH:30
DA:23,3
DA:24,3
DA:25,1
DA:26,1
DA:27,1
DA:29,3
DA:81,8
DA:82,8
DA:83,8
DA:88,8
DA:89,8
DA:90,8
DA:93,4
DA:94,4
DA:95,4
DA:96,4
DA:97,4
DA:98,4
DA:99,4
DA:100,4
DA:101,4
DA:104,4
DA:105,4
DA:106,0
DA:110,4
DA:111,4
DA:112,0
DA:116,4
DA:117,4
DA:118,0
DA:123,4
DA:124,4
DA:127,4
DA:128,4
DA:129,4
DA:130,4
DA:132,0
DA:135,4
DA:136,4
DA:137,4
DA:138,4
DA:139,4
DA:140,4
DA:141,4
DA:142,4
DA:143,4
DA:144,4
DA:145,4
DA:148,2
DA:152,2
DA:153,2
DA:154,2
DA:155,2
DA:156,2
DA:159,2
DA:160,2
DA:161,2
DA:162,2
DA:163,2
DA:164,2
DA:165,2
DA:168,1
DA:172,1
DA:173,1
DA:174,1
DA:175,1
DA:176,1
DA:181,25
DA:182,25
DA:183,25
DA:184,25
DA:185,25
DA:186,25
DA:187,25
DA:190,25
DA:191,25
DA:192,20
DA:193,16
DA:194,11
DA:195,7
DA:196,3
DA:197,1
DA:200,25
DA:201,25
DA:205,3
DA:206,3
DA:207,3
DA:211,1
DA:212,1
DA:213,1
DA:214,1
DA:217,1
DA:218,1
DA:219,1
DA:220,1
DA:227,1
DA:228,1
DA:229,1
DA:230,1
DA:233,1
DA:234,1
DA:235,1
DA:236,1
DA:238,1
DA:239,1
DA:240,1
DA:241,1
DA:242,1
DA:243,1
DA:244,1
DA:245,1
DA:248,1
DA:249,1
DA:250,1
DA:251,1
DA:254,1
DA:255,1
DA:256,1
DA:259,1
DA:260,1
DA:261,1
DA:262,1
DA:263,1
DA:264,1
DA:265,1
DA:267,1
DA:268,1
DA:269,1
DA:272,1
DA:273,1
DA:274,1
DA:275,1
DA:276,1
DA:279,1
DA:280,1
DA:281,1
DA:282,1
DA:283,1
DA:284,1
DA:285,1
DA:286,1
DA:287,1
DA:288,1
DA:291,1
DA:292,1
DA:293,1
DA:294,1
DA:295,1
DA:296,1
DA:297,1
DA:298,1
DA:299,1
DA:302,1
DA:303,1
DA:304,1
DA:306,1
DA:307,1
DA:308,1
DA:311,1
DA:312,1
DA:313,1
DA:314,1
DA:315,1
DA:316,1
DA:317,1
DA:320,1
DA:321,1
DA:322,1
DA:323,1
DA:324,1
DA:325,1
DA:326,1
DA:329,1
DA:330,1
DA:331,1
DA:332,1
DA:333,1
DA:334,1
DA:335,1
DA:336,1
DA:337,1
DA:338,1
DA:339,1
DA:340,1
DA:341,1
DA:342,1
DA:343,1
DA:344,1
DA:345,1
DA:346,1
DA:347,1
DA:348,1
DA:349,1
DA:352,1
DA:353,1
DA:354,1
DA:355,1
DA:357,1
DA:358,1
DA:359,1
DA:361,1
DA:362,1
DA:363,1
DA:364,1
BRF:0
BRH:0
LF:230
LH:224
end_of_record
SF:/Users/smeya/git/darwin-metrics/src/process/mod.rs
FN:206,_RNCNCNvMs0_NtCslGh6CY2EcXh_14darwin_metrics7processNtB9_7Process10get_by_pid00Bb_
FN:211,_RNCNCNvMs0_NtCslGh6CY2EcXh_14darwin_metrics7processNtB9_7Process10get_by_pid0s_0Bb_
FN:390,_RNCNCNvMs0_NtCslGh6CY2EcXh_14darwin_metrics7processNtB9_7Process14get_parent_pid00Bb_
FN:186,_RNCNCNvMs0_NtCslGh6CY2EcXh_14darwin_metrics7processNtB9_7Process19get_all_via_libproc00Bb_
FN:326,_RNCNCNvMs0_NtCslGh6CY2EcXh_14darwin_metrics7processNtB9_7Process20get_process_io_stats00Bb_
FN:703,_RNCNCNvNtNtCslGh6CY2EcXh_14darwin_metrics7process5testss_17test_process_tree00B9_
FN:635,_RNCNCNvNtNtCslGh6CY2EcXh_14darwin_metrics7process5testss_22test_get_all_processes00B9_
FN:205,_RNCNvMs0_NtCslGh6CY2EcXh_14darwin_metrics7processNtB7_7Process10get_by_pid0B9_
FN:383,_RNCNvMs0_NtCslGh6CY2EcXh_14darwin_metrics7processNtB7_7Process14get_parent_pid0B9_
FN:427,_RNCNvMs0_NtCslGh6CY2EcXh_14darwin_metrics7processNtB7_7Process16get_process_tree0B9_
FN:109,_RNCNvMs0_NtCslGh6CY2EcXh_14darwin_metrics7processNtB7_7Process18get_all_via_sysctl0B9_
FN:183,_RNCNvMs0_NtCslGh6CY2EcXh_14darwin_metrics7processNtB7_7Process19get_all_via_libproc0B9_
FN:323,_RNCNvMs0_NtCslGh6CY2EcXh_14darwin_metrics7processNtB7_7Process20get_process_io_stats0B9_
FN:97,_RNCNvMs0_NtCslGh6CY2EcXh_14darwin_metrics7processNtB7_7Process7get_all0B9_
FN:678,_RNCNvNtNtCslGh6CY2EcXh_14darwin_metrics7process5testss_17test_process_tree0B7_
FN:619,_RNCNvNtNtCslGh6CY2EcXh_14darwin_metrics7process5testss_22test_get_all_processes0B7_
FN:604,_RNCNvNtNtCslGh6CY2EcXh_14darwin_metrics7process5testss_24test_get_current_process0B7_
FN:649,_RNCNvNtNtCslGh6CY2EcXh_14darwin_metrics7process5testss_30test_parent_child_relationship0B7_
FN:678,_RNvNtNtCslGh6CY2EcXh_14darwin_metrics7process5testss_17test_process_tree
FN:619,_RNvNtNtCslGh6CY2EcXh_14darwin_metrics7process5testss_22test_get_all_processes
FN:604,_RNvNtNtCslGh6CY2EcXh_14darwin_metrics7process5testss_24test_get_current_process
FN:649,_RNvNtNtCslGh6CY2EcXh_14darwin_metrics7process5testss_30test_parent_child_relationship
FN:81,_RINvMs0_NtCslGh6CY2EcXh_14darwin_metrics7processNtB6_7Process3newpEB8_
FN:342,_RNCNCNvMs0_NtCslGh6CY2EcXh_14darwin_metrics7processNtB9_7Process22get_process_start_time00Bb_
FN:405,_RNCNvMs0_NtCslGh6CY2EcXh_14darwin_metrics7processNtB7_7Process19get_child_processes0B9_
FN:340,_RNCNvMs0_NtCslGh6CY2EcXh_14darwin_metrics7processNtB7_7Process22get_process_start_time0B9_
FN:506,_RNCNvXs1_NtCslGh6CY2EcXh_14darwin_metrics7processNtB7_7ProcessNtNtCs4P3ALgZxGbJ_4core3fmt5Debug3fmt0B9_
FN:544,_RNCNvXs4_NtCslGh6CY2EcXh_14darwin_metrics7processNtB7_20ProcessMetricsStreamNtNtCs4P3ALgZxGbJ_4core3fmt5Debug3fmt0B9_
FN:578,_RNCNvXs6_NtCslGh6CY2EcXh_14darwin_metrics7processNtB7_20ProcessMetricsStreamNtNtCshh1KxnQJceN_12futures_core6stream6Stream9poll_next0B9_
FN:375,_RNvMs0_NtCslGh6CY2EcXh_14darwin_metrics7processNtB5_7Process15monitor_metrics
FN:422,_RNvMs0_NtCslGh6CY2EcXh_14darwin_metrics7processNtB5_7Process17is_system_process
FN:405,_RNvMs0_NtCslGh6CY2EcXh_14darwin_metrics7processNtB5_7Process19get_child_processes
FN:340,_RNvMs0_NtCslGh6CY2EcXh_14darwin_metrics7processNtB5_7Process22get_process_start_time
FN:534,_RNvMs3_NtCslGh6CY2EcXh_14darwin_metrics7processNtB5_20ProcessMetricsStream3new
FN:33,_RNvXNtCslGh6CY2EcXh_14darwin_metrics7processNtB2_14ProcessIOStatsNtNtCs4P3ALgZxGbJ_4core3fmt5Debug3fmt
FN:496,_RNvXs1_NtCslGh6CY2EcXh_14darwin_metrics7processNtB5_7ProcessNtNtCs4P3ALgZxGbJ_4core3fmt5Debug3fmt
FN:540,_RNvXs4_NtCslGh6CY2EcXh_14darwin_metrics7processNtB5_20ProcessMetricsStreamNtNtCs4P3ALgZxGbJ_4core3fmt5Debug3fmt
FN:550,_RNvXs5_NtCslGh6CY2EcXh_14darwin_metrics7processNtB5_20ProcessMetricsStreamNtNtCs4P3ALgZxGbJ_4core5clone5Clone5clone
FN:562,_RNvXs6_NtCslGh6CY2EcXh_14darwin_metrics7processNtB5_20ProcessMetricsStreamNtNtCshh1KxnQJceN_12futures_core6stream6Stream9poll_next
FN:60,_RNCNvNtCslGh6CY2EcXh_14darwin_metrics7process11CPU_HISTORY0B5_
FN:205,_RNvMs0_NtCslGh6CY2EcXh_14darwin_metrics7processNtB5_7Process10get_by_pid
FN:383,_RNvMs0_NtCslGh6CY2EcXh_14darwin_metrics7processNtB5_7Process14get_parent_pid
FN:427,_RNvMs0_NtCslGh6CY2EcXh_14darwin_metrics7processNtB5_7Process16get_process_tree
FN:109,_RNvMs0_NtCslGh6CY2EcXh_14darwin_metrics7processNtB5_7Process18get_all_via_sysctl
FN:276,_RNvMs0_NtCslGh6CY2EcXh_14darwin_metrics7processNtB5_7Process19calculate_cpu_usage
FN:183,_RNvMs0_NtCslGh6CY2EcXh_14darwin_metrics7processNtB5_7Process19get_all_via_libproc
FN:323,_RNvMs0_NtCslGh6CY2EcXh_14darwin_metrics7processNtB5_7Process20get_process_io_stats
FN:97,_RNvMs0_NtCslGh6CY2EcXh_14darwin_metrics7processNtB5_7Process7get_all
FN:64,_RNvNtCslGh6CY2EcXh_14darwin_metrics7process15get_cpu_history
FN:512,_RNvXs2_NtCslGh6CY2EcXh_14darwin_metrics7processNtB5_7ProcessNtNtCs4P3ALgZxGbJ_4core5clone5Clone5clone
FN:44,_RNvXs_NtCslGh6CY2EcXh_14darwin_metrics7processNtB4_14ProcessIOStatsNtNtCs4P3ALgZxGbJ_4core5clone5Clone5clone
FN:206,_RNCNCNvMs0_NtCsGBPSOZydBW_14darwin_metrics7processNtB9_7Process10get_by_pid00Bb_
FN:211,_RNCNCNvMs0_NtCsGBPSOZydBW_14darwin_metrics7processNtB9_7Process10get_by_pid0s_0Bb_
FN:326,_RNCNCNvMs0_NtCsGBPSOZydBW_14darwin_metrics7processNtB9_7Process20get_process_io_stats00Bb_
FN:205,_RNCNvMs0_NtCsGBPSOZydBW_14darwin_metrics7processNtB7_7Process10get_by_pid0B9_
FN:323,_RNCNvMs0_NtCsGBPSOZydBW_14darwin_metrics7processNtB7_7Process20get_process_io_stats0B9_
FN:60,_RNCNvNtCsGBPSOZydBW_14darwin_metrics7process11CPU_HISTORY0B5_
FN:506,_RNCNvXs1_NtCsGBPSOZydBW_14darwin_metrics7processNtB7_7ProcessNtNtCs4P3ALgZxGbJ_4core3fmt5Debug3fmt0B9_
FN:544,_RNCNvXs4_NtCsGBPSOZydBW_14darwin_metrics7processNtB7_20ProcessMetricsStreamNtNtCs4P3ALgZxGbJ_4core3fmt5Debug3fmt0B9_
FN:578,_RNCNvXs6_NtCsGBPSOZydBW_14darwin_metrics7processNtB7_20ProcessMetricsStreamNtNtCshh1KxnQJceN_12futures_core6stream6Stream9poll_next0B9_
FN:205,_RNvMs0_NtCsGBPSOZydBW_14darwin_metrics7processNtB5_7Process10get_by_pid
FN:383,_RNvMs0_NtCsGBPSOZydBW_14darwin_metrics7processNtB5_7Process14get_parent_pid
FN:375,_RNvMs0_NtCsGBPSOZydBW_14darwin_metrics7processNtB5_7Process15monitor_metrics
FN:427,_RNvMs0_NtCsGBPSOZydBW_14darwin_metrics7processNtB5_7Process16get_process_tree
FN:422,_RNvMs0_NtCsGBPSOZydBW_14darwin_metrics7processNtB5_7Process17is_system_process
FN:109,_RNvMs0_NtCsGBPSOZydBW_14darwin_metrics7processNtB5_7Process18get_all_via_sysctl
FN:276,_RNvMs0_NtCsGBPSOZydBW_14darwin_metrics7processNtB5_7Process19calculate_cpu_usage
FN:183,_RNvMs0_NtCsGBPSOZydBW_14darwin_metrics7processNtB5_7Process19get_all_via_libproc
FN:405,_RNvMs0_NtCsGBPSOZydBW_14darwin_metrics7processNtB5_7Process19get_child_processes
FN:323,_RNvMs0_NtCsGBPSOZydBW_14darwin_metrics7processNtB5_7Process20get_process_io_stats
FN:340,_RNvMs0_NtCsGBPSOZydBW_14darwin_metrics7processNtB5_7Process22get_process_start_time
FN:97,_RNvMs0_NtCsGBPSOZydBW_14darwin_metrics7processNtB5_7Process7get_all
FN:534,_RNvMs3_NtCsGBPSOZydBW_14darwin_metrics7processNtB5_20ProcessMetricsStream3new
FN:64,_RNvNtCsGBPSOZydBW_14darwin_metrics7process15get_cpu_history
FN:33,_RNvXNtCsGBPSOZydBW_14darwin_metrics7processNtB2_14ProcessIOStatsNtNtCs4P3ALgZxGbJ_4core3fmt5Debug3fmt
FN:496,_RNvXs1_NtCsGBPSOZydBW_14darwin_metrics7processNtB5_7ProcessNtNtCs4P3ALgZxGbJ_4core3fmt5Debug3fmt
FN:512,_RNvXs2_NtCsGBPSOZydBW_14darwin_metrics7processNtB5_7ProcessNtNtCs4P3ALgZxGbJ_4core5clone5Clone5clone
FN:540,_RNvXs4_NtCsGBPSOZydBW_14darwin_metrics7processNtB5_20ProcessMetricsStreamNtNtCs4P3ALgZxGbJ_4core3fmt5Debug3fmt
FN:550,_RNvXs5_NtCsGBPSOZydBW_14darwin_metrics7processNtB5_20ProcessMetricsStreamNtNtCs4P3ALgZxGbJ_4core5clone5Clone5clone
FN:562,_RNvXs6_NtCsGBPSOZydBW_14darwin_metrics7processNtB5_20ProcessMetricsStreamNtNtCshh1KxnQJceN_12futures_core6stream6Stream9poll_next
FN:44,_RNvXs_NtCsGBPSOZydBW_14darwin_metrics7processNtB4_14ProcessIOStatsNtNtCs4P3ALgZxGbJ_4core5clone5Clone5clone
FN:81,_RINvMs0_NtCsGBPSOZydBW_14darwin_metrics7processNtB6_7Process3newpEB8_
FN:390,_RNCNCNvMs0_NtCsGBPSOZydBW_14darwin_metrics7processNtB9_7Process14get_parent_pid00Bb_
FN:186,_RNCNCNvMs0_NtCsGBPSOZydBW_14darwin_metrics7processNtB9_7Process19get_all_via_libproc00Bb_
FN:342,_RNCNCNvMs0_NtCsGBPSOZydBW_14darwin_metrics7processNtB9_7Process22get_process_start_time00Bb_
FN:383,_RNCNvMs0_NtCsGBPSOZydBW_14darwin_metrics7processNtB7_7Process14get_parent_pid0B9_
FN:427,_RNCNvMs0_NtCsGBPSOZydBW_14darwin_metrics7processNtB7_7Process16get_process_tree0B9_
FN:109,_RNCNvMs0_NtCsGBPSOZydBW_14darwin_metrics7processNtB7_7Process18get_all_via_sysctl0B9_
FN:183,_RNCNvMs0_NtCsGBPSOZydBW_14darwin_metrics7processNtB7_7Process19get_all_via_libproc0B9_
FN:405,_RNCNvMs0_NtCsGBPSOZydBW_14darwin_metrics7processNtB7_7Process19get_child_processes0B9_
FN:340,_RNCNvMs0_NtCsGBPSOZydBW_14darwin_metrics7processNtB7_7Process22get_process_start_time0B9_
FN:97,_RNCNvMs0_NtCsGBPSOZydBW_14darwin_metrics7processNtB7_7Process7get_all0B9_
FNDA:982,_RNCNCNvMs0_NtCslGh6CY2EcXh_14darwin_metrics7processNtB9_7Process10get_by_pid00Bb_
FNDA:0,_RNCNCNvMs0_NtCslGh6CY2EcXh_14darwin_metrics7processNtB9_7Process10get_by_pid0s_0Bb_
FNDA:0,_RNCNCNvMs0_NtCslGh6CY2EcXh_14darwin_metrics7processNtB9_7Process14get_parent_pid00Bb_
FNDA:0,_RNCNCNvMs0_NtCslGh6CY2EcXh_14darwin_metrics7processNtB9_7Process19get_all_via_libproc00Bb_
FNDA:0,_RNCNCNvMs0_NtCslGh6CY2EcXh_14darwin_metrics7processNtB9_7Process20get_process_io_stats00Bb_
FNDA:69,_RNCNCNvNtNtCslGh6CY2EcXh_14darwin_metrics7process5testss_17test_process_tree00B9_
FNDA:809,_RNCNCNvNtNtCslGh6CY2EcXh_14darwin_metrics7process5testss_22test_get_all_processes00B9_
FNDA:1334,_RNCNvMs0_NtCslGh6CY2EcXh_14darwin_metrics7processNtB7_7Process10get_by_pid0B9_
FNDA:699,_RNCNvMs0_NtCslGh6CY2EcXh_14darwin_metrics7processNtB7_7Process14get_parent_pid0B9_
FNDA:1,_RNCNvMs0_NtCslGh6CY2EcXh_14darwin_metrics7processNtB7_7Process16get_process_tree0B9_
FNDA:1,_RNCNvMs0_NtCslGh6CY2EcXh_14darwin_metrics7processNtB7_7Process18get_all_via_sysctl0B9_
FNDA:1,_RNCNvMs0_NtCslGh6CY2EcXh_14darwin_metrics7processNtB7_7Process19get_all_via_libproc0B9_
FNDA:352,_RNCNvMs0_NtCslGh6CY2EcXh_14darwin_metrics7processNtB7_7Process20get_process_io_stats0B9_
FNDA:1,_RNCNvMs0_NtCslGh6CY2EcXh_14darwin_metrics7processNtB7_7Process7get_all0B9_
FNDA:1,_RNCNvNtNtCslGh6CY2EcXh_14darwin_metrics7process5testss_17test_process_tree0B7_
FNDA:1,_RNCNvNtNtCslGh6CY2EcXh_14darwin_metrics7process5testss_22test_get_all_processes0B7_
FNDA:1,_RNCNvNtNtCslGh6CY2EcXh_14darwin_metrics7process5testss_24test_get_current_process0B7_
FNDA:1,_RNCNvNtNtCslGh6CY2EcXh_14darwin_metrics7process5testss_30test_parent_child_relationship0B7_
FNDA:1,_RNvNtNtCslGh6CY2EcXh_14darwin_metrics7process5testss_17test_process_tree
FNDA:1,_RNvNtNtCslGh6CY2EcXh_14darwin_metrics7process5testss_22test_get_all_processes
FNDA:1,_RNvNtNtCslGh6CY2EcXh_14darwin_metrics7process5testss_24test_get_current_process
FNDA:1,_RNvNtNtCslGh6CY2EcXh_14darwin_metrics7process5testss_30test_parent_child_relationship
FNDA:0,_RINvMs0_NtCslGh6CY2EcXh_14darwin_metrics7processNtB6_7Process3newpEB8_
FNDA:0,_RNCNCNvMs0_NtCslGh6CY2EcXh_14darwin_metrics7processNtB9_7Process22get_process_start_time00Bb_
FNDA:0,_RNCNvMs0_NtCslGh6CY2EcXh_14darwin_metrics7processNtB7_7Process19get_child_processes0B9_
FNDA:0,_RNCNvMs0_NtCslGh6CY2EcXh_14darwin_metrics7processNtB7_7Process22get_process_start_time0B9_
FNDA:0,_RNCNvXs1_NtCslGh6CY2EcXh_14darwin_metrics7processNtB7_7ProcessNtNtCs4P3ALgZxGbJ_4core3fmt5Debug3fmt0B9_
FNDA:0,_RNCNvXs4_NtCslGh6CY2EcXh_14darwin_metrics7processNtB7_20ProcessMetricsStreamNtNtCs4P3ALgZxGbJ_4core3fmt5Debug3fmt0B9_
FNDA:0,_RNCNvXs6_NtCslGh6CY2EcXh_14darwin_metrics7processNtB7_20ProcessMetricsStreamNtNtCshh1KxnQJceN_12futures_core6stream6Stream9poll_next0B9_
FNDA:0,_RNvMs0_NtCslGh6CY2EcXh_14darwin_metrics7processNtB5_7Process15monitor_metrics
FNDA:0,_RNvMs0_NtCslGh6CY2EcXh_14darwin_metrics7processNtB5_7Process17is_system_process
FNDA:0,_RNvMs0_NtCslGh6CY2EcXh_14darwin_metrics7processNtB5_7Process19get_child_processes
FNDA:0,_RNvMs0_NtCslGh6CY2EcXh_14darwin_metrics7processNtB5_7Process22get_process_start_time
FNDA:0,_RNvMs3_NtCslGh6CY2EcXh_14darwin_metrics7processNtB5_20ProcessMetricsStream3new
FNDA:0,_RNvXNtCslGh6CY2EcXh_14darwin_metrics7processNtB2_14ProcessIOStatsNtNtCs4P3ALgZxGbJ_4core3fmt5Debug3fmt
FNDA:0,_RNvXs1_NtCslGh6CY2EcXh_14darwin_metrics7processNtB5_7ProcessNtNtCs4P3ALgZxGbJ_4core3fmt5Debug3fmt
FNDA:0,_RNvXs4_NtCslGh6CY2EcXh_14darwin_metrics7processNtB5_20ProcessMetricsStreamNtNtCs4P3ALgZxGbJ_4core3fmt5Debug3fmt
FNDA:0,_RNvXs5_NtCslGh6CY2EcXh_14darwin_metrics7processNtB5_20ProcessMetricsStreamNtNtCs4P3ALgZxGbJ_4core5clone5Clone5clone
FNDA:0,_RNvXs6_NtCslGh6CY2EcXh_14darwin_metrics7processNtB5_20ProcessMetricsStreamNtNtCshh1KxnQJceN_12futures_core6stream6Stream9poll_next
FNDA:1,_RNCNvNtCslGh6CY2EcXh_14darwin_metrics7process11CPU_HISTORY0B5_
FNDA:1334,_RNvMs0_NtCslGh6CY2EcXh_14darwin_metrics7processNtB5_7Process10get_by_pid
FNDA:699,_RNvMs0_NtCslGh6CY2EcXh_14darwin_metrics7processNtB5_7Process14get_parent_pid
FNDA:1,_RNvMs0_NtCslGh6CY2EcXh_14darwin_metrics7processNtB5_7Process16get_process_tree
FNDA:1,_RNvMs0_NtCslGh6CY2EcXh_14darwin_metrics7processNtB5_7Process18get_all_via_sysctl
FNDA:352,_RNvMs0_NtCslGh6CY2EcXh_14darwin_metrics7processNtB5_7Process19calculate_cpu_usage
FNDA:1,_RNvMs0_NtCslGh6CY2EcXh_14darwin_metrics7processNtB5_7Process19get_all_via_libproc
FNDA:352,_RNvMs0_NtCslGh6CY2EcXh_14darwin_metrics7processNtB5_7Process20get_process_io_stats
FNDA:1,_RNvMs0_NtCslGh6CY2EcXh_14darwin_metrics7processNtB5_7Process7get_all
FNDA:353,_RNvNtCslGh6CY2EcXh_14darwin_metrics7process15get_cpu_history
FNDA:698,_RNvXs2_NtCslGh6CY2EcXh_14darwin_metrics7processNtB5_7ProcessNtNtCs4P3ALgZxGbJ_4core5clone5Clone5clone
FNDA:698,_RNvXs_NtCslGh6CY2EcXh_14darwin_metrics7processNtB4_14ProcessIOStatsNtNtCs4P3ALgZxGbJ_4core5clone5Clone5clone
FNDA:0,_RNCNCNvMs0_NtCsGBPSOZydBW_14darwin_metrics7processNtB9_7Process10get_by_pid00Bb_
FNDA:0,_RNCNCNvMs0_NtCsGBPSOZydBW_14darwin_metrics7processNtB9_7Process10get_by_pid0s_0Bb_
FNDA:0,_RNCNCNvMs0_NtCsGBPSOZydBW_14darwin_metrics7processNtB9_7Process20get_process_io_stats00Bb_
FNDA:0,_RNCNvMs0_NtCsGBPSOZydBW_14darwin_metrics7processNtB7_7Process10get_by_pid0B9_
FNDA:0,_RNCNvMs0_NtCsGBPSOZydBW_14darwin_metrics7processNtB7_7Process20get_process_io_stats0B9_
FNDA:0,_RNCNvNtCsGBPSOZydBW_14darwin_metrics7process11CPU_HISTORY0B5_
FNDA:0,_RNCNvXs1_NtCsGBPSOZydBW_14darwin_metrics7processNtB7_7ProcessNtNtCs4P3ALgZxGbJ_4core3fmt5Debug3fmt0B9_
FNDA:0,_RNCNvXs4_NtCsGBPSOZydBW_14darwin_metrics7processNtB7_20ProcessMetricsStreamNtNtCs4P3ALgZxGbJ_4core3fmt5Debug3fmt0B9_
FNDA:0,_RNCNvXs6_NtCsGBPSOZydBW_14darwin_metrics7processNtB7_20ProcessMetricsStreamNtNtCshh1KxnQJceN_12futures_core6stream6Stream9poll_next0B9_
FNDA:0,_RNvMs0_NtCsGBPSOZydBW_14darwin_metrics7processNtB5_7Process10get_by_pid
FNDA:0,_RNvMs0_NtCsGBPSOZydBW_14darwin_metrics7processNtB5_7Process14get_parent_pid
FNDA:0,_RNvMs0_NtCsGBPSOZydBW_14darwin_metrics7processNtB5_7Process15monitor_metrics
FNDA:0,_RNvMs0_NtCsGBPSOZydBW_14darwin_metrics7processNtB5_7Process16get_process_tree
FNDA:0,_RNvMs0_NtCsGBPSOZydBW_14darwin_metrics7processNtB5_7Process17is_system_process
FNDA:0,_RNvMs0_NtCsGBPSOZydBW_14darwin_metrics7processNtB5_7Process18get_all_via_sysctl
FNDA:0,_RNvMs0_NtCsGBPSOZydBW_14darwin_metrics7processNtB5_7Process19calculate_cpu_usage
FNDA:0,_RNvMs0_NtCsGBPSOZydBW_14darwin_metrics7processNtB5_7Process19get_all_via_libproc
FNDA:0,_RNvMs0_NtCsGBPSOZydBW_14darwin_metrics7processNtB5_7Process19get_child_processes
FNDA:0,_RNvMs0_NtCsGBPSOZydBW_14darwin_metrics7processNtB5_7Process20get_process_io_stats
FNDA:0,_RNvMs0_NtCsGBPSOZydBW_14darwin_metrics7processNtB5_7Process22get_process_start_time
FNDA:0,_RNvMs0_NtCsGBPSOZydBW_14darwin_metrics7processNtB5_7Process7get_all
FNDA:0,_RNvMs3_NtCsGBPSOZydBW_14darwin_metrics7processNtB5_20ProcessMetricsStream3new
FNDA:0,_RNvNtCsGBPSOZydBW_14darwin_metrics7process15get_cpu_history
FNDA:0,_RNvXNtCsGBPSOZydBW_14darwin_metrics7processNtB2_14ProcessIOStatsNtNtCs4P3ALgZxGbJ_4core3fmt5Debug3fmt
FNDA:0,_RNvXs1_NtCsGBPSOZydBW_14darwin_metrics7processNtB5_7ProcessNtNtCs4P3ALgZxGbJ_4core3fmt5Debug3fmt
FNDA:0,_RNvXs2_NtCsGBPSOZydBW_14darwin_metrics7processNtB5_7ProcessNtNtCs4P3ALgZxGbJ_4core5clone5Clone5clone
FNDA:0,_RNvXs4_NtCsGBPSOZydBW_14darwin_metrics7processNtB5_20ProcessMetricsStreamNtNtCs4P3ALgZxGbJ_4core3fmt5Debug3fmt
FNDA:0,_RNvXs5_NtCsGBPSOZydBW_14darwin_metrics7processNtB5_20ProcessMetricsStreamNtNtCs4P3ALgZxGbJ_4core5clone5Clone5clone
FNDA:0,_RNvXs6_NtCsGBPSOZydBW_14darwin_metrics7processNtB5_20ProcessMetricsStreamNtNtCshh1KxnQJceN_12futures_core6stream6Stream9poll_next
FNDA:0,_RNvXs_NtCsGBPSOZydBW_14darwin_metrics7processNtB4_14ProcessIOStatsNtNtCs4P3ALgZxGbJ_4core5clone5Clone5clone
FNDA:0,_RINvMs0_NtCsGBPSOZydBW_14darwin_metrics7processNtB6_7Process3newpEB8_
FNDA:0,_RNCNCNvMs0_NtCsGBPSOZydBW_14darwin_metrics7processNtB9_7Process14get_parent_pid00Bb_
FNDA:0,_RNCNCNvMs0_NtCsGBPSOZydBW_14darwin_metrics7processNtB9_7Process19get_all_via_libproc00Bb_
FNDA:0,_RNCNCNvMs0_NtCsGBPSOZydBW_14darwin_metrics7processNtB9_7Process22get_process_start_time00Bb_
FNDA:0,_RNCNvMs0_NtCsGBPSOZydBW_14darwin_metrics7processNtB7_7Process14get_parent_pid0B9_
FNDA:0,_RNCNvMs0_NtCsGBPSOZydBW_14darwin_metrics7processNtB7_7Process16get_process_tree0B9_
FNDA:0,_RNCNvMs0_NtCsGBPSOZydBW_14darwin_metrics7processNtB7_7Process18get_all_via_sysctl0B9_
FNDA:0,_RNCNvMs0_NtCsGBPSOZydBW_14darwin_metrics7processNtB7_7Process19get_all_via_libproc0B9_
FNDA:0,_RNCNvMs0_NtCsGBPSOZydBW_14darwin_metrics7processNtB7_7Process19get_child_processes0B9_
FNDA:0,_RNCNvMs0_NtCsGBPSOZydBW_14darwin_metrics7processNtB7_7Process22get_process_start_time0B9_
FNDA:0,_RNCNvMs0_NtCsGBPSOZydBW_14darwin_metrics7processNtB7_7Process7get_all0B9_
FNF:51
FNH:30
DA:33,0
DA:34,0
DA:35,0
DA:36,0
DA:37,0
DA:38,0
DA:39,0
DA:40,0
DA:44,698
DA:45,698
DA:46,698
DA:47,698
DA:48,698
DA:49,698
DA:50,698
DA:51,698
DA:60,1
DA:64,353
DA:65,353
DA:66,353
DA:81,0
DA:82,0
DA:83,0
DA:84,0
DA:85,0
DA:86,0
DA:87,0
DA:88,0
DA:89,0
DA:90,0
DA:91,0
DA:92,0
DA:93,0
DA:97,1
DA:98,1
DA:99,1
DA:100,1
DA:103,0
DA:106,1
DA:109,1
DA:114,1
DA:115,1
DA:116,1
DA:117,1
DA:118,0
DA:119,1
DA:120,1
DA:121,1
DA:122,1
DA:123,1
DA:124,1
DA:125,1
DA:126,1
DA:127,1
DA:128,1
DA:129,1
DA:130,0
DA:131,1
DA:132,1
DA:133,1
DA:134,1
DA:135,1
DA:136,1
DA:137,1
DA:138,1
DA:140,6967
DA:141,6966
DA:142,6966
DA:143,6157
DA:144,809
DA:145,809
DA:146,809
DA:147,809
DA:148,809
DA:149,809
DA:150,809
DA:151,809
DA:152,809
DA:153,809
DA:154,809
DA:155,809
DA:156,809
DA:157,809
DA:158,809
DA:159,809
DA:160,809
DA:161,809
DA:162,809
DA:166,810
DA:168,809
DA:169,0
DA:170,0
DA:171,0
DA:172,0
DA:173,0
DA:174,0
DA:175,809
DA:178,1
DA:180,1
DA:183,1
DA:186,1
DA:187,0
DA:188,1
DA:190,1
DA:191,524
DA:192,523
DA:193,1
DA:194,522
DA:195,522
DA:196,522
DA:197,349
DA:198,173
DA:202,1
DA:203,1
DA:205,1334
DA:206,1334
DA:207,982
DA:208,1334
DA:210,352
DA:211,352
DA:212,0
DA:213,352
DA:216,352
DA:217,352
DA:219,0
DA:222,352
DA:223,352
DA:225,0
DA:226,0
DA:227,0
DA:229,352
DA:230,352
DA:231,0
DA:232,0
DA:233,0
DA:235,352
DA:237,0
DA:238,0
DA:239,0
DA:245,352
DA:246,352
DA:247,352
DA:248,352
DA:249,352
DA:250,352
DA:251,352
DA:252,352
DA:253,352
DA:254,352
DA:255,352
DA:256,352
DA:259,352
DA:260,352
DA:261,352
DA:262,352
DA:263,352
DA:264,352
DA:265,352
DA:266,352
DA:267,352
DA:268,352
DA:269,352
DA:270,352
DA:271,352
DA:272,1334
DA:276,352
DA:277,352
DA:278,352
DA:281,352
DA:282,2
DA:283,2
DA:284,2
DA:285,2
DA:287,0
DA:288,0
DA:289,0
DA:290,0
DA:291,0
DA:292,0
DA:295,2
DA:299,350
DA:303,352
DA:304,352
DA:305,352
DA:306,352
DA:307,352
DA:308,352
DA:310,0
DA:313,0
DA:314,0
DA:315,0
DA:316,0
DA:318,352
DA:320,352
DA:321,352
DA:323,352
DA:326,352
DA:327,0
DA:328,352
DA:330,352
DA:331,352
DA:332,352
DA:333,352
DA:334,352
DA:335,352
DA:336,352
DA:337,352
DA:338,352
DA:340,0
DA:341,0
DA:342,0
DA:344,0
DA:345,0
DA:347,0
DA:350,0
DA:351,0
DA:353,0
DA:354,0
DA:355,0
DA:357,0
DA:358,0
DA:359,0
DA:360,0
DA:361,0
DA:363,0
DA:365,0
DA:366,0
DA:367,0
DA:372,0
DA:373,0
DA:375,0
DA:376,0
DA:377,0
DA:378,0
DA:379,0
DA:380,0
DA:383,699
DA:384,699
DA:385,699
DA:386,0
DA:387,699
DA:389,699
DA:390,699
DA:391,0
DA:392,699
DA:394,699
DA:395,699
DA:396,699
DA:397,699
DA:398,0
DA:399,699
DA:400,699
DA:401,699
DA:402,699
DA:405,0
DA:406,0
DA:408,0
DA:409,0
DA:410,0
DA:411,0
DA:412,0
DA:413,0
DA:414,0
DA:417,0
DA:418,0
DA:422,0
DA:423,0
DA:424,0
DA:425,0
DA:427,1
DA:429,1
DA:432,1
DA:434,1
DA:435,350
DA:436,349
DA:437,349
DA:440,1
DA:441,349
DA:442,349
DA:443,349
DA:444,349
DA:448,1
DA:449,349
DA:450,349
DA:451,349
DA:452,349
DA:453,287
DA:454,287
DA:455,0
DA:456,0
DA:457,0
DA:458,0
DA:459,0
DA:463,1
DA:464,1
DA:467,288
DA:468,287
DA:469,287
DA:470,287
DA:474,350
DA:475,349
DA:478,349
DA:480,62
DA:481,62
DA:482,62
DA:483,62
DA:485,325
DA:488,1
DA:489,1
DA:490,1
DA:491,1
DA:492,1
DA:496,0
DA:497,0
DA:498,0
DA:499,0
DA:500,0
DA:501,0
DA:502,0
DA:503,0
DA:504,0
DA:505,0
DA:506,0
DA:507,0
DA:508,0
DA:512,698
DA:513,698
DA:514,698
DA:515,698
DA:516,698
DA:517,698
DA:518,698
DA:519,698
DA:520,698
DA:521,698
DA:522,698
DA:523,698
DA:524,698
DA:534,0
DA:535,0
DA:536,0
DA:540,0
DA:541,0
DA:542,0
DA:543,0
DA:544,0
DA:545,0
DA:546,0
DA:550,0
DA:551,0
DA:552,0
DA:553,0
DA:554,0
DA:555,0
DA:556,0
DA:562,0
DA:563,0
DA:565,0
DA:566,0
DA:567,0
DA:568,0
DA:569,0
DA:571,0
DA:573,0
DA:574,0
DA:575,0
DA:577,0
DA:578,0
DA:580,0
DA:581,0
DA:582,0
DA:583,0
DA:584,0
DA:586,0
DA:589,0
DA:592,0
DA:594,0
DA:604,1
DA:605,1
DA:606,1
DA:607,1
DA:608,1
DA:609,1
DA:610,1
DA:611,1
DA:612,1
DA:613,1
DA:614,1
DA:615,1
DA:616,1
DA:619,1
DA:620,1
DA:621,1
DA:622,1
DA:623,1
DA:624,1
DA:625,1
DA:626,0
DA:627,0
DA:628,1
DA:629,1
DA:630,1
DA:631,1
DA:632,1
DA:633,1
DA:634,1
DA:635,809
DA:636,1
DA:637,1
DA:638,1
DA:639,1
DA:640,1
DA:641,1
DA:642,1
DA:643,1
DA:644,1
DA:645,1
DA:646,1
DA:649,1
DA:650,1
DA:651,1
DA:652,1
DA:653,1
DA:654,1
DA:655,1
DA:656,1
DA:657,1
DA:658,1
DA:659,1
DA:660,1
DA:661,1
DA:662,1
DA:663,1
DA:664,1
DA:665,1
DA:666,1
DA:667,1
DA:668,1
DA:669,1
DA:670,1
DA:671,1
DA:672,1
DA:673,1
DA:674,1
DA:675,1
DA:678,1
DA:679,1
DA:680,1
DA:681,1
DA:682,1
DA:683,1
DA:684,0
DA:685,0
DA:686,1
DA:687,1
DA:688,1
DA:689,1
DA:690,1
DA:691,1
DA:692,0
DA:693,0
DA:694,0
DA:695,1
DA:696,1
DA:697,1
DA:698,1
DA:699,1
DA:700,1
DA:701,1
DA:702,1
DA:703,69
DA:704,0
DA:705,0
DA:706,0
DA:707,1
DA:708,1
DA:709,1
DA:710,1
DA:711,1
DA:712,1
DA:713,1
DA:714,1
DA:715,1
DA:716,1
DA:717,1
BRF:0
BRH:0
LF:581
LH:395
end_of_record
SF:/Users/smeya/git/darwin-metrics/src/system/mod.rs
FN:94,_RNvNtNtCslGh6CY2EcXh_14darwin_metrics6system5testss_22test_architecture_enum
